
build/stm32eforth.elf:     file format elf32-littlearm


Disassembly of section .isr_vector:

08000000 <isr_vectors>:
 8000000:	20020000 	andcs	r0, r2, r0
 8000004:	08000561 	stmdaeq	r0, {r0, r5, r6, r8, sl}
 8000008:	08000305 	stmdaeq	r0, {r0, r2, r8, r9}
 800000c:	0800033d 	stmdaeq	r0, {r0, r2, r3, r4, r5, r8, r9}
 8000010:	08000379 	stmdaeq	r0, {r0, r3, r4, r5, r6, r8, r9}
 8000014:	080003e5 	stmdaeq	r0, {r0, r2, r5, r6, r7, r8, r9}
 8000018:	08000479 	stmdaeq	r0, {r0, r3, r4, r5, r6, sl}
	...
 800002c:	08000201 	stmdaeq	r0, {r0, r9}
 8000030:	08000201 	stmdaeq	r0, {r0, r9}
 8000034:	00000000 	andeq	r0, r0, r0
 8000038:	08000201 	stmdaeq	r0, {r0, r9}
 800003c:	080004dd 	stmdaeq	r0, {r0, r2, r3, r4, r6, r7, sl}

08000040 <irq0>:
 8000040:	08000201 	stmdaeq	r0, {r0, r9}
 8000044:	08000201 	stmdaeq	r0, {r0, r9}
 8000048:	08000201 	stmdaeq	r0, {r0, r9}
 800004c:	08000201 	stmdaeq	r0, {r0, r9}
 8000050:	08000201 	stmdaeq	r0, {r0, r9}
 8000054:	08000201 	stmdaeq	r0, {r0, r9}
 8000058:	08000201 	stmdaeq	r0, {r0, r9}
 800005c:	08000201 	stmdaeq	r0, {r0, r9}
 8000060:	08000201 	stmdaeq	r0, {r0, r9}
 8000064:	08000201 	stmdaeq	r0, {r0, r9}
 8000068:	08000201 	stmdaeq	r0, {r0, r9}
 800006c:	08000201 	stmdaeq	r0, {r0, r9}
 8000070:	08000201 	stmdaeq	r0, {r0, r9}
 8000074:	08000201 	stmdaeq	r0, {r0, r9}
 8000078:	08000201 	stmdaeq	r0, {r0, r9}
 800007c:	08000201 	stmdaeq	r0, {r0, r9}
 8000080:	08000201 	stmdaeq	r0, {r0, r9}
 8000084:	08000201 	stmdaeq	r0, {r0, r9}
 8000088:	08000201 	stmdaeq	r0, {r0, r9}
	...
 800009c:	08000201 	stmdaeq	r0, {r0, r9}
 80000a0:	08000201 	stmdaeq	r0, {r0, r9}
 80000a4:	08000201 	stmdaeq	r0, {r0, r9}
 80000a8:	08000201 	stmdaeq	r0, {r0, r9}
 80000ac:	08000201 	stmdaeq	r0, {r0, r9}
 80000b0:	08000201 	stmdaeq	r0, {r0, r9}
 80000b4:	08000c35 	stmdaeq	r0, {r0, r2, r4, r5, sl, fp}
 80000b8:	08000201 	stmdaeq	r0, {r0, r9}
 80000bc:	08000201 	stmdaeq	r0, {r0, r9}
 80000c0:	08000201 	stmdaeq	r0, {r0, r9}
 80000c4:	08000201 	stmdaeq	r0, {r0, r9}
 80000c8:	08000201 	stmdaeq	r0, {r0, r9}
 80000cc:	08000201 	stmdaeq	r0, {r0, r9}
 80000d0:	08000201 	stmdaeq	r0, {r0, r9}
 80000d4:	08000901 	stmdaeq	r0, {r0, r8, fp}
 80000d8:	08000201 	stmdaeq	r0, {r0, r9}
 80000dc:	00000000 	andeq	r0, r0, r0
 80000e0:	08001511 	stmdaeq	r0, {r0, r4, r8, sl, ip}
 80000e4:	08000201 	stmdaeq	r0, {r0, r9}
 80000e8:	08000201 	stmdaeq	r0, {r0, r9}
	...
 80000fc:	08000201 	stmdaeq	r0, {r0, r9}
 8000100:	00000000 	andeq	r0, r0, r0
 8000104:	08000201 	stmdaeq	r0, {r0, r9}
 8000108:	08000201 	stmdaeq	r0, {r0, r9}
 800010c:	08000201 	stmdaeq	r0, {r0, r9}
	...
 8000120:	08000201 	stmdaeq	r0, {r0, r9}
 8000124:	08000201 	stmdaeq	r0, {r0, r9}
 8000128:	08000201 	stmdaeq	r0, {r0, r9}
 800012c:	08000201 	stmdaeq	r0, {r0, r9}
 8000130:	08000201 	stmdaeq	r0, {r0, r9}
	...
 800014c:	08000201 	stmdaeq	r0, {r0, r9}
 8000150:	08000201 	stmdaeq	r0, {r0, r9}
 8000154:	08000201 	stmdaeq	r0, {r0, r9}
 8000158:	08000201 	stmdaeq	r0, {r0, r9}
 800015c:	08000201 	stmdaeq	r0, {r0, r9}
 8000160:	08000201 	stmdaeq	r0, {r0, r9}
 8000164:	08000201 	stmdaeq	r0, {r0, r9}
	...
 8000184:	080002b1 	stmdaeq	r0, {r0, r4, r5, r7, r9}
	...
 8000190:	08000201 	stmdaeq	r0, {r0, r9}
 8000194:	08000201 	stmdaeq	r0, {r0, r9}

08000198 <isr_end>:
	...

Disassembly of section .text:

08000200 <default_handler>:
 8000200:	b500      	push	{lr}
 8000202:	f000 f9cb 	bl	800059c <forth_init>
 8000206:	f85d eb04 	ldr.w	lr, [sp], #4
 800020a:	f8df c6cc 	ldr.w	ip, [pc, #1740]	; 80008d8 <ULAST>
 800020e:	f002 bab1 	b.w	8002774 <INEXT>

08000212 <dh>:
 8000212:	0800440d 	stmdaeq	r0, {r0, r2, r3, sl, lr}
 8000216:	08003ac5 	stmdaeq	r0, {r0, r2, r6, r7, r9, fp, ip, sp}
 800021a:	65786517 	ldrbvs	r6, [r8, #-1303]!	; 0xfffffae9
 800021e:	6f697470 	svcvs	0x00697470
 8000222:	6572206e 	ldrbvs	r2, [r2, #-110]!	; 0xffffff92
 8000226:	746f6f62 	strbtvc	r6, [pc], #-3938	; 800022e <dh+0x1c>
 800022a:	4643202c 	strbmi	r2, [r3], -ip, lsr #32
 800022e:	203a5253 	eorscs	r5, sl, r3, asr r2
 8000232:	bf00      	nop
 8000234:	080027c5 	stmdaeq	r0, {r0, r2, r6, r7, r8, r9, sl, sp}
 8000238:	08002ad5 	stmdaeq	r0, {r0, r2, r4, r6, r7, r9, fp, sp}
 800023c:	08002a51 	stmdaeq	r0, {r0, r4, r6, r9, fp, sp}
 8000240:	0800293b 	stmdaeq	r0, {r0, r1, r3, r4, r5, r8, fp, sp}
 8000244:	00000010 	andeq	r0, r0, r0, lsl r0
 8000248:	08002fd1 	stmdaeq	r0, {r0, r4, r6, r7, r8, r9, sl, fp, sp}
 800024c:	080029ad 	stmdaeq	r0, {r0, r2, r3, r5, r7, r8, fp, sp}
 8000250:	08003b49 	stmdaeq	r0, {r0, r3, r6, r8, r9, fp, ip, sp}
 8000254:	08003ac5 	stmdaeq	r0, {r0, r2, r6, r7, r9, fp, ip, sp}
 8000258:	42202c08 	eormi	r2, r0, #8, 24	; 0x800
 800025c:	3a524146 	bcc	949077c <OPTKEY1+0x12fdd41>
 8000260:	bf000020 	svclt	0x00000020
 8000264:	08002a0d 	stmdaeq	r0, {r0, r2, r3, r9, fp, sp}
 8000268:	0800293b 	stmdaeq	r0, {r0, r1, r3, r4, r5, r8, fp, sp}
 800026c:	00008000 	andeq	r8, r0, r0
 8000270:	08002b19 	stmdaeq	r0, {r0, r3, r4, r8, r9, fp, sp}
 8000274:	0800297b 	stmdaeq	r0, {r0, r1, r3, r4, r5, r6, r8, fp, sp}
 8000278:	08000294 	stmdaeq	r0, {r2, r4, r7, r9}
 800027c:	080027e9 	stmdaeq	r0, {r0, r3, r5, r6, r7, r8, r9, sl, sp}
 8000280:	0800293b 	stmdaeq	r0, {r0, r1, r3, r4, r5, r8, fp, sp}
 8000284:	0000002c 	andeq	r0, r0, ip, lsr #32
 8000288:	08002845 	stmdaeq	r0, {r0, r2, r6, fp, sp}
 800028c:	080039d5 	stmdaeq	r0, {r0, r2, r4, r6, r7, r8, fp, ip, sp}
 8000290:	08003b49 	stmdaeq	r0, {r0, r3, r6, r8, r9, fp, ip, sp}
 8000294:	08003ac5 	stmdaeq	r0, {r0, r2, r6, r7, r9, fp, ip, sp}
 8000298:	46202c09 	strtmi	r2, [r0], -r9, lsl #24
 800029c:	52435350 	subpl	r5, r3, #80, 6	; 0x40000001
 80002a0:	bf00203a 	svclt	0x0000203a
 80002a4:	08001f8d 	stmdaeq	r0, {r0, r2, r3, r7, r8, r9, sl, fp, ip}
 80002a8:	08003b49 	stmdaeq	r0, {r0, r3, r6, r8, r9, fp, ip, sp}
 80002ac:	08000539 	stmdaeq	r0, {r0, r3, r4, r5, r8, sl}

080002b0 <fpu_exception>:
 80002b0:	f04f 0000 	mov.w	r0, #0
 80002b4:	f2c2 0002 	movt	r0, #8194	; 0x2002
 80002b8:	4685      	mov	sp, r0
 80002ba:	f8df c620 	ldr.w	ip, [pc, #1568]	; 80008dc <ULAST+0x4>
 80002be:	f002 ba59 	b.w	8002774 <INEXT>

080002c2 <fpu_except>:
 80002c2:	0800440d 	stmdaeq	r0, {r0, r2, r3, sl, lr}
 80002c6:	08003a5d 	stmdaeq	r0, {r0, r2, r3, r4, r6, r9, fp, ip, sp}
 80002ca:	0800293b 	stmdaeq	r0, {r0, r1, r3, r4, r5, r8, fp, sp}
 80002ce:	00000010 	andeq	r0, r0, r0, lsl r0
 80002d2:	08002fd1 	stmdaeq	r0, {r0, r4, r6, r7, r8, r9, sl, fp, sp}
 80002d6:	080029ad 	stmdaeq	r0, {r0, r2, r3, r5, r7, r8, fp, sp}
 80002da:	08003ac5 	stmdaeq	r0, {r0, r2, r6, r7, r9, fp, ip, sp}
 80002de:	75706615 	ldrbvc	r6, [r0, #-1557]!	; 0xfffff9eb
 80002e2:	63786520 	cmnvs	r8, #32, 10	; 0x8000000
 80002e6:	69747065 	ldmdbvs	r4!, {r0, r2, r5, r6, ip, sp, lr}^
 80002ea:	46206e6f 	strtmi	r6, [r0], -pc, ror #28
 80002ee:	52435350 	subpl	r5, r3, #80, 6	; 0x40000001
 80002f2:	1f8d203a 	svcne	0x008d203a
 80002f6:	3b490800 	blcc	92422fe <OPTKEY1+0x10af8c3>
 80002fa:	3a5d0800 	bcc	9742302 <OPTKEY1+0x15af8c7>
 80002fe:	05390800 	ldreq	r0, [r9, #-2048]!	; 0xfffff800
 8000302:	 			; <UNDEFINED> instruction: 0xf8df0800

08000304 <nmi_handler>:
 8000304:	f8df c5d8 	ldr.w	ip, [pc, #1496]	; 80008e0 <ULAST+0x8>
 8000308:	f002 ba34 	b.w	8002774 <INEXT>

0800030c <nmi_hl>:
 800030c:	0800440d 	stmdaeq	r0, {r0, r2, r3, sl, lr}
 8000310:	08003a5d 	stmdaeq	r0, {r0, r2, r3, r4, r6, r9, fp, ip, sp}
 8000314:	08003ac5 	stmdaeq	r0, {r0, r2, r6, r7, r9, fp, ip, sp}
 8000318:	746f6e19 	strbtvc	r6, [pc], #-3609	; 8000320 <nmi_hl+0x14>
 800031c:	6e616d20 	cdpvs	13, 6, cr6, cr1, cr0, {1}
 8000320:	64656761 	strbtvs	r6, [r5], #-1889	; 0xfffff89f
 8000324:	696d6e20 	stmdbvs	sp!, {r5, r9, sl, fp, sp, lr}^
 8000328:	63786520 	cmnvs	r8, #32, 10	; 0x8000000
 800032c:	69747065 	ldmdbvs	r4!, {r0, r2, r5, r6, ip, sp, lr}^
 8000330:	bf006e6f 	svclt	0x00006e6f
 8000334:	08003a5d 	stmdaeq	r0, {r0, r2, r3, r4, r6, r9, fp, ip, sp}
 8000338:	08004285 	stmdaeq	r0, {r0, r2, r7, r9, lr}

0800033c <hardfault_handler>:
 800033c:	f04f 0000 	mov.w	r0, #0
 8000340:	f2c2 0002 	movt	r0, #8194	; 0x2002
 8000344:	4685      	mov	sp, r0
 8000346:	f8df c59c 	ldr.w	ip, [pc, #1436]	; 80008e4 <ULAST+0xc>
 800034a:	f002 ba13 	b.w	8002774 <INEXT>

0800034e <hardfault_hl>:
 800034e:	0800440d 	stmdaeq	r0, {r0, r2, r3, sl, lr}
 8000352:	08003a5d 	stmdaeq	r0, {r0, r2, r3, r4, r6, r9, fp, ip, sp}
 8000356:	08003ac5 	stmdaeq	r0, {r0, r2, r6, r7, r9, fp, ip, sp}
 800035a:	72616814 	rsbvc	r6, r1, #20, 16	; 0x140000
 800035e:	61662064 	cmnvs	r6, r4, rrx
 8000362:	20746c75 	rsbscs	r6, r4, r5, ror ip
 8000366:	65637865 	strbvs	r7, [r3, #-2149]!	; 0xfffff79b
 800036a:	6f697470 	svcvs	0x00697470
 800036e:	3a5d006e 	bcc	974052e <OPTKEY1+0x15adaf3>
 8000372:	05390800 	ldreq	r0, [r9, #-2048]!	; 0xfffff800
 8000376:	 			; <UNDEFINED> instruction: 0xf04f0800

08000378 <memfault_handler>:
 8000378:	f04f 0000 	mov.w	r0, #0
 800037c:	f2c2 0002 	movt	r0, #8194	; 0x2002
 8000380:	4685      	mov	sp, r0
 8000382:	f8df c564 	ldr.w	ip, [pc, #1380]	; 80008e8 <ULAST+0x10>
 8000386:	f002 b9f5 	b.w	8002774 <INEXT>

0800038a <memfault_hl>:
 800038a:	0800440d 	stmdaeq	r0, {r0, r2, r3, sl, lr}
 800038e:	08003a5d 	stmdaeq	r0, {r0, r2, r3, r4, r6, r9, fp, ip, sp}
 8000392:	08003ac5 	stmdaeq	r0, {r0, r2, r6, r7, r9, fp, ip, sp}
 8000396:	6d656d21 	stclvs	13, cr6, [r5, #-132]!	; 0xffffff7c
 800039a:	2079726f 	rsbscs	r7, r9, pc, ror #4
 800039e:	616e616d 	cmnvs	lr, sp, ror #2
 80003a2:	20726567 	rsbscs	r6, r2, r7, ror #10
 80003a6:	65637865 	strbvs	r7, [r3, #-2149]!	; 0xfffff79b
 80003aa:	6f697470 	svcvs	0x00697470
 80003ae:	4d202c6e 	stcmi	12, cr2, [r0, #-440]!	; 0xfffffe48
 80003b2:	5253464d 	subspl	r4, r3, #80740352	; 0x4d00000
 80003b6:	293b203a 	ldmdbcs	fp!, {r1, r3, r4, r5, sp}
 80003ba:	00100800 	andseq	r0, r0, r0, lsl #16
 80003be:	2fd10000 	svccs	0x00d10000
 80003c2:	29ad0800 	stmibcs	sp!, {fp}
 80003c6:	27c50800 	strbcs	r0, [r5, r0, lsl #16]
 80003ca:	293b0800 	ldmdbcs	fp!, {fp}
 80003ce:	00ff0800 	rscseq	r0, pc, r0, lsl #16
 80003d2:	2b190000 	blcs	86403da <OPTKEY1+0x4ad99f>
 80003d6:	3b490800 	blcc	92423de <OPTKEY1+0x10af9a3>
 80003da:	3a5d0800 	bcc	97423e2 <OPTKEY1+0x15af9a7>
 80003de:	05390800 	ldreq	r0, [r9, #-2048]!	; 0xfffff800
 80003e2:	 			; <UNDEFINED> instruction: 0xf04f0800

080003e4 <busfault_handler>:
 80003e4:	f04f 0000 	mov.w	r0, #0
 80003e8:	f2c2 0002 	movt	r0, #8194	; 0x2002
 80003ec:	4685      	mov	sp, r0
 80003ee:	f8df c4fc 	ldr.w	ip, [pc, #1276]	; 80008ec <ULAST+0x14>
 80003f2:	f002 b9bf 	b.w	8002774 <INEXT>

080003f6 <busfault_hl>:
 80003f6:	0800440d 	stmdaeq	r0, {r0, r2, r3, sl, lr}
 80003fa:	0800293b 	stmdaeq	r0, {r0, r1, r3, r4, r5, r8, fp, sp}
 80003fe:	00000001 	andeq	r0, r0, r1
 8000402:	08002911 	stmdaeq	r0, {r0, r4, r8, fp, sp}
 8000406:	0800293b 	stmdaeq	r0, {r0, r1, r3, r4, r5, r8, fp, sp}
 800040a:	00000064 	andeq	r0, r0, r4, rrx
 800040e:	08002f89 	stmdaeq	r0, {r0, r3, r7, r8, r9, sl, fp, sp}
 8000412:	080027e9 	stmdaeq	r0, {r0, r3, r5, r6, r7, r8, r9, sl, sp}
 8000416:	080027c5 	stmdaeq	r0, {r0, r2, r6, r7, r8, r9, sl, sp}
 800041a:	08003a5d 	stmdaeq	r0, {r0, r2, r3, r4, r6, r9, fp, ip, sp}
 800041e:	08003ac5 	stmdaeq	r0, {r0, r2, r6, r7, r9, fp, ip, sp}
 8000422:	7375621b 	cmnvc	r5, #-1342177279	; 0xb0000001
 8000426:	75616620 	strbvc	r6, [r1, #-1568]!	; 0xfffff9e0
 800042a:	6520746c 	strvs	r7, [r0, #-1132]!	; 0xfffffb94
 800042e:	70656378 	rsbvc	r6, r5, r8, ror r3
 8000432:	6e6f6974 			; <UNDEFINED> instruction: 0x6e6f6974
 8000436:	4642202c 	strbmi	r2, [r2], -ip, lsr #32
 800043a:	203a5253 	eorscs	r5, sl, r3, asr r2
 800043e:	bf00      	nop
 8000440:	0800293b 	stmdaeq	r0, {r0, r1, r3, r4, r5, r8, fp, sp}
 8000444:	00000010 	andeq	r0, r0, r0, lsl r0
 8000448:	08002fd1 	stmdaeq	r0, {r0, r4, r6, r7, r8, r9, sl, fp, sp}
 800044c:	080029ad 	stmdaeq	r0, {r0, r2, r3, r5, r7, r8, fp, sp}
 8000450:	0800293b 	stmdaeq	r0, {r0, r1, r3, r4, r5, r8, fp, sp}
 8000454:	0000ff00 	andeq	pc, r0, r0, lsl #30
 8000458:	08002b19 	stmdaeq	r0, {r0, r3, r4, r8, r9, fp, sp}
 800045c:	08003b49 	stmdaeq	r0, {r0, r3, r6, r8, r9, fp, ip, sp}
 8000460:	08003ac5 	stmdaeq	r0, {r0, r2, r6, r7, r9, fp, ip, sp}
 8000464:	46422007 	strbmi	r2, [r2], -r7
 8000468:	203a5241 	eorscs	r5, sl, r1, asr #4
 800046c:	08003b49 	stmdaeq	r0, {r0, r3, r6, r8, r9, fp, ip, sp}
 8000470:	08003a5d 	stmdaeq	r0, {r0, r2, r3, r4, r6, r9, fp, ip, sp}
 8000474:	08000539 	stmdaeq	r0, {r0, r3, r4, r5, r8, sl}

08000478 <usagefault_handler>:
 8000478:	f04f 0000 	mov.w	r0, #0
 800047c:	f2c2 0002 	movt	r0, #8194	; 0x2002
 8000480:	4685      	mov	sp, r0
 8000482:	f8df c46c 	ldr.w	ip, [pc, #1132]	; 80008f0 <ULAST+0x18>
 8000486:	f002 b975 	b.w	8002774 <INEXT>

0800048a <usagefault_hl>:
 800048a:	0800440d 	stmdaeq	r0, {r0, r2, r3, sl, lr}
 800048e:	08003a5d 	stmdaeq	r0, {r0, r2, r3, r4, r6, r9, fp, ip, sp}
 8000492:	08003ac5 	stmdaeq	r0, {r0, r2, r6, r7, r9, fp, ip, sp}
 8000496:	61737517 	cmnvs	r3, r7, lsl r5
 800049a:	65206567 	strvs	r6, [r0, #-1383]!	; 0xfffffa99
 800049e:	70656378 	rsbvc	r6, r5, r8, ror r3
 80004a2:	6e6f6974 			; <UNDEFINED> instruction: 0x6e6f6974
 80004a6:	4655202c 	ldrbmi	r2, [r5], -ip, lsr #32
 80004aa:	203a5253 	eorscs	r5, sl, r3, asr r2
 80004ae:	bf00      	nop
 80004b0:	0800293b 	stmdaeq	r0, {r0, r1, r3, r4, r5, r8, fp, sp}
 80004b4:	00000010 	andeq	r0, r0, r0, lsl r0
 80004b8:	08002fd1 	stmdaeq	r0, {r0, r4, r6, r7, r8, r9, sl, fp, sp}
 80004bc:	080029ad 	stmdaeq	r0, {r0, r2, r3, r5, r7, r8, fp, sp}
 80004c0:	080027c5 	stmdaeq	r0, {r0, r2, r6, r7, r8, r9, sl, sp}
 80004c4:	0800293b 	stmdaeq	r0, {r0, r1, r3, r4, r5, r8, fp, sp}
 80004c8:	00000010 	andeq	r0, r0, r0, lsl r0
 80004cc:	08002b71 	stmdaeq	r0, {r0, r4, r5, r6, r8, r9, fp, sp}
 80004d0:	08003b49 	stmdaeq	r0, {r0, r3, r6, r8, r9, fp, ip, sp}
 80004d4:	08003a5d 	stmdaeq	r0, {r0, r2, r3, r4, r6, r9, fp, ip, sp}
 80004d8:	08000539 	stmdaeq	r0, {r0, r3, r4, r5, r8, sl}

080004dc <systick_handler>:
 80004dc:	f04f 0300 	mov.w	r3, #0
 80004e0:	f2c2 0300 	movt	r3, #8192	; 0x2000
 80004e4:	6898      	ldr	r0, [r3, #8]
 80004e6:	f100 0001 	add.w	r0, r0, #1
 80004ea:	6098      	str	r0, [r3, #8]
 80004ec:	68d8      	ldr	r0, [r3, #12]
 80004ee:	b110      	cbz	r0, 80004f6 <systick_exit>
 80004f0:	f1a0 0001 	sub.w	r0, r0, #1
 80004f4:	60d8      	str	r0, [r3, #12]

080004f6 <systick_exit>:
 80004f6:	4770      	bx	lr

080004f8 <user_reboot>:
 80004f8:	b500      	push	{lr}
 80004fa:	f000 f84f 	bl	800059c <forth_init>
 80004fe:	f85d eb04 	ldr.w	lr, [sp], #4
 8000502:	f8df c3f0 	ldr.w	ip, [pc, #1008]	; 80008f4 <ULAST+0x1c>
 8000506:	f002 b935 	b.w	8002774 <INEXT>

0800050a <ur>:
 800050a:	0800440d 	stmdaeq	r0, {r0, r2, r3, sl, lr}
 800050e:	08003a5d 	stmdaeq	r0, {r0, r2, r3, r4, r6, r9, fp, ip, sp}
 8000512:	0800293b 	stmdaeq	r0, {r0, r1, r3, r4, r5, r8, fp, sp}
 8000516:	08000528 	stmdaeq	r0, {r3, r5, r8, sl}
 800051a:	08002f29 	stmdaeq	r0, {r0, r3, r5, r8, r9, sl, fp, sp}
 800051e:	08003a29 	stmdaeq	r0, {r0, r3, r5, r9, fp, ip, sp}
 8000522:	08000539 	stmdaeq	r0, {r0, r3, r4, r5, r8, sl}
 8000526:	bf00      	nop

08000528 <user_reboot_msg>:
 8000528:	6573750c 	ldrbvs	r7, [r3, #-1292]!	; 0xfffffaf4
 800052c:	65722072 	ldrbvs	r2, [r2, #-114]!	; 0xffffff8e
 8000530:	746f6f62 	strbtvc	r6, [pc], #-3938	; 8000538 <reset_mcu>
 8000534:	bf000021 	svclt	0x00000021

08000538 <reset_mcu>:
 8000538:	f44f 5080 	mov.w	r0, #4096	; 0x1000
 800053c:	f2c4 0001 	movt	r0, #16385	; 0x4001
 8000540:	6801      	ldr	r1, [r0, #0]
 8000542:	f011 0f40 	tst.w	r1, #64	; 0x40
 8000546:	d0fb      	beq.n	8000540 <reset_mcu+0x8>
 8000548:	f44f 406d 	mov.w	r0, #60672	; 0xed00
 800054c:	f2ce 0000 	movt	r0, #57344	; 0xe000
 8000550:	68c1      	ldr	r1, [r0, #12]
 8000552:	f041 0104 	orr.w	r1, r1, #4
 8000556:	f2c0 51fa 	movt	r1, #1530	; 0x5fa
 800055a:	60c1      	str	r1, [r0, #12]
 800055c:	e7fe      	b.n	800055c <reset_mcu+0x24>
 800055e:	bf00      	nop

08000560 <reset_handler>:
 8000560:	f04f 0000 	mov.w	r0, #0
 8000564:	f2c2 0002 	movt	r0, #8194	; 0x2002
 8000568:	4685      	mov	sp, r0
 800056a:	f44f 406d 	mov.w	r0, #60672	; 0xed00
 800056e:	f2ce 0000 	movt	r0, #57344	; 0xe000
 8000572:	ea81 0101 	eor.w	r1, r1, r1
 8000576:	f2c0 0107 	movt	r1, #7
 800057a:	6241      	str	r1, [r0, #36]	; 0x24
 800057c:	f000 f88e 	bl	800069c <remap>
 8000580:	f000 f820 	bl	80005c4 <init_devices>
 8000584:	f001 fce6 	bl	8001f54 <fpu_init>
 8000588:	f000 f9d1 	bl	800092e <ser_init>
 800058c:	f000 fafa 	bl	8000b84 <tv_init>
 8000590:	f001 f8ce 	bl	8001730 <kbd_init>
 8000594:	f001 fad6 	bl	8001b44 <flash_spi_init>
 8000598:	f004 be18 	b.w	80051cc <COLD>

0800059c <forth_init>:
 800059c:	f04f 0400 	mov.w	r4, #0
 80005a0:	f2c2 0400 	movt	r4, #8192	; 0x2000
 80005a4:	f64f 6780 	movw	r7, #65152	; 0xfe80
 80005a8:	f2c2 0701 	movt	r7, #8193	; 0x2001
 80005ac:	f44f 487f 	mov.w	r8, #65280	; 0xff00
 80005b0:	f2c2 0801 	movt	r8, #8193	; 0x2001
 80005b4:	f8df a340 	ldr.w	sl, [pc, #832]	; 80008f8 <ULAST+0x20>
 80005b8:	f04a 0a01 	orr.w	sl, sl, #1
 80005bc:	ea86 0606 	eor.w	r6, r6, r6
 80005c0:	4770      	bx	lr
 80005c2:	bf00      	nop

080005c4 <init_devices>:
 80005c4:	f44f 5070 	mov.w	r0, #15360	; 0x3c00
 80005c8:	f2c4 0002 	movt	r0, #16386	; 0x4002
 80005cc:	f04f 0103 	mov.w	r1, #3
 80005d0:	6001      	str	r1, [r0, #0]
 80005d2:	f44f 5060 	mov.w	r0, #14336	; 0x3800
 80005d6:	f2c4 0002 	movt	r0, #16386	; 0x4002
 80005da:	6801      	ldr	r1, [r0, #0]
 80005dc:	f441 3180 	orr.w	r1, r1, #65536	; 0x10000
 80005e0:	6001      	str	r1, [r0, #0]

080005e2 <wait_hserdy>:
 80005e2:	6801      	ldr	r1, [r0, #0]
 80005e4:	f411 3f00 	tst.w	r1, #131072	; 0x20000
 80005e8:	d0fb      	beq.n	80005e2 <wait_hserdy>
 80005ea:	f44f 5060 	mov.w	r0, #14336	; 0x3800
 80005ee:	f2c4 0002 	movt	r0, #16386	; 0x4002
 80005f2:	f246 0132 	movw	r1, #24626	; 0x6032
 80005f6:	f2c0 4140 	movt	r1, #1088	; 0x440
 80005fa:	6041      	str	r1, [r0, #4]
 80005fc:	6801      	ldr	r1, [r0, #0]
 80005fe:	f041 7180 	orr.w	r1, r1, #16777216	; 0x1000000
 8000602:	6001      	str	r1, [r0, #0]

08000604 <wait_pllrdy>:
 8000604:	6801      	ldr	r1, [r0, #0]
 8000606:	f011 7f00 	tst.w	r1, #33554432	; 0x2000000
 800060a:	d1fb      	bne.n	8000604 <wait_pllrdy>
 800060c:	f44f 5180 	mov.w	r1, #4096	; 0x1000
 8000610:	f2c0 0119 	movt	r1, #25
 8000614:	6081      	str	r1, [r0, #8]
 8000616:	6881      	ldr	r1, [r0, #8]
 8000618:	f041 0102 	orr.w	r1, r1, #2
 800061c:	6081      	str	r1, [r0, #8]

0800061e <wait_sws>:
 800061e:	6881      	ldr	r1, [r0, #8]
 8000620:	f011 0f08 	tst.w	r1, #8
 8000624:	d0fb      	beq.n	800061e <wait_sws>
 8000626:	f04f 019f 	mov.w	r1, #159	; 0x9f
 800062a:	6301      	str	r1, [r0, #48]	; 0x30
 800062c:	f244 0110 	movw	r1, #16400	; 0x4010
 8000630:	6441      	str	r1, [r0, #68]	; 0x44
 8000632:	f44f 6000 	mov.w	r0, #2048	; 0x800
 8000636:	f2c4 0002 	movt	r0, #16386	; 0x4002
 800063a:	f04f 010d 	mov.w	r1, #13
 800063e:	f04f 0211 	mov.w	r2, #17
 8000642:	b500      	push	{lr}
 8000644:	f000 f88f 	bl	8000766 <gpio_config>
 8000648:	f85d eb04 	ldr.w	lr, [sp], #4
 800064c:	f04f 0201 	mov.w	r2, #1
 8000650:	b500      	push	{lr}
 8000652:	f000 f8de 	bl	8000812 <gpio_out>
 8000656:	f85d eb04 	ldr.w	lr, [sp], #4
 800065a:	f44f 5160 	mov.w	r1, #14336	; 0x3800
 800065e:	f2c4 0101 	movt	r1, #16385	; 0x4001
 8000662:	f04f 0001 	mov.w	r0, #1
 8000666:	6208      	str	r0, [r1, #32]
 8000668:	6a08      	ldr	r0, [r1, #32]
 800066a:	f410 7f80 	tst.w	r0, #256	; 0x100
 800066e:	d0fb      	beq.n	8000668 <wait_sws+0x4a>
 8000670:	f04f 30ff 	mov.w	r0, #4294967295	; 0xffffffff
 8000674:	f04f 010f 	mov.w	r1, #15
 8000678:	b500      	push	{lr}
 800067a:	f000 f82f 	bl	80006dc <nvic_set_priority>
 800067e:	f85d eb04 	ldr.w	lr, [sp], #4
 8000682:	f24e 0010 	movw	r0, #57360	; 0xe010
 8000686:	f2ce 0000 	movt	r0, #57344	; 0xe000
 800068a:	f247 61ff 	movw	r1, #30463	; 0x76ff
 800068e:	f2c0 0101 	movt	r1, #1
 8000692:	6041      	str	r1, [r0, #4]
 8000694:	f04f 0107 	mov.w	r1, #7
 8000698:	6001      	str	r1, [r0, #0]
 800069a:	4770      	bx	lr

0800069c <remap>:
 800069c:	f04f 0000 	mov.w	r0, #0
 80006a0:	f2c2 0000 	movt	r0, #8192	; 0x2000
 80006a4:	4995      	ldr	r1, [pc, #596]	; (80008fc <ULAST+0x24>)
 80006a6:	f04f 02b0 	mov.w	r2, #176	; 0xb0
 80006aa:	f102 0203 	add.w	r2, r2, #3
 80006ae:	f022 0203 	bic.w	r2, r2, #3
 80006b2:	f851 3b04 	ldr.w	r3, [r1], #4
 80006b6:	f840 3b04 	str.w	r3, [r0], #4
 80006ba:	3a04      	subs	r2, #4
 80006bc:	d1f9      	bne.n	80006b2 <remap+0x16>
 80006be:	f04f 0200 	mov.w	r2, #0
 80006c2:	f2c2 0202 	movt	r2, #8194	; 0x2002
 80006c6:	ea83 0303 	eor.w	r3, r3, r3
 80006ca:	f840 3b04 	str.w	r3, [r0], #4
 80006ce:	4290      	cmp	r0, r2
 80006d0:	dbfb      	blt.n	80006ca <remap+0x2e>
 80006d2:	f04f 0400 	mov.w	r4, #0
 80006d6:	f2c2 0400 	movt	r4, #8192	; 0x2000
 80006da:	4770      	bx	lr

080006dc <nvic_set_priority>:
 80006dc:	b408      	push	{r3}
 80006de:	2800      	cmp	r0, #0
 80006e0:	d408      	bmi.n	80006f4 <negative_irq>
 80006e2:	f44f 4364 	mov.w	r3, #58368	; 0xe400
 80006e6:	f2ce 0300 	movt	r3, #57344	; 0xe000
 80006ea:	ea4f 1101 	mov.w	r1, r1, lsl #4
 80006ee:	5419      	strb	r1, [r3, r0]
 80006f0:	bc08      	pop	{r3}
 80006f2:	4770      	bx	lr

080006f4 <negative_irq>:
 80006f4:	f64e 5318 	movw	r3, #60696	; 0xed18
 80006f8:	f2ce 0300 	movt	r3, #57344	; 0xe000
 80006fc:	f000 000f 	and.w	r0, r0, #15
 8000700:	f1a0 0004 	sub.w	r0, r0, #4
 8000704:	ea4f 1101 	mov.w	r1, r1, lsl #4
 8000708:	5419      	strb	r1, [r3, r0]
 800070a:	bc08      	pop	{r3}
 800070c:	4770      	bx	lr

0800070e <nvic_enable_irq>:
 800070e:	b40e      	push	{r1, r2, r3}
 8000710:	f44f 4361 	mov.w	r3, #57600	; 0xe100
 8000714:	f2ce 0300 	movt	r3, #57344	; 0xe000
 8000718:	4601      	mov	r1, r0
 800071a:	ea4f 1151 	mov.w	r1, r1, lsr #5
 800071e:	ea4f 0181 	mov.w	r1, r1, lsl #2
 8000722:	f000 001f 	and.w	r0, r0, #31
 8000726:	f04f 0201 	mov.w	r2, #1
 800072a:	fa02 f200 	lsl.w	r2, r2, r0
 800072e:	b672      	cpsid	i
 8000730:	505a      	str	r2, [r3, r1]
 8000732:	b662      	cpsie	i
 8000734:	bc0e      	pop	{r1, r2, r3}
 8000736:	4770      	bx	lr

08000738 <nvic_disable_irq>:
 8000738:	b40e      	push	{r1, r2, r3}
 800073a:	f24e 1380 	movw	r3, #57728	; 0xe180
 800073e:	f2ce 0300 	movt	r3, #57344	; 0xe000
 8000742:	4601      	mov	r1, r0
 8000744:	ea4f 1151 	mov.w	r1, r1, lsr #5
 8000748:	ea4f 0181 	mov.w	r1, r1, lsl #2
 800074c:	f000 001f 	and.w	r0, r0, #31
 8000750:	f04f 0201 	mov.w	r2, #1
 8000754:	fa02 f200 	lsl.w	r2, r2, r0
 8000758:	505a      	str	r2, [r3, r1]
 800075a:	f3bf 8f4f 	dsb	sy
 800075e:	f3bf 8f6f 	isb	sy
 8000762:	bc0e      	pop	{r1, r2, r3}
 8000764:	4770      	bx	lr

08000766 <gpio_config>:
 8000766:	e92d 0828 	stmdb	sp!, {r3, r5, fp}
 800076a:	f04f 0501 	mov.w	r5, #1
 800076e:	fa05 f501 	lsl.w	r5, r5, r1
 8000772:	ea6f 0505 	mvn.w	r5, r5
 8000776:	6843      	ldr	r3, [r0, #4]
 8000778:	ea03 0305 	and.w	r3, r3, r5
 800077c:	6043      	str	r3, [r0, #4]
 800077e:	f04f 0503 	mov.w	r5, #3
 8000782:	f04f 0b02 	mov.w	fp, #2
 8000786:	fb01 fb0b 	mul.w	fp, r1, fp
 800078a:	fa05 f50b 	lsl.w	r5, r5, fp
 800078e:	ea6f 0505 	mvn.w	r5, r5
 8000792:	6803      	ldr	r3, [r0, #0]
 8000794:	ea03 0305 	and.w	r3, r3, r5
 8000798:	6003      	str	r3, [r0, #0]
 800079a:	68c3      	ldr	r3, [r0, #12]
 800079c:	ea03 0305 	and.w	r3, r3, r5
 80007a0:	60c3      	str	r3, [r0, #12]
 80007a2:	f002 0503 	and.w	r5, r2, #3
 80007a6:	fa05 f50b 	lsl.w	r5, r5, fp
 80007aa:	6803      	ldr	r3, [r0, #0]
 80007ac:	ea43 0305 	orr.w	r3, r3, r5
 80007b0:	6003      	str	r3, [r0, #0]
 80007b2:	2a03      	cmp	r2, #3
 80007b4:	d013      	beq.n	80007de <input_pull+0x10>
 80007b6:	f012 0503 	ands.w	r5, r2, #3
 80007ba:	d008      	beq.n	80007ce <input_pull>

080007bc <output_type>:
 80007bc:	ea4f 1212 	mov.w	r2, r2, lsr #4
 80007c0:	fa02 f201 	lsl.w	r2, r2, r1
 80007c4:	6843      	ldr	r3, [r0, #4]
 80007c6:	ea43 0302 	orr.w	r3, r3, r2
 80007ca:	6043      	str	r3, [r0, #4]
 80007cc:	e007      	b.n	80007de <input_pull+0x10>

080007ce <input_pull>:
 80007ce:	68c3      	ldr	r3, [r0, #12]
 80007d0:	ea4f 1212 	mov.w	r2, r2, lsr #4
 80007d4:	fa02 f20b 	lsl.w	r2, r2, fp
 80007d8:	ea43 0302 	orr.w	r3, r3, r2
 80007dc:	60c3      	str	r3, [r0, #12]
 80007de:	e8bd 0828 	ldmia.w	sp!, {r3, r5, fp}
 80007e2:	4770      	bx	lr

080007e4 <gpio_speed>:
 80007e4:	e92d 0828 	stmdb	sp!, {r3, r5, fp}
 80007e8:	6883      	ldr	r3, [r0, #8]
 80007ea:	f04f 0503 	mov.w	r5, #3
 80007ee:	f04f 0b02 	mov.w	fp, #2
 80007f2:	fb01 fb0b 	mul.w	fp, r1, fp
 80007f6:	fa05 f50b 	lsl.w	r5, r5, fp
 80007fa:	ea6f 0505 	mvn.w	r5, r5
 80007fe:	ea03 0305 	and.w	r3, r3, r5
 8000802:	fa02 f20b 	lsl.w	r2, r2, fp
 8000806:	ea43 0302 	orr.w	r3, r3, r2
 800080a:	6083      	str	r3, [r0, #8]
 800080c:	e8bd 0828 	ldmia.w	sp!, {r3, r5, fp}
 8000810:	4770      	bx	lr

08000812 <gpio_out>:
 8000812:	b408      	push	{r3}
 8000814:	f04f 0301 	mov.w	r3, #1
 8000818:	fa03 f301 	lsl.w	r3, r3, r1
 800081c:	b90a      	cbnz	r2, 8000822 <gpio_out+0x10>
 800081e:	ea4f 4303 	mov.w	r3, r3, lsl #16
 8000822:	6183      	str	r3, [r0, #24]
 8000824:	bc08      	pop	{r3}
 8000826:	4770      	bx	lr

08000828 <UZERO>:
 8000828:	00000000 	andeq	r0, r0, r0
 800082c:	aa55aa55 	bge	956b188 <OPTKEY1+0x13d874d>
	...
 8000838:	080050dc 	stmdaeq	r0, {r2, r3, r4, r6, r7, ip, lr}
 800083c:	0800182c 	stmdaeq	r0, {r2, r3, r5, fp, ip}
 8000840:	080010f4 	stmdaeq	r0, {r2, r4, r5, r6, r7, ip}
 8000844:	0000000a 	andeq	r0, r0, sl
	...
 8000858:	2001fe80 	andcs	pc, r1, r0, lsl #29
 800085c:	080042e4 	stmdaeq	r0, {r2, r5, r6, r7, r9, lr}
 8000860:	00000000 	andeq	r0, r0, r0
 8000864:	080051c4 	stmdaeq	r0, {r2, r6, r7, r8, ip, lr}
 8000868:	0800522c 	stmdaeq	r0, {r2, r3, r5, r9, ip, lr}
 800086c:	20004a04 	andcs	r4, r0, r4, lsl #20
 8000870:	080051c4 	stmdaeq	r0, {r2, r6, r7, r8, ip, lr}
	...
 8000898:	20018080 	andcs	r8, r1, r0, lsl #1
	...
 80008c4:	00000007 	andeq	r0, r0, r7
	...

080008d8 <ULAST>:
 80008d8:	08000212 	stmdaeq	r0, {r1, r4, r9}
 80008dc:	080002c2 	stmdaeq	r0, {r1, r6, r7, r9}
 80008e0:	0800030c 	stmdaeq	r0, {r2, r3, r8, r9}
 80008e4:	0800034e 	stmdaeq	r0, {r1, r2, r3, r6, r8, r9}
 80008e8:	0800038a 	stmdaeq	r0, {r1, r3, r7, r8, r9}
 80008ec:	080003f6 	stmdaeq	r0, {r1, r2, r4, r5, r6, r7, r8, r9}
 80008f0:	0800048a 	stmdaeq	r0, {r1, r3, r7, sl}
 80008f4:	0800050a 	stmdaeq	r0, {r1, r3, r8, sl}
 80008f8:	0800276c 	stmdaeq	r0, {r2, r3, r5, r6, r8, r9, sl, sp}
 80008fc:	08000828 	stmdaeq	r0, {r3, r5, fp}

08000900 <uart_rx_handler>:
 8000900:	f44f 5380 	mov.w	r3, #4096	; 0x1000
 8000904:	f2c4 0301 	movt	r3, #16385	; 0x4001
 8000908:	6818      	ldr	r0, [r3, #0]
 800090a:	6859      	ldr	r1, [r3, #4]
 800090c:	f010 0f20 	tst.w	r0, #32
 8000910:	d00c      	beq.n	800092c <uart_rx_handler+0x2c>
 8000912:	f1b1 0f03 	cmp.w	r1, #3
 8000916:	f43f adef 	beq.w	80004f8 <user_reboot>
 800091a:	f104 004c 	add.w	r0, r4, #76	; 0x4c
 800091e:	6e22      	ldr	r2, [r4, #96]	; 0x60
 8000920:	5481      	strb	r1, [r0, r2]
 8000922:	f102 0201 	add.w	r2, r2, #1
 8000926:	f002 020f 	and.w	r2, r2, #15
 800092a:	6622      	str	r2, [r4, #96]	; 0x60
 800092c:	4770      	bx	lr

0800092e <ser_init>:
 800092e:	f04f 0000 	mov.w	r0, #0
 8000932:	f2c4 0002 	movt	r0, #16386	; 0x4002
 8000936:	6801      	ldr	r1, [r0, #0]
 8000938:	f46f 1270 	mvn.w	r2, #3932160	; 0x3c0000
 800093c:	ea01 0102 	and.w	r1, r1, r2
 8000940:	f44f 1220 	mov.w	r2, #2621440	; 0x280000
 8000944:	ea41 0102 	orr.w	r1, r1, r2
 8000948:	6001      	str	r1, [r0, #0]
 800094a:	f44f 61ee 	mov.w	r1, #1904	; 0x770
 800094e:	6241      	str	r1, [r0, #36]	; 0x24
 8000950:	f44f 5080 	mov.w	r0, #4096	; 0x1000
 8000954:	f2c4 0001 	movt	r0, #16385	; 0x4001
 8000958:	f240 3141 	movw	r1, #833	; 0x341
 800095c:	6081      	str	r1, [r0, #8]
 800095e:	f242 012c 	movw	r1, #8236	; 0x202c
 8000962:	60c1      	str	r1, [r0, #12]
 8000964:	f04f 0025 	mov.w	r0, #37	; 0x25
 8000968:	f04f 0107 	mov.w	r1, #7
 800096c:	b500      	push	{lr}
 800096e:	f7ff feb5 	bl	80006dc <nvic_set_priority>
 8000972:	f85d eb04 	ldr.w	lr, [sp], #4
 8000976:	f04f 0025 	mov.w	r0, #37	; 0x25
 800097a:	b500      	push	{lr}
 800097c:	f7ff fec7 	bl	800070e <nvic_enable_irq>
 8000980:	f85d eb04 	ldr.w	lr, [sp], #4
 8000984:	4770      	bx	lr
 8000986:	00000000 	andeq	r0, r0, r0

0800098a <_SER_QKEY>:
 800098a:	52455308 	subpl	r5, r5, #8, 6	; 0x20000000
 800098e:	59454b2d 	stmdbpl	r5, {r0, r2, r3, r5, r8, r9, fp, lr}^
 8000992:	 			; <UNDEFINED> instruction: 0xf847003f

08000994 <SER_QKEY>:
 8000994:	f847 6d04 	str.w	r6, [r7, #-4]!
 8000998:	6e20      	ldr	r0, [r4, #96]	; 0x60
 800099a:	6de1      	ldr	r1, [r4, #92]	; 0x5c
 800099c:	ea90 0601 	eors.w	r6, r0, r1
 80009a0:	d00c      	beq.n	80009bc <SER_QKEY+0x28>
 80009a2:	f104 004c 	add.w	r0, r4, #76	; 0x4c
 80009a6:	4408      	add	r0, r1
 80009a8:	7806      	ldrb	r6, [r0, #0]
 80009aa:	f101 0101 	add.w	r1, r1, #1
 80009ae:	f001 010f 	and.w	r1, r1, #15
 80009b2:	65e1      	str	r1, [r4, #92]	; 0x5c
 80009b4:	f847 6d04 	str.w	r6, [r7, #-4]!
 80009b8:	f04f 36ff 	mov.w	r6, #4294967295	; 0xffffffff
 80009bc:	f001 beda 	b.w	8002774 <INEXT>
 80009c0:	0800098a 	stmdaeq	r0, {r1, r3, r7, r8, fp}

080009c4 <_SER_EMIT>:
 80009c4:	52455308 	subpl	r5, r5, #8, 6	; 0x20000000
 80009c8:	494d452d 	stmdbmi	sp, {r0, r2, r3, r5, r8, sl, lr}^
 80009cc:	bf000054 	svclt	0x00000054

080009d0 <SER_EMIT>:
 80009d0:	f44f 5580 	mov.w	r5, #4096	; 0x1000
 80009d4:	f2c4 0501 	movt	r5, #16385	; 0x4001
 80009d8:	6828      	ldr	r0, [r5, #0]
 80009da:	f010 0f80 	tst.w	r0, #128	; 0x80
 80009de:	d0fb      	beq.n	80009d8 <SER_EMIT+0x8>
 80009e0:	712e      	strb	r6, [r5, #4]
 80009e2:	f857 6b04 	ldr.w	r6, [r7], #4
 80009e6:	f001 bec5 	b.w	8002774 <INEXT>
 80009ea:	080009c4 	stmdaeq	r0, {r2, r6, r7, r8, fp}

080009ee <_LOCAL>:
 80009ee:	434f4c05 	movtmi	r4, #64517	; 0xfc05
 80009f2:	 			; <UNDEFINED> instruction: 0xf8474c41

080009f4 <LOCAL>:
 80009f4:	f847 6d04 	str.w	r6, [r7, #-4]!
 80009f8:	f04f 0600 	mov.w	r6, #0
 80009fc:	f001 beba 	b.w	8002774 <INEXT>
 8000a00:	080009ee 	stmdaeq	r0, {r1, r2, r3, r5, r6, r7, r8, fp}

08000a04 <_SERIAL>:
 8000a04:	52455306 	subpl	r5, r5, #402653184	; 0x18000000
 8000a08:	004c4149 	subeq	r4, ip, r9, asr #2

08000a0c <SERIAL>:
 8000a0c:	f847 6d04 	str.w	r6, [r7, #-4]!
 8000a10:	f04f 0601 	mov.w	r6, #1
 8000a14:	f001 beae 	b.w	8002774 <INEXT>
 8000a18:	08000a04 	stmdaeq	r0, {r2, r9, fp}

08000a1c <_CONSOLE>:
 8000a1c:	4e4f4307 	cdpmi	3, 4, cr4, cr15, cr7, {0}
 8000a20:	454c4f53 	strbmi	r4, [ip, #-3923]	; 0xfffff0ad

08000a24 <CONSOLE>:
 8000a24:	4630      	mov	r0, r6
 8000a26:	f857 6b04 	ldr.w	r6, [r7], #4
 8000a2a:	b150      	cbz	r0, 8000a42 <CONSOLE+0x1e>
 8000a2c:	4850      	ldr	r0, [pc, #320]	; (8000b70 <SER_CLS+0x28>)
 8000a2e:	6160      	str	r0, [r4, #20]
 8000a30:	4850      	ldr	r0, [pc, #320]	; (8000b74 <SER_CLS+0x2c>)
 8000a32:	61a0      	str	r0, [r4, #24]
 8000a34:	4d50      	ldr	r5, [pc, #320]	; (8000b78 <SER_CLS+0x30>)
 8000a36:	f045 0501 	orr.w	r5, r5, #1
 8000a3a:	f004 bbb5 	b.w	80051a8 <READY>
 8000a3e:	f001 be99 	b.w	8002774 <INEXT>
 8000a42:	484e      	ldr	r0, [pc, #312]	; (8000b7c <SER_CLS+0x34>)
 8000a44:	6160      	str	r0, [r4, #20]
 8000a46:	484e      	ldr	r0, [pc, #312]	; (8000b80 <SER_CLS+0x38>)
 8000a48:	61a0      	str	r0, [r4, #24]
 8000a4a:	4d4b      	ldr	r5, [pc, #300]	; (8000b78 <SER_CLS+0x30>)
 8000a4c:	f045 0501 	orr.w	r5, r5, #1
 8000a50:	f004 bbaa 	b.w	80051a8 <READY>
 8000a54:	f001 be8e 	b.w	8002774 <INEXT>
 8000a58:	08000a1c 	stmdaeq	r0, {r2, r3, r4, r9, fp}

08000a5c <_ANSI_PARAM>:
 8000a5c:	534e410a 	movtpl	r4, #57610	; 0xe10a
 8000a60:	41502d49 	cmpmi	r0, r9, asr #26
 8000a64:	004d4152 	subeq	r4, sp, r2, asr r1

08000a68 <ANSI_PARAM>:
 8000a68:	4750      	bx	sl
 8000a6a:	bf00      	nop
 8000a6c:	0800293b 	stmdaeq	r0, {r0, r1, r3, r4, r5, r8, fp, sp}
 8000a70:	ffffffff 			; <UNDEFINED> instruction: 0xffffffff
 8000a74:	08002bf5 	stmdaeq	r0, {r0, r2, r4, r5, r6, r7, r8, r9, fp, sp}
 8000a78:	08002a51 	stmdaeq	r0, {r0, r4, r6, r9, fp, sp}
 8000a7c:	0800293b 	stmdaeq	r0, {r0, r1, r3, r4, r5, r8, fp, sp}
 8000a80:	0000000a 	andeq	r0, r0, sl
 8000a84:	08003301 	stmdaeq	r0, {r0, r8, r9, ip, sp}
 8000a88:	08002ca9 	stmdaeq	r0, {r0, r3, r5, r7, sl, fp, sp}
 8000a8c:	0800297b 	stmdaeq	r0, {r0, r1, r3, r4, r5, r6, r8, fp, sp}
 8000a90:	08000aa0 	stmdaeq	r0, {r5, r7, r9, fp}
 8000a94:	08002a0d 	stmdaeq	r0, {r0, r2, r3, r9, fp, sp}
 8000a98:	0800298f 	stmdaeq	r0, {r0, r1, r2, r3, r7, r8, fp, sp}
 8000a9c:	08000a74 	stmdaeq	r0, {r2, r4, r5, r6, r9, fp}
 8000aa0:	0800293b 	stmdaeq	r0, {r0, r1, r3, r4, r5, r8, fp, sp}
 8000aa4:	00000030 	andeq	r0, r0, r0, lsr r0
 8000aa8:	08002b99 	stmdaeq	r0, {r0, r3, r4, r7, r8, r9, fp, sp}
 8000aac:	08002845 	stmdaeq	r0, {r0, r2, r6, fp, sp}
 8000ab0:	08002a0d 	stmdaeq	r0, {r0, r2, r3, r9, fp, sp}
 8000ab4:	08002ca9 	stmdaeq	r0, {r0, r3, r5, r7, sl, fp, sp}
 8000ab8:	0800297b 	stmdaeq	r0, {r0, r1, r3, r4, r5, r6, r8, fp, sp}
 8000abc:	08000ad0 	stmdaeq	r0, {r4, r6, r7, r9, fp}
 8000ac0:	08002c05 	stmdaeq	r0, {r0, r2, sl, fp, sp}
 8000ac4:	08002a51 	stmdaeq	r0, {r0, r4, r6, r9, fp, sp}
 8000ac8:	0800298f 	stmdaeq	r0, {r0, r1, r2, r3, r7, r8, fp, sp}
 8000acc:	08000aa0 	stmdaeq	r0, {r5, r7, r9, fp}
 8000ad0:	0800277b 	stmdaeq	r0, {r0, r1, r3, r4, r5, r6, r8, r9, sl, sp}
 8000ad4:	08000a5c 	stmdaeq	r0, {r2, r3, r4, r6, r9, fp}

08000ad8 <_ANSI_ESC>:
 8000ad8:	43534504 	cmpmi	r3, #4, 10	; 0x1000000
 8000adc:	bf00005b 	svclt	0x0000005b

08000ae0 <ANSI_ESC>:
 8000ae0:	4750      	bx	sl
 8000ae2:	bf00      	nop
 8000ae4:	0800293b 	stmdaeq	r0, {r0, r1, r3, r4, r5, r8, fp, sp}
 8000ae8:	0000001b 	andeq	r0, r0, fp, lsl r0
 8000aec:	08002845 	stmdaeq	r0, {r0, r2, r6, fp, sp}
 8000af0:	0800293b 	stmdaeq	r0, {r0, r1, r3, r4, r5, r8, fp, sp}
 8000af4:	0000005b 	andeq	r0, r0, fp, asr r0
 8000af8:	08002845 	stmdaeq	r0, {r0, r2, r6, fp, sp}
 8000afc:	0800277b 	stmdaeq	r0, {r0, r1, r3, r4, r5, r6, r8, r9, sl, sp}
 8000b00:	08000ad8 	stmdaeq	r0, {r3, r4, r6, r7, r9, fp}

08000b04 <_SER_AT>:
 8000b04:	52455306 	subpl	r5, r5, #402653184	; 0x18000000
 8000b08:	0054412d 	subseq	r4, r4, sp, lsr #2

08000b0c <SER_AT>:
 8000b0c:	4750      	bx	sl
 8000b0e:	bf00      	nop
 8000b10:	08000ae1 	stmdaeq	r0, {r0, r5, r6, r7, r9, fp}
 8000b14:	08002ae5 	stmdaeq	r0, {r0, r2, r5, r6, r7, r9, fp, sp}
 8000b18:	08000a69 	stmdaeq	r0, {r0, r3, r5, r6, r9, fp}
 8000b1c:	0800293b 	stmdaeq	r0, {r0, r1, r3, r4, r5, r8, fp, sp}
 8000b20:	0000003b 	andeq	r0, r0, fp, lsr r0
 8000b24:	08002845 	stmdaeq	r0, {r0, r2, r6, fp, sp}
 8000b28:	08000a69 	stmdaeq	r0, {r0, r3, r5, r6, r9, fp}
 8000b2c:	0800293b 	stmdaeq	r0, {r0, r1, r3, r4, r5, r8, fp, sp}
 8000b30:	00000048 	andeq	r0, r0, r8, asr #32
 8000b34:	08002845 	stmdaeq	r0, {r0, r2, r6, fp, sp}
 8000b38:	0800277b 	stmdaeq	r0, {r0, r1, r3, r4, r5, r6, r8, r9, sl, sp}
 8000b3c:	08000b04 	stmdaeq	r0, {r2, r8, r9, fp}

08000b40 <_SER_CLS>:
 8000b40:	52455307 	subpl	r5, r5, #469762048	; 0x1c000000
 8000b44:	534c432d 	movtpl	r4, #49965	; 0xc32d

08000b48 <SER_CLS>:
 8000b48:	4750      	bx	sl
 8000b4a:	bf00      	nop
 8000b4c:	0800293b 	stmdaeq	r0, {r0, r1, r3, r4, r5, r8, fp, sp}
 8000b50:	00000001 	andeq	r0, r0, r1
 8000b54:	08002ad5 	stmdaeq	r0, {r0, r2, r4, r6, r7, r9, fp, sp}
 8000b58:	08000b0d 	stmdaeq	r0, {r0, r2, r3, r8, r9, fp}
 8000b5c:	08000ae1 	stmdaeq	r0, {r0, r5, r6, r7, r9, fp}
 8000b60:	0800293b 	stmdaeq	r0, {r0, r1, r3, r4, r5, r8, fp, sp}
 8000b64:	0000004a 	andeq	r0, r0, sl, asr #32
 8000b68:	08002845 	stmdaeq	r0, {r0, r2, r6, fp, sp}
 8000b6c:	0800277b 	stmdaeq	r0, {r0, r1, r3, r4, r5, r6, r8, r9, sl, sp}
 8000b70:	08000994 	stmdaeq	r0, {r2, r4, r7, r8, fp}
 8000b74:	080009d0 	stmdaeq	r0, {r4, r6, r7, r8, fp}
 8000b78:	080051a8 	stmdaeq	r0, {r3, r5, r7, r8, ip, lr}
 8000b7c:	0800182c 	stmdaeq	r0, {r2, r3, r5, fp, ip}
 8000b80:	080010f4 	stmdaeq	r0, {r2, r4, r5, r6, r7, ip}

08000b84 <tv_init>:
 8000b84:	f44f 6080 	mov.w	r0, #1024	; 0x400
 8000b88:	f2c4 0002 	movt	r0, #16386	; 0x4002
 8000b8c:	6801      	ldr	r1, [r0, #0]
 8000b8e:	f04f 0200 	mov.w	r2, #0
 8000b92:	f2c5 5200 	movt	r2, #21760	; 0x5500
 8000b96:	ea41 0102 	orr.w	r1, r1, r2
 8000b9a:	6001      	str	r1, [r0, #0]
 8000b9c:	ea81 0101 	eor.w	r1, r1, r1
 8000ba0:	6141      	str	r1, [r0, #20]
 8000ba2:	f04f 0101 	mov.w	r1, #1
 8000ba6:	f04f 0202 	mov.w	r2, #2
 8000baa:	b500      	push	{lr}
 8000bac:	f7ff fddb 	bl	8000766 <gpio_config>
 8000bb0:	f85d eb04 	ldr.w	lr, [sp], #4
 8000bb4:	f04f 0101 	mov.w	r1, #1
 8000bb8:	f04f 0202 	mov.w	r2, #2
 8000bbc:	b500      	push	{lr}
 8000bbe:	f7ff fe11 	bl	80007e4 <gpio_speed>
 8000bc2:	f85d eb04 	ldr.w	lr, [sp], #4
 8000bc6:	6a01      	ldr	r1, [r0, #32]
 8000bc8:	f041 0120 	orr.w	r1, r1, #32
 8000bcc:	6201      	str	r1, [r0, #32]
 8000bce:	f44f 5260 	mov.w	r2, #14336	; 0x3800
 8000bd2:	f2c4 0202 	movt	r2, #16386	; 0x4002
 8000bd6:	f04f 0002 	mov.w	r0, #2
 8000bda:	6c11      	ldr	r1, [r2, #64]	; 0x40
 8000bdc:	ea41 0100 	orr.w	r1, r1, r0
 8000be0:	6411      	str	r1, [r2, #64]	; 0x40
 8000be2:	f44f 6280 	mov.w	r2, #1024	; 0x400
 8000be6:	f2c4 0200 	movt	r2, #16384	; 0x4000
 8000bea:	f241 70d4 	movw	r0, #6100	; 0x17d4
 8000bee:	62d0      	str	r0, [r2, #44]	; 0x2c
 8000bf0:	f240 503f 	movw	r0, #1343	; 0x53f
 8000bf4:	63d0      	str	r0, [r2, #60]	; 0x3c
 8000bf6:	f44f 70e1 	mov.w	r0, #450	; 0x1c2
 8000bfa:	6410      	str	r0, [r2, #64]	; 0x40
 8000bfc:	f247 0070 	movw	r0, #28784	; 0x7070
 8000c00:	61d0      	str	r0, [r2, #28]
 8000c02:	f44f 5088 	mov.w	r0, #4352	; 0x1100
 8000c06:	6210      	str	r0, [r2, #32]
 8000c08:	f04f 0001 	mov.w	r0, #1
 8000c0c:	60d0      	str	r0, [r2, #12]
 8000c0e:	6010      	str	r0, [r2, #0]
 8000c10:	f04f 001d 	mov.w	r0, #29
 8000c14:	f04f 0102 	mov.w	r1, #2
 8000c18:	b500      	push	{lr}
 8000c1a:	f7ff fd5f 	bl	80006dc <nvic_set_priority>
 8000c1e:	f85d eb04 	ldr.w	lr, [sp], #4
 8000c22:	f04f 001d 	mov.w	r0, #29
 8000c26:	b500      	push	{lr}
 8000c28:	f7ff fd71 	bl	800070e <nvic_enable_irq>
 8000c2c:	f85d eb04 	ldr.w	lr, [sp], #4
 8000c30:	4770      	bx	lr
 8000c32:	bf00      	nop

08000c34 <tv_out_isr>:
 8000c34:	f44f 6080 	mov.w	r0, #1024	; 0x400
 8000c38:	f2c4 0000 	movt	r0, #16384	; 0x4000
 8000c3c:	ea81 0101 	eor.w	r1, r1, r1
 8000c40:	6101      	str	r1, [r0, #16]
 8000c42:	6e61      	ldr	r1, [r4, #100]	; 0x64
 8000c44:	f101 0101 	add.w	r1, r1, #1
 8000c48:	6661      	str	r1, [r4, #100]	; 0x64
 8000c4a:	6ea2      	ldr	r2, [r4, #104]	; 0x68
 8000c4c:	2a00      	cmp	r2, #0
 8000c4e:	d007      	beq.n	8000c60 <state_vsync>
 8000c50:	2a01      	cmp	r2, #1
 8000c52:	d02f      	beq.n	8000cb4 <state_pre_video>
 8000c54:	2a02      	cmp	r2, #2
 8000c56:	d036      	beq.n	8000cc6 <state_video_out>
 8000c58:	2a03      	cmp	r2, #3
 8000c5a:	d063      	beq.n	8000d24 <state_post_video>
 8000c5c:	f7ff bad0 	b.w	8000200 <default_handler>

08000c60 <state_vsync>:
 8000c60:	2901      	cmp	r1, #1
 8000c62:	d106      	bne.n	8000c72 <state_vsync+0x12>
 8000c64:	f04f 01db 	mov.w	r1, #219	; 0xdb
 8000c68:	6401      	str	r1, [r0, #64]	; 0x40
 8000c6a:	f640 31e9 	movw	r1, #3049	; 0xbe9
 8000c6e:	62c1      	str	r1, [r0, #44]	; 0x2c
 8000c70:	e06b      	b.n	8000d4a <tv_isr_exit>
 8000c72:	2907      	cmp	r1, #7
 8000c74:	d103      	bne.n	8000c7e <state_vsync+0x1e>
 8000c76:	f640 2128 	movw	r1, #2600	; 0xa28
 8000c7a:	6401      	str	r1, [r0, #64]	; 0x40
 8000c7c:	e065      	b.n	8000d4a <tv_isr_exit>
 8000c7e:	290d      	cmp	r1, #13
 8000c80:	d103      	bne.n	8000c8a <state_vsync+0x2a>
 8000c82:	f04f 01db 	mov.w	r1, #219	; 0xdb
 8000c86:	6401      	str	r1, [r0, #64]	; 0x40
 8000c88:	e05f      	b.n	8000d4a <tv_isr_exit>
 8000c8a:	2912      	cmp	r1, #18
 8000c8c:	d103      	bne.n	8000c96 <state_vsync+0x36>
 8000c8e:	6ee1      	ldr	r1, [r4, #108]	; 0x6c
 8000c90:	2900      	cmp	r1, #0
 8000c92:	d05a      	beq.n	8000d4a <tv_isr_exit>
 8000c94:	e001      	b.n	8000c9a <sync_end>
 8000c96:	2913      	cmp	r1, #19
 8000c98:	d157      	bne.n	8000d4a <tv_isr_exit>

08000c9a <sync_end>:
 8000c9a:	f04f 0109 	mov.w	r1, #9
 8000c9e:	6661      	str	r1, [r4, #100]	; 0x64
 8000ca0:	f44f 71e1 	mov.w	r1, #450	; 0x1c2
 8000ca4:	6401      	str	r1, [r0, #64]	; 0x40
 8000ca6:	f241 71d4 	movw	r1, #6100	; 0x17d4
 8000caa:	62c1      	str	r1, [r0, #44]	; 0x2c
 8000cac:	f04f 0101 	mov.w	r1, #1
 8000cb0:	66a1      	str	r1, [r4, #104]	; 0x68
 8000cb2:	e04a      	b.n	8000d4a <tv_isr_exit>

08000cb4 <state_pre_video>:
 8000cb4:	2928      	cmp	r1, #40	; 0x28
 8000cb6:	d448      	bmi.n	8000d4a <tv_isr_exit>
 8000cb8:	f04f 0102 	mov.w	r1, #2
 8000cbc:	66a1      	str	r1, [r4, #104]	; 0x68
 8000cbe:	f04f 0108 	mov.w	r1, #8
 8000cc2:	60c1      	str	r1, [r0, #12]
 8000cc4:	e041      	b.n	8000d4a <tv_isr_exit>

08000cc6 <state_video_out>:
 8000cc6:	29f0      	cmp	r1, #240	; 0xf0
 8000cc8:	d906      	bls.n	8000cd8 <state_video_out+0x12>
 8000cca:	f04f 0103 	mov.w	r1, #3
 8000cce:	66a1      	str	r1, [r4, #104]	; 0x68
 8000cd0:	f04f 0101 	mov.w	r1, #1
 8000cd4:	60c1      	str	r1, [r0, #12]
 8000cd6:	e038      	b.n	8000d4a <tv_isr_exit>
 8000cd8:	6f20      	ldr	r0, [r4, #112]	; 0x70
 8000cda:	f1a1 0129 	sub.w	r1, r1, #41	; 0x29
 8000cde:	f04f 03a0 	mov.w	r3, #160	; 0xa0
 8000ce2:	fb03 f101 	mul.w	r1, r3, r1
 8000ce6:	4408      	add	r0, r1
 8000ce8:	f44f 6180 	mov.w	r1, #1024	; 0x400
 8000cec:	f2c4 0102 	movt	r1, #16386	; 0x4002
 8000cf0:	f810 2b01 	ldrb.w	r2, [r0], #1
 8000cf4:	ea4f 2202 	mov.w	r2, r2, lsl #8
 8000cf8:	828a      	strh	r2, [r1, #20]
 8000cfa:	f3af 8000 	nop.w
 8000cfe:	f3af 8000 	nop.w
 8000d02:	f3af 8000 	nop.w
 8000d06:	f3af 8000 	nop.w
 8000d0a:	ea4f 1202 	mov.w	r2, r2, lsl #4
 8000d0e:	828a      	strh	r2, [r1, #20]
 8000d10:	f3af 8000 	nop.w
 8000d14:	f3af 8000 	nop.w
 8000d18:	3b01      	subs	r3, #1
 8000d1a:	d1e9      	bne.n	8000cf0 <state_video_out+0x2a>
 8000d1c:	f44f 2270 	mov.w	r2, #983040	; 0xf0000
 8000d20:	618a      	str	r2, [r1, #24]
 8000d22:	e012      	b.n	8000d4a <tv_isr_exit>

08000d24 <state_post_video>:
 8000d24:	f44f 7283 	mov.w	r2, #262	; 0x106
 8000d28:	4291      	cmp	r1, r2
 8000d2a:	d40e      	bmi.n	8000d4a <tv_isr_exit>
 8000d2c:	6ee1      	ldr	r1, [r4, #108]	; 0x6c
 8000d2e:	b911      	cbnz	r1, 8000d36 <frame_end>
 8000d30:	f640 31e9 	movw	r1, #3049	; 0xbe9
 8000d34:	62c1      	str	r1, [r0, #44]	; 0x2c

08000d36 <frame_end>:
 8000d36:	f04f 0100 	mov.w	r1, #0
 8000d3a:	66a1      	str	r1, [r4, #104]	; 0x68
 8000d3c:	ea81 0101 	eor.w	r1, r1, r1
 8000d40:	6661      	str	r1, [r4, #100]	; 0x64
 8000d42:	6ee1      	ldr	r1, [r4, #108]	; 0x6c
 8000d44:	ea6f 0101 	mvn.w	r1, r1
 8000d48:	66e1      	str	r1, [r4, #108]	; 0x6c

08000d4a <tv_isr_exit>:
 8000d4a:	4770      	bx	lr
 8000d4c:	08000b40 	stmdaeq	r0, {r6, r8, r9, fp}

08000d50 <_BACKCOLOR>:
 8000d50:	4341420a 	movtmi	r4, #4618	; 0x120a
 8000d54:	4f432d4b 	svcmi	0x00432d4b
 8000d58:	00524f4c 	subseq	r4, r2, ip, asr #30

08000d5c <BACKCOLOR>:
 8000d5c:	f847 6d04 	str.w	r6, [r7, #-4]!
 8000d60:	f104 0698 	add.w	r6, r4, #152	; 0x98
 8000d64:	f001 bd06 	b.w	8002774 <INEXT>
 8000d68:	08000d50 	stmdaeq	r0, {r4, r6, r8, sl, fp}

08000d6c <_PENCOLOR>:
 8000d6c:	4e455009 	cdpmi	0, 4, cr5, cr5, cr9, {0}
 8000d70:	4c4f432d 	mcrrmi	3, 2, r4, pc, cr13
 8000d74:	bf00524f 	svclt	0x0000524f

08000d78 <PENCOLOR>:
 8000d78:	f847 6d04 	str.w	r6, [r7, #-4]!
 8000d7c:	f104 069c 	add.w	r6, r4, #156	; 0x9c
 8000d80:	f001 bcf8 	b.w	8002774 <INEXT>
 8000d84:	08000d6c 	stmdaeq	r0, {r2, r3, r5, r6, r8, sl, fp}

08000d88 <_CURSOR_COL>:
 8000d88:	4c4f4306 	mcrrmi	3, 0, r4, pc, cr6
 8000d8c:	004e4d55 	subeq	r4, lr, r5, asr sp

08000d90 <CURSOR_COL>:
 8000d90:	f847 6d04 	str.w	r6, [r7, #-4]!
 8000d94:	f104 0694 	add.w	r6, r4, #148	; 0x94
 8000d98:	f001 bcec 	b.w	8002774 <INEXT>
 8000d9c:	08000d88 	stmdaeq	r0, {r3, r7, r8, sl, fp}

08000da0 <_CURSOR_ROW>:
 8000da0:	574f5203 	strbpl	r5, [pc, -r3, lsl #4]

08000da4 <CURSOR_ROW>:
 8000da4:	f847 6d04 	str.w	r6, [r7, #-4]!
 8000da8:	f104 0690 	add.w	r6, r4, #144	; 0x90
 8000dac:	f001 bce2 	b.w	8002774 <INEXT>
 8000db0:	08000da0 	stmdaeq	r0, {r5, r7, r8, sl, fp}

08000db4 <_ROWY>:
 8000db4:	574f5205 	strbpl	r5, [pc, -r5, lsl #4]
 8000db8:	bf00593e 	svclt	0x0000593e

08000dbc <ROWY>:
 8000dbc:	f04f 0008 	mov.w	r0, #8
 8000dc0:	fb00 f606 	mul.w	r6, r0, r6
 8000dc4:	f001 bcd6 	b.w	8002774 <INEXT>
 8000dc8:	08000db4 	stmdaeq	r0, {r2, r4, r5, r7, r8, sl, fp}

08000dcc <_COLX>:
 8000dcc:	4c4f4305 	mcrrmi	3, 0, r4, pc, cr5
 8000dd0:	bf00583e 	svclt	0x0000583e

08000dd4 <COLX>:
 8000dd4:	f04f 0006 	mov.w	r0, #6
 8000dd8:	fb00 f606 	mul.w	r6, r0, r6
 8000ddc:	f001 bcca 	b.w	8002774 <INEXT>
 8000de0:	08000dcc 	stmdaeq	r0, {r2, r3, r6, r7, r8, sl, fp}

08000de4 <_FONT>:
 8000de4:	4e4f4604 	cdpmi	6, 4, cr4, cr15, cr4, {0}
 8000de8:	bf000054 	svclt	0x00000054

08000dec <FONT>:
 8000dec:	f847 6d04 	str.w	r6, [r7, #-4]!
 8000df0:	f8df 658c 	ldr.w	r6, [pc, #1420]	; 8001380 <INPUT+0x30>
 8000df4:	f001 bcbe 	b.w	8002774 <INEXT>
 8000df8:	08000de4 	stmdaeq	r0, {r2, r5, r6, r7, r8, sl, fp}

08000dfc <_VIDBUFF>:
 8000dfc:	44495607 	strbmi	r5, [r9], #-1543	; 0xfffff9f9
 8000e00:	46465542 	strbmi	r5, [r6], -r2, asr #10

08000e04 <VIDBUFF>:
 8000e04:	f847 6d04 	str.w	r6, [r7, #-4]!
 8000e08:	6f26      	ldr	r6, [r4, #112]	; 0x70
 8000e0a:	f001 bcb3 	b.w	8002774 <INEXT>
 8000e0e:	08000dfc 	stmdaeq	r0, {r2, r3, r4, r5, r6, r7, r8, sl, fp}

08000e12 <_PLOT>:
 8000e12:	4f4c5004 	svcmi	0x004c5004
 8000e16:	 	svcgt	0x00030054

08000e18 <PLOT>:
 8000e18:	cf03      	ldmia	r7!, {r0, r1}
 8000e1a:	f04f 02a0 	mov.w	r2, #160	; 0xa0
 8000e1e:	fb02 f000 	mul.w	r0, r2, r0
 8000e22:	ea4f 0251 	mov.w	r2, r1, lsr #1
 8000e26:	4410      	add	r0, r2
 8000e28:	6f23      	ldr	r3, [r4, #112]	; 0x70
 8000e2a:	4403      	add	r3, r0
 8000e2c:	781d      	ldrb	r5, [r3, #0]
 8000e2e:	f04f 020f 	mov.w	r2, #15
 8000e32:	f011 0f01 	tst.w	r1, #1
 8000e36:	d001      	beq.n	8000e3c <PLOT+0x24>
 8000e38:	ea4f 1202 	mov.w	r2, r2, lsl #4
 8000e3c:	f8df 0544 	ldr.w	r0, [pc, #1348]	; 8001384 <INPUT+0x34>
 8000e40:	e8d0 f006 	tbb	[r0, r6]

08000e44 <op_back>:
 8000e44:	ea05 0502 	and.w	r5, r5, r2
 8000e48:	f894 0098 	ldrb.w	r0, [r4, #152]	; 0x98
 8000e4c:	f011 0f01 	tst.w	r1, #1
 8000e50:	d101      	bne.n	8000e56 <op_back+0x12>
 8000e52:	ea4f 1000 	mov.w	r0, r0, lsl #4
 8000e56:	ea45 0500 	orr.w	r5, r5, r0
 8000e5a:	701d      	strb	r5, [r3, #0]
 8000e5c:	e01a      	b.n	8000e94 <op_xor+0x14>

08000e5e <op_pen>:
 8000e5e:	ea05 0502 	and.w	r5, r5, r2
 8000e62:	f894 009c 	ldrb.w	r0, [r4, #156]	; 0x9c
 8000e66:	f011 0f01 	tst.w	r1, #1
 8000e6a:	d101      	bne.n	8000e70 <op_pen+0x12>
 8000e6c:	ea4f 1000 	mov.w	r0, r0, lsl #4
 8000e70:	ea45 0500 	orr.w	r5, r5, r0
 8000e74:	701d      	strb	r5, [r3, #0]
 8000e76:	e00d      	b.n	8000e94 <op_xor+0x14>

08000e78 <op_invert>:
 8000e78:	ea85 0502 	eor.w	r5, r5, r2
 8000e7c:	701d      	strb	r5, [r3, #0]
 8000e7e:	e009      	b.n	8000e94 <op_xor+0x14>

08000e80 <op_xor>:
 8000e80:	f8d4 009c 	ldr.w	r0, [r4, #156]	; 0x9c
 8000e84:	f011 0f01 	tst.w	r1, #1
 8000e88:	d101      	bne.n	8000e8e <op_xor+0xe>
 8000e8a:	ea4f 1000 	mov.w	r0, r0, lsl #4
 8000e8e:	ea85 0500 	eor.w	r5, r5, r0
 8000e92:	701d      	strb	r5, [r3, #0]
 8000e94:	f857 6b04 	ldr.w	r6, [r7], #4
 8000e98:	f001 bc6c 	b.w	8002774 <INEXT>

08000e9c <plot_op>:
 8000e9c:	1e1a0d00 	cdpne	13, 1, cr0, cr10, cr0, {0}
 8000ea0:	08000e12 	stmdaeq	r0, {r1, r4, r9, sl, fp}

08000ea4 <_VSYNC>:
 8000ea4:	59535605 	ldmdbpl	r3, {r0, r2, r9, sl, ip, lr}^
 8000ea8:	bf00434e 	svclt	0x0000434e

08000eac <VSYNC>:
 8000eac:	6e60      	ldr	r0, [r4, #100]	; 0x64
 8000eae:	2800      	cmp	r0, #0
 8000eb0:	d1fc      	bne.n	8000eac <VSYNC>
 8000eb2:	f001 bc5f 	b.w	8002774 <INEXT>
 8000eb6:	08000ea4 	stmdaeq	r0, {r2, r5, r7, r9, sl, fp}

08000eba <_CLS>:
 8000eba:	534c4303 	movtpl	r4, #49923	; 0xc303
 8000ebe:	bf00      	nop

08000ec0 <CLS>:
 8000ec0:	ea80 0000 	eor.w	r0, r0, r0
 8000ec4:	f894 1098 	ldrb.w	r1, [r4, #152]	; 0x98
 8000ec8:	ea40 0001 	orr.w	r0, r0, r1
 8000ecc:	ea4f 1101 	mov.w	r1, r1, lsl #4
 8000ed0:	ea40 0001 	orr.w	r0, r0, r1
 8000ed4:	ea4f 2100 	mov.w	r1, r0, lsl #8
 8000ed8:	ea40 0001 	orr.w	r0, r0, r1
 8000edc:	ea4f 4100 	mov.w	r1, r0, lsl #16
 8000ee0:	ea40 0001 	orr.w	r0, r0, r1
 8000ee4:	f647 41fc 	movw	r1, #31996	; 0x7cfc
 8000ee8:	6f22      	ldr	r2, [r4, #112]	; 0x70
 8000eea:	5050      	str	r0, [r2, r1]
 8000eec:	3904      	subs	r1, #4
 8000eee:	d1fc      	bne.n	8000eea <CLS+0x2a>
 8000ef0:	6010      	str	r0, [r2, #0]
 8000ef2:	ea80 0000 	eor.w	r0, r0, r0
 8000ef6:	f8c4 0090 	str.w	r0, [r4, #144]	; 0x90
 8000efa:	f8c4 0094 	str.w	r0, [r4, #148]	; 0x94
 8000efe:	f001 bc39 	b.w	8002774 <INEXT>
 8000f02:	08000eba 	stmdaeq	r0, {r1, r3, r4, r5, r7, r9, sl, fp}

08000f06 <_CLRLINE>:
 8000f06:	524c4307 	subpl	r4, ip, #469762048	; 0x1c000000
 8000f0a:	454e494c 	strbmi	r4, [lr, #-2380]	; 0xfffff6b4
 8000f0e:	bf00      	nop

08000f10 <CLRLINE>:
 8000f10:	4750      	bx	sl
 8000f12:	bf00      	nop
 8000f14:	0800293b 	stmdaeq	r0, {r0, r1, r3, r4, r5, r8, fp, sp}
 8000f18:	00000500 	andeq	r0, r0, r0, lsl #10
 8000f1c:	08002ad5 	stmdaeq	r0, {r0, r2, r4, r6, r7, r9, fp, sp}
 8000f20:	08002a51 	stmdaeq	r0, {r0, r4, r6, r9, fp, sp}
 8000f24:	08002bb9 	stmdaeq	r0, {r0, r3, r4, r5, r7, r8, r9, fp, sp}
 8000f28:	08000e05 	stmdaeq	r0, {r0, r2, r9, sl, fp}
 8000f2c:	08002b99 	stmdaeq	r0, {r0, r3, r4, r7, r8, r9, fp, sp}
 8000f30:	08002a0d 	stmdaeq	r0, {r0, r2, r3, r9, fp, sp}
 8000f34:	0800293b 	stmdaeq	r0, {r0, r1, r3, r4, r5, r8, fp, sp}
 8000f38:	00000000 	andeq	r0, r0, r0
 8000f3c:	08003535 	stmdaeq	r0, {r0, r2, r4, r5, r8, sl, ip, sp}
 8000f40:	0800277b 	stmdaeq	r0, {r0, r1, r3, r4, r5, r6, r8, r9, sl, sp}
 8000f44:	08000f06 	stmdaeq	r0, {r1, r2, r8, r9, sl, fp}

08000f48 <_SCROLLUP>:
 8000f48:	52435308 	subpl	r5, r3, #8, 6	; 0x20000000
 8000f4c:	554c4c4f 	strbpl	r4, [ip, #-3151]	; 0xfffff3b1
 8000f50:	bf000050 	svclt	0x00000050

08000f54 <SCROLLUP>:
 8000f54:	4750      	bx	sl
 8000f56:	bf00      	nop
 8000f58:	08000e05 	stmdaeq	r0, {r0, r2, r9, sl, fp}
 8000f5c:	08002ad5 	stmdaeq	r0, {r0, r2, r4, r6, r7, r9, fp, sp}
 8000f60:	0800293b 	stmdaeq	r0, {r0, r1, r3, r4, r5, r8, fp, sp}
 8000f64:	00000500 	andeq	r0, r0, r0, lsl #10
 8000f68:	08002ad5 	stmdaeq	r0, {r0, r2, r4, r6, r7, r9, fp, sp}
 8000f6c:	08002a51 	stmdaeq	r0, {r0, r4, r6, r9, fp, sp}
 8000f70:	08002b99 	stmdaeq	r0, {r0, r3, r4, r7, r8, r9, fp, sp}
 8000f74:	08002ae5 	stmdaeq	r0, {r0, r2, r5, r6, r7, r9, fp, sp}
 8000f78:	0800293b 	stmdaeq	r0, {r0, r1, r3, r4, r5, r8, fp, sp}
 8000f7c:	00007d00 	andeq	r7, r0, r0, lsl #26
 8000f80:	08002a0d 	stmdaeq	r0, {r0, r2, r3, r9, fp, sp}
 8000f84:	08002ba9 	stmdaeq	r0, {r0, r3, r5, r7, r8, r9, fp, sp}
 8000f88:	080034ed 	stmdaeq	r0, {r0, r2, r3, r5, r6, r7, sl, ip, sp}
 8000f8c:	0800293b 	stmdaeq	r0, {r0, r1, r3, r4, r5, r8, fp, sp}
 8000f90:	00000018 	andeq	r0, r0, r8, lsl r0
 8000f94:	08000f11 	stmdaeq	r0, {r0, r4, r8, r9, sl, fp}
 8000f98:	0800277b 	stmdaeq	r0, {r0, r1, r3, r4, r5, r6, r8, r9, sl, sp}
 8000f9c:	08000f48 	stmdaeq	r0, {r3, r6, r8, r9, sl, fp}

08000fa0 <_SCROLLDOWN>:
 8000fa0:	5243530a 	subpl	r5, r3, #671088640	; 0x28000000
 8000fa4:	444c4c4f 	strbmi	r4, [ip], #-3151	; 0xfffff3b1
 8000fa8:	004e574f 	subeq	r5, lr, pc, asr #14

08000fac <SCROLLDOWN>:
 8000fac:	4750      	bx	sl
 8000fae:	bf00      	nop
 8000fb0:	08000e05 	stmdaeq	r0, {r0, r2, r9, sl, fp}
 8000fb4:	08002ad5 	stmdaeq	r0, {r0, r2, r4, r6, r7, r9, fp, sp}
 8000fb8:	0800293b 	stmdaeq	r0, {r0, r1, r3, r4, r5, r8, fp, sp}
 8000fbc:	00000500 	andeq	r0, r0, r0, lsl #10
 8000fc0:	08002b99 	stmdaeq	r0, {r0, r3, r4, r7, r8, r9, fp, sp}
 8000fc4:	0800293b 	stmdaeq	r0, {r0, r1, r3, r4, r5, r8, fp, sp}
 8000fc8:	00007d00 	andeq	r7, r0, r0, lsl #26
 8000fcc:	0800293b 	stmdaeq	r0, {r0, r1, r3, r4, r5, r8, fp, sp}
 8000fd0:	00000500 	andeq	r0, r0, r0, lsl #10
 8000fd4:	08002ba9 	stmdaeq	r0, {r0, r3, r5, r7, r8, r9, fp, sp}
 8000fd8:	080034ed 	stmdaeq	r0, {r0, r2, r3, r5, r6, r7, sl, ip, sp}
 8000fdc:	0800293b 	stmdaeq	r0, {r0, r1, r3, r4, r5, r8, fp, sp}
 8000fe0:	00000000 	andeq	r0, r0, r0
 8000fe4:	08000f11 	stmdaeq	r0, {r0, r4, r8, r9, sl, fp}
 8000fe8:	0800277b 	stmdaeq	r0, {r0, r1, r3, r4, r5, r6, r8, r9, sl, sp}
 8000fec:	08000fa0 	stmdaeq	r0, {r5, r7, r8, r9, sl, fp}

08000ff0 <_TV_CRLF>:
 8000ff0:	2d565407 	cfldrdcs	mvd5, [r6, #-28]	; 0xffffffe4
 8000ff4:	464c5243 	strbmi	r5, [ip], -r3, asr #4

08000ff8 <TV_CRLF>:
 8000ff8:	4de3      	ldr	r5, [pc, #908]	; (8001388 <INPUT+0x38>)
 8000ffa:	f045 0501 	orr.w	r5, r5, #1
 8000ffe:	ea80 0000 	eor.w	r0, r0, r0
 8001002:	f8c4 0094 	str.w	r0, [r4, #148]	; 0x94
 8001006:	f8d4 0090 	ldr.w	r0, [r4, #144]	; 0x90
 800100a:	2818      	cmp	r0, #24
 800100c:	d0a2      	beq.n	8000f54 <SCROLLUP>
 800100e:	f100 0001 	add.w	r0, r0, #1
 8001012:	f8c4 0090 	str.w	r0, [r4, #144]	; 0x90
 8001016:	f001 bbad 	b.w	8002774 <INEXT>
 800101a:	08000ff0 	stmdaeq	r0, {r4, r5, r6, r7, r8, r9, sl, fp}

0800101e <_RIGHT>:
 800101e:	47495205 	strbmi	r5, [r9, -r5, lsl #4]
 8001022:	 			; <UNDEFINED> instruction: 0xf8d45448

08001024 <RIGHT>:
 8001024:	f8d4 0094 	ldr.w	r0, [r4, #148]	; 0x94
 8001028:	f100 0001 	add.w	r0, r0, #1
 800102c:	2835      	cmp	r0, #53	; 0x35
 800102e:	d5e3      	bpl.n	8000ff8 <TV_CRLF>
 8001030:	f8c4 0094 	str.w	r0, [r4, #148]	; 0x94
 8001034:	f001 bb9e 	b.w	8002774 <INEXT>
 8001038:	0800101e 	stmdaeq	r0, {r1, r2, r3, r4, ip}

0800103c <_LEFT>:
 800103c:	46454c04 	strbmi	r4, [r5], -r4, lsl #24
 8001040:	bf000054 	svclt	0x00000054

08001044 <LEFT>:
 8001044:	f8d4 0094 	ldr.w	r0, [r4, #148]	; 0x94
 8001048:	b128      	cbz	r0, 8001056 <LEFT+0x12>
 800104a:	f1a0 0001 	sub.w	r0, r0, #1
 800104e:	f8c4 0094 	str.w	r0, [r4, #148]	; 0x94
 8001052:	f001 bb8f 	b.w	8002774 <INEXT>
 8001056:	f8d4 0090 	ldr.w	r0, [r4, #144]	; 0x90
 800105a:	b138      	cbz	r0, 800106c <LEFT+0x28>
 800105c:	f1a0 0001 	sub.w	r0, r0, #1
 8001060:	f8c4 0090 	str.w	r0, [r4, #144]	; 0x90
 8001064:	f04f 0034 	mov.w	r0, #52	; 0x34
 8001068:	f8c4 0094 	str.w	r0, [r4, #148]	; 0x94
 800106c:	f001 bb82 	b.w	8002774 <INEXT>

08001070 <FONT_PIXEL>:
 8001070:	f04f 0080 	mov.w	r0, #128	; 0x80
 8001074:	ea06 0600 	and.w	r6, r6, r0
 8001078:	ea4f 16d6 	mov.w	r6, r6, lsr #7
 800107c:	f001 bb7a 	b.w	8002774 <INEXT>

08001080 <INCR_X>:
 8001080:	6838      	ldr	r0, [r7, #0]
 8001082:	f100 0001 	add.w	r0, r0, #1
 8001086:	6038      	str	r0, [r7, #0]
 8001088:	f001 bb74 	b.w	8002774 <INEXT>

0800108c <NEXT_PIXEL>:
 800108c:	ea4f 0646 	mov.w	r6, r6, lsl #1
 8001090:	f001 bb70 	b.w	8002774 <INEXT>

08001094 <CHAR_ROW>:
 8001094:	4750      	bx	sl
 8001096:	bf00      	nop
 8001098:	0800293b 	stmdaeq	r0, {r0, r1, r3, r4, r5, r8, fp, sp}
 800109c:	00000005 	andeq	r0, r0, r5
 80010a0:	08002a51 	stmdaeq	r0, {r0, r4, r6, r9, fp, sp}
 80010a4:	08002a51 	stmdaeq	r0, {r0, r4, r6, r9, fp, sp}
 80010a8:	08002d0d 	stmdaeq	r0, {r0, r2, r3, r8, sl, fp, sp}
 80010ac:	08002a3d 	stmdaeq	r0, {r0, r2, r3, r4, r5, r9, fp, sp}
 80010b0:	08001071 	stmdaeq	r0, {r0, r4, r5, r6, ip}
 80010b4:	08000e19 	stmdaeq	r0, {r0, r3, r4, r9, sl, fp}
 80010b8:	08001081 	stmdaeq	r0, {r0, r7, ip}
 80010bc:	08002a0d 	stmdaeq	r0, {r0, r2, r3, r9, fp, sp}
 80010c0:	0800108d 	stmdaeq	r0, {r0, r2, r3, r7, ip}
 80010c4:	0800295d 	stmdaeq	r0, {r0, r2, r3, r4, r6, r8, fp, sp}
 80010c8:	080010a4 	stmdaeq	r0, {r2, r5, r7, ip}
 80010cc:	08002cf9 	stmdaeq	r0, {r0, r3, r4, r5, r6, r7, sl, fp, sp}
 80010d0:	0800277b 	stmdaeq	r0, {r0, r1, r3, r4, r5, r6, r8, r9, sl, sp}

080010d4 <CHAR_FONT>:
 80010d4:	f1a6 0620 	sub.w	r6, r6, #32
 80010d8:	f04f 0008 	mov.w	r0, #8
 80010dc:	fb00 f606 	mul.w	r6, r0, r6
 80010e0:	48a7      	ldr	r0, [pc, #668]	; (8001380 <INPUT+0x30>)
 80010e2:	4406      	add	r6, r0
 80010e4:	f001 bb46 	b.w	8002774 <INEXT>
 80010e8:	0800103c 	stmdaeq	r0, {r2, r3, r4, r5, ip}

080010ec <_TV_EMIT>:
 80010ec:	2d565407 	cfldrdcs	mvd5, [r6, #-28]	; 0xffffffe4
 80010f0:	54494d45 	strbpl	r4, [r9], #-3397	; 0xfffff2bb

080010f4 <TV_EMIT>:
 80010f4:	4750      	bx	sl
 80010f6:	bf00      	nop
 80010f8:	08002ad5 	stmdaeq	r0, {r0, r2, r4, r6, r7, r9, fp, sp}
 80010fc:	0800293b 	stmdaeq	r0, {r0, r1, r3, r4, r5, r8, fp, sp}
 8001100:	00000020 	andeq	r0, r0, r0, lsr #32
 8001104:	08002e59 	stmdaeq	r0, {r0, r3, r4, r6, r9, sl, fp, sp}
 8001108:	0800297b 	stmdaeq	r0, {r0, r1, r3, r4, r5, r6, r8, fp, sp}
 800110c:	08001118 	stmdaeq	r0, {r3, r4, r8, ip}
 8001110:	0800298f 	stmdaeq	r0, {r0, r1, r2, r3, r7, r8, fp, sp}
 8001114:	0800117c 	stmdaeq	r0, {r2, r3, r4, r5, r6, r8, ip}
 8001118:	080010d5 	stmdaeq	r0, {r0, r2, r4, r6, r7, ip}
 800111c:	08000d91 	stmdaeq	r0, {r0, r4, r7, r8, sl, fp}
 8001120:	080029c1 	stmdaeq	r0, {r0, r6, r7, r8, fp, sp}
 8001124:	08000dd5 	stmdaeq	r0, {r0, r2, r4, r6, r7, r8, sl, fp}
 8001128:	08000da5 	stmdaeq	r0, {r0, r2, r5, r7, r8, sl, fp}
 800112c:	080029c1 	stmdaeq	r0, {r0, r6, r7, r8, fp, sp}
 8001130:	08000dbd 	stmdaeq	r0, {r0, r2, r3, r4, r5, r7, r8, sl, fp}
 8001134:	08002cbd 	stmdaeq	r0, {r0, r2, r3, r4, r5, r7, sl, fp, sp}
 8001138:	0800293b 	stmdaeq	r0, {r0, r1, r3, r4, r5, r8, fp, sp}
 800113c:	00000007 	andeq	r0, r0, r7
 8001140:	08002a51 	stmdaeq	r0, {r0, r4, r6, r9, fp, sp}
 8001144:	08002a51 	stmdaeq	r0, {r0, r4, r6, r9, fp, sp}
 8001148:	08002d0d 	stmdaeq	r0, {r0, r2, r3, r8, sl, fp, sp}
 800114c:	08002a3d 	stmdaeq	r0, {r0, r2, r3, r4, r5, r9, fp, sp}
 8001150:	080029e1 	stmdaeq	r0, {r0, r5, r6, r7, r8, fp, sp}
 8001154:	08001095 	stmdaeq	r0, {r0, r2, r4, r7, ip}
 8001158:	08002bf5 	stmdaeq	r0, {r0, r2, r4, r5, r6, r7, r8, r9, fp, sp}
 800115c:	08002a0d 	stmdaeq	r0, {r0, r2, r3, r9, fp, sp}
 8001160:	08002bf5 	stmdaeq	r0, {r0, r2, r4, r5, r6, r7, r8, r9, fp, sp}
 8001164:	0800295d 	stmdaeq	r0, {r0, r2, r3, r4, r6, r8, fp, sp}
 8001168:	08001144 	stmdaeq	r0, {r2, r6, r8, ip}
 800116c:	08002cf9 	stmdaeq	r0, {r0, r3, r4, r5, r6, r7, sl, fp, sp}
 8001170:	08001025 	stmdaeq	r0, {r0, r2, r5, ip}
 8001174:	08001265 	stmdaeq	r0, {r0, r2, r5, r6, r9, ip}
 8001178:	0800277b 	stmdaeq	r0, {r0, r1, r3, r4, r5, r6, r8, r9, sl, sp}

0800117c <CTRL_KEY>:
 800117c:	080012ed 	stmdaeq	r0, {r0, r2, r3, r5, r6, r7, r9, ip}
 8001180:	08002ad5 	stmdaeq	r0, {r0, r2, r4, r6, r7, r9, fp, sp}
 8001184:	0800293b 	stmdaeq	r0, {r0, r1, r3, r4, r5, r8, fp, sp}
 8001188:	00000008 	andeq	r0, r0, r8
 800118c:	08002e21 	stmdaeq	r0, {r0, r5, r9, sl, fp, sp}
 8001190:	0800297b 	stmdaeq	r0, {r0, r1, r3, r4, r5, r6, r8, fp, sp}
 8001194:	080011a8 	stmdaeq	r0, {r3, r5, r7, r8, ip}
 8001198:	08001245 	stmdaeq	r0, {r0, r2, r6, r9, ip}
 800119c:	08002ac5 	stmdaeq	r0, {r0, r2, r6, r7, r9, fp, sp}
 80011a0:	0800298f 	stmdaeq	r0, {r0, r1, r2, r3, r7, r8, fp, sp}
 80011a4:	08001174 	stmdaeq	r0, {r2, r4, r5, r6, r8, ip}
 80011a8:	08002ad5 	stmdaeq	r0, {r0, r2, r4, r6, r7, r9, fp, sp}
 80011ac:	0800293b 	stmdaeq	r0, {r0, r1, r3, r4, r5, r8, fp, sp}
 80011b0:	0000000d 	andeq	r0, r0, sp
 80011b4:	08002e21 	stmdaeq	r0, {r0, r5, r9, sl, fp, sp}
 80011b8:	0800297b 	stmdaeq	r0, {r0, r1, r3, r4, r5, r6, r8, fp, sp}
 80011bc:	080011cc 	stmdaeq	r0, {r2, r3, r6, r7, r8, ip}
 80011c0:	080011ed 	stmdaeq	r0, {r0, r2, r3, r5, r6, r7, r8, ip}
 80011c4:	0800298f 	stmdaeq	r0, {r0, r1, r2, r3, r7, r8, fp, sp}
 80011c8:	0800119c 	stmdaeq	r0, {r2, r3, r4, r7, r8, ip}
 80011cc:	0800293b 	stmdaeq	r0, {r0, r1, r3, r4, r5, r8, fp, sp}
 80011d0:	0000000a 	andeq	r0, r0, sl
 80011d4:	08002e21 	stmdaeq	r0, {r0, r5, r9, sl, fp, sp}
 80011d8:	0800297b 	stmdaeq	r0, {r0, r1, r3, r4, r5, r6, r8, fp, sp}
 80011dc:	08001174 	stmdaeq	r0, {r2, r4, r5, r6, r8, ip}
 80011e0:	08001205 	stmdaeq	r0, {r0, r2, r9, ip}
 80011e4:	0800298f 	stmdaeq	r0, {r0, r1, r2, r3, r7, r8, fp, sp}
 80011e8:	08001174 	stmdaeq	r0, {r2, r4, r5, r6, r8, ip}

080011ec <CAR_RET>:
 80011ec:	4750      	bx	sl
 80011ee:	bf00      	nop
 80011f0:	0800293b 	stmdaeq	r0, {r0, r1, r3, r4, r5, r8, fp, sp}
 80011f4:	00000000 	andeq	r0, r0, r0
 80011f8:	08000d91 	stmdaeq	r0, {r0, r4, r7, r8, sl, fp}
 80011fc:	080029ad 	stmdaeq	r0, {r0, r2, r3, r5, r7, r8, fp, sp}
 8001200:	0800277b 	stmdaeq	r0, {r0, r1, r3, r4, r5, r6, r8, r9, sl, sp}

08001204 <LN_FEED>:
 8001204:	4750      	bx	sl
 8001206:	bf00      	nop
 8001208:	08000da5 	stmdaeq	r0, {r0, r2, r5, r7, r8, sl, fp}
 800120c:	080029c1 	stmdaeq	r0, {r0, r6, r7, r8, fp, sp}
 8001210:	08002ad5 	stmdaeq	r0, {r0, r2, r4, r6, r7, r9, fp, sp}
 8001214:	0800293b 	stmdaeq	r0, {r0, r1, r3, r4, r5, r8, fp, sp}
 8001218:	00000018 	andeq	r0, r0, r8, lsl r0
 800121c:	08002b41 	stmdaeq	r0, {r0, r6, r8, r9, fp, sp}
 8001220:	0800297b 	stmdaeq	r0, {r0, r1, r3, r4, r5, r6, r8, fp, sp}
 8001224:	08001238 	stmdaeq	r0, {r3, r4, r5, r9, ip}
 8001228:	08002bf5 	stmdaeq	r0, {r0, r2, r4, r5, r6, r7, r8, r9, fp, sp}
 800122c:	08000da5 	stmdaeq	r0, {r0, r2, r5, r7, r8, sl, fp}
 8001230:	080029ad 	stmdaeq	r0, {r0, r2, r3, r5, r7, r8, fp, sp}
 8001234:	0800277b 	stmdaeq	r0, {r0, r1, r3, r4, r5, r6, r8, r9, sl, sp}
 8001238:	08002ac5 	stmdaeq	r0, {r0, r2, r6, r7, r9, fp, sp}
 800123c:	08000f55 	stmdaeq	r0, {r0, r2, r4, r6, r8, r9, sl, fp}
 8001240:	0800277b 	stmdaeq	r0, {r0, r1, r3, r4, r5, r6, r8, r9, sl, sp}

08001244 <BACK_SPACE>:
 8001244:	4750      	bx	sl
 8001246:	bf00      	nop
 8001248:	08001045 	stmdaeq	r0, {r0, r2, r6, ip}
 800124c:	08001265 	stmdaeq	r0, {r0, r2, r5, r6, r9, ip}
 8001250:	0800277b 	stmdaeq	r0, {r0, r1, r3, r4, r5, r6, r8, r9, sl, sp}
 8001254:	080010ec 	stmdaeq	r0, {r2, r3, r5, r6, r7, ip}

08001258 <_SHOW_CURSOR>:
 8001258:	4f48530b 	svcmi	0x0048530b
 800125c:	55432d57 	strbpl	r2, [r3, #-3415]	; 0xfffff2a9
 8001260:	524f5352 	subpl	r5, pc, #1207959553	; 0x48000001

08001264 <SHOW_CURSOR>:
 8001264:	4750      	bx	sl
 8001266:	bf00      	nop
 8001268:	0800293b 	stmdaeq	r0, {r0, r1, r3, r4, r5, r8, fp, sp}
 800126c:	000000ff 	strdeq	r0, [r0], -pc	; <UNPREDICTABLE>
 8001270:	08000da5 	stmdaeq	r0, {r0, r2, r5, r7, r8, sl, fp}
 8001274:	080029c1 	stmdaeq	r0, {r0, r6, r7, r8, fp, sp}
 8001278:	08002bf5 	stmdaeq	r0, {r0, r2, r4, r5, r6, r7, r8, r9, fp, sp}
 800127c:	08000dbd 	stmdaeq	r0, {r0, r2, r3, r4, r5, r7, r8, sl, fp}
 8001280:	0800293b 	stmdaeq	r0, {r0, r1, r3, r4, r5, r8, fp, sp}
 8001284:	000000a0 	andeq	r0, r0, r0, lsr #1
 8001288:	08002bb9 	stmdaeq	r0, {r0, r3, r4, r5, r7, r8, r9, fp, sp}
 800128c:	0800293b 	stmdaeq	r0, {r0, r1, r3, r4, r5, r8, fp, sp}
 8001290:	000000a0 	andeq	r0, r0, r0, lsr #1
 8001294:	08002ba9 	stmdaeq	r0, {r0, r3, r5, r7, r8, r9, fp, sp}
 8001298:	08000d91 	stmdaeq	r0, {r0, r4, r7, r8, sl, fp}
 800129c:	080029c1 	stmdaeq	r0, {r0, r6, r7, r8, fp, sp}
 80012a0:	08000dd5 	stmdaeq	r0, {r0, r2, r4, r6, r7, r8, sl, fp}
 80012a4:	08002c99 	stmdaeq	r0, {r0, r3, r4, r7, sl, fp, sp}
 80012a8:	08002b99 	stmdaeq	r0, {r0, r3, r4, r7, r8, r9, fp, sp}
 80012ac:	08000e05 	stmdaeq	r0, {r0, r2, r9, sl, fp}
 80012b0:	08002b99 	stmdaeq	r0, {r0, r3, r4, r7, r8, r9, fp, sp}
 80012b4:	0800293b 	stmdaeq	r0, {r0, r1, r3, r4, r5, r8, fp, sp}
 80012b8:	00000002 	andeq	r0, r0, r2
 80012bc:	08002a51 	stmdaeq	r0, {r0, r4, r6, r9, fp, sp}
 80012c0:	08002d0d 	stmdaeq	r0, {r0, r2, r3, r8, sl, fp, sp}
 80012c4:	080029cd 	stmdaeq	r0, {r0, r2, r3, r6, r7, r8, fp, sp}
 80012c8:	08002bf5 	stmdaeq	r0, {r0, r2, r4, r5, r6, r7, r8, r9, fp, sp}
 80012cc:	0800295d 	stmdaeq	r0, {r0, r2, r3, r4, r6, r8, fp, sp}
 80012d0:	080012c0 	stmdaeq	r0, {r6, r7, r9, ip}
 80012d4:	08002ce5 	stmdaeq	r0, {r0, r2, r5, r6, r7, sl, fp, sp}
 80012d8:	0800277b 	stmdaeq	r0, {r0, r1, r3, r4, r5, r6, r8, r9, sl, sp}
 80012dc:	08001258 	stmdaeq	r0, {r3, r4, r6, r9, ip}

080012e0 <_HIDE_CURSOR>:
 80012e0:	4449480b 	strbmi	r4, [r9], #-2059	; 0xfffff7f5
 80012e4:	55432d45 	strbpl	r2, [r3, #-3397]	; 0xfffff2bb
 80012e8:	524f5352 	subpl	r5, pc, #1207959553	; 0x48000001

080012ec <HIDE_CURSOR>:
 80012ec:	4750      	bx	sl
 80012ee:	bf00      	nop
 80012f0:	08000d5d 	stmdaeq	r0, {r0, r2, r3, r4, r6, r8, sl, fp}
 80012f4:	080029c1 	stmdaeq	r0, {r0, r6, r7, r8, fp, sp}
 80012f8:	08002ad5 	stmdaeq	r0, {r0, r2, r4, r6, r7, r9, fp, sp}
 80012fc:	0800293b 	stmdaeq	r0, {r0, r1, r3, r4, r5, r8, fp, sp}
 8001300:	00000004 	andeq	r0, r0, r4
 8001304:	08002b89 	stmdaeq	r0, {r0, r3, r7, r8, r9, fp, sp}
 8001308:	08002b2d 	stmdaeq	r0, {r0, r2, r3, r5, r8, r9, fp, sp}
 800130c:	0800298f 	stmdaeq	r0, {r0, r1, r2, r3, r7, r8, fp, sp}
 8001310:	08001270 	stmdaeq	r0, {r4, r5, r6, r9, ip}
 8001314:	080012e0 	stmdaeq	r0, {r5, r6, r7, r9, ip}

08001318 <_TV_AT>:
 8001318:	2d565405 	cfldrdcs	mvd5, [r6, #-20]	; 0xffffffec
 800131c:	bf005441 	svclt	0x00005441

08001320 <TV_AT>:
 8001320:	2e35      	cmp	r6, #53	; 0x35
 8001322:	d401      	bmi.n	8001328 <TV_AT+0x8>
 8001324:	f04f 0634 	mov.w	r6, #52	; 0x34
 8001328:	f8c4 6094 	str.w	r6, [r4, #148]	; 0x94
 800132c:	f857 6b04 	ldr.w	r6, [r7], #4
 8001330:	2e19      	cmp	r6, #25
 8001332:	d401      	bmi.n	8001338 <TV_AT+0x18>
 8001334:	f04f 0618 	mov.w	r6, #24
 8001338:	f8c4 6090 	str.w	r6, [r4, #144]	; 0x90
 800133c:	f857 6b04 	ldr.w	r6, [r7], #4
 8001340:	f001 ba18 	b.w	8002774 <INEXT>
 8001344:	08001318 	stmdaeq	r0, {r3, r4, r8, r9, ip}

08001348 <_INPUT>:
 8001348:	504e4905 	subpl	r4, lr, r5, lsl #18
 800134c:	bf005455 	svclt	0x00005455

08001350 <INPUT>:
 8001350:	4750      	bx	sl
 8001352:	bf00      	nop
 8001354:	08003465 	stmdaeq	r0, {r0, r2, r5, r6, sl, ip, sp}
 8001358:	08002ad5 	stmdaeq	r0, {r0, r2, r4, r6, r7, r9, fp, sp}
 800135c:	08002bf5 	stmdaeq	r0, {r0, r2, r4, r5, r6, r7, r8, r9, fp, sp}
 8001360:	0800293b 	stmdaeq	r0, {r0, r1, r3, r4, r5, r8, fp, sp}
 8001364:	00000035 	andeq	r0, r0, r5, lsr r0
 8001368:	080041d1 	stmdaeq	r0, {r0, r4, r6, r7, r8, lr}
 800136c:	08002ae5 	stmdaeq	r0, {r0, r2, r5, r6, r7, r9, fp, sp}
 8001370:	08002ac5 	stmdaeq	r0, {r0, r2, r6, r7, r9, fp, sp}
 8001374:	08002af9 	stmdaeq	r0, {r0, r3, r4, r5, r6, r7, r9, fp, sp}
 8001378:	080029cd 	stmdaeq	r0, {r0, r2, r3, r6, r7, r8, fp, sp}
 800137c:	0800277b 	stmdaeq	r0, {r0, r1, r3, r4, r5, r6, r8, r9, sl, sp}
 8001380:	08005234 	stmdaeq	r0, {r2, r4, r5, r9, ip, lr}
 8001384:	08000e9c 	stmdaeq	r0, {r2, r3, r4, r7, r9, sl, fp}
 8001388:	08000f54 	stmdaeq	r0, {r2, r4, r6, r8, r9, sl, fp}

0800138c <sc_ascii>:
 800138c:	6232611c 	eorsvs	r6, r2, #28, 2
 8001390:	64236321 	strtvs	r6, [r3], #-801	; 0xfffffcdf
 8001394:	662b6524 	strtvs	r6, [fp], -r4, lsr #10
 8001398:	68336734 	ldmdavs	r3!, {r2, r4, r5, r8, r9, sl, sp, lr}
 800139c:	6a3b6943 	bvs	8edb8b0 <OPTKEY1+0xd48e75>
 80013a0:	6c4b6b42 	mcrrvs	11, 4, r6, fp, cr2
 80013a4:	6e316d3a 	mrcvs	13, 1, r6, cr1, cr10, {1}
 80013a8:	704d6f44 	subvc	r6, sp, r4, asr #30
 80013ac:	722d7115 	eorvc	r7, sp, #1073741829	; 0x40000005
 80013b0:	742c731b 	strtvc	r7, [ip], #-795	; 0xfffffce5
 80013b4:	762a753c 			; <UNDEFINED> instruction: 0x762a753c
 80013b8:	7822771d 	stmdavc	r2!, {r0, r2, r3, r4, r8, r9, sl, ip, sp, lr}
 80013bc:	7a1a7935 	bvc	869f898 <OPTKEY1+0x50ce5d>
 80013c0:	31163045 	tstcc	r6, r5, asr #32
 80013c4:	3326321e 			; <UNDEFINED> instruction: 0x3326321e
 80013c8:	352e3425 	strcc	r3, [lr, #-1061]!	; 0xfffffbdb
 80013cc:	373d3636 			; <UNDEFINED> instruction: 0x373d3636
 80013d0:	3946383e 	stmdbcc	r6, {r1, r2, r3, r4, r5, fp, ip, sp}^
 80013d4:	2d4e600e 	stclcs	0, cr6, [lr, #-56]	; 0xffffffc8
 80013d8:	5c5d3d55 	mrrcpl	13, 5, r3, sp, cr5
 80013dc:	5d5b5b54 	vldrpl	d21, [fp, #-336]	; 0xfffffeb0
 80013e0:	27523b4c 	ldrbcs	r3, [r2, -ip, asr #22]
 80013e4:	2e492c41 	cdpcs	12, 4, cr2, cr9, cr1, {2}
 80013e8:	2b792a7c 	blcs	9e4bde0 <OPTKEY1+0x1cb93a5>
 80013ec:	0d5a2029 	ldcleq	0, cr2, [sl, #-164]	; 0xffffff5c
 80013f0:	090d0866 	stmdbeq	sp, {r1, r2, r5, r6, fp}
 80013f4:	9e111b76 	vmovls.s16	r1, d1[1]
 80013f8:	9d149c12 	ldcls	12, cr9, [r4, #-72]	; 0xffffffb8
 80013fc:	9a77a47e 	bls	9dea5fc <OPTKEY1+0x1c57bc1>
 8001400:	80050058 	andhi	r0, r5, r8, asr r0
 8001404:	82048106 	andhi	r8, r4, #-2147483647	; 0x80000001
 8001408:	8403830c 	strhi	r8, [r3], #-780	; 0xfffffcf4
 800140c:	8683850b 	strhi	r8, [r3], fp, lsl #10
 8001410:	8801870a 	stmdahi	r1, {r1, r3, r8, r9, sl, pc}
 8001414:	8b788a09 	blhi	9e23c40 <OPTKEY1+0x1c91205>
 8001418:	30708c07 	rsbscc	r8, r0, r7, lsl #24
 800141c:	32723169 	rsbscc	r3, r2, #1073741850	; 0x4000001a
 8001420:	346b337a 	strbtcc	r3, [fp], #-890	; 0xfffffc86
 8001424:	36743573 			; <UNDEFINED> instruction: 0x36743573
 8001428:	3875376c 	ldmdacc	r5!, {r2, r3, r5, r6, r8, r9, sl, ip, sp}^
 800142c:	2a7c397d 	bcs	9f0fa28 <OPTKEY1+0x1d7cfed>
 8001430:	2b792f4a 	blcs	9e4d160 <OPTKEY1+0x1cba725>
 8001434:	2e712d7b 	mrccs	13, 3, r2, cr1, cr11, {3}
 8001438:	fafa0d5a 	blx	7e849a8 <FCLK+0x22f71a8>
 800143c:	0000aaaa 	andeq	sl, r0, sl, lsr #21

08001440 <shifted>:
 8001440:	42624161 	rsbmi	r4, r2, #1073741848	; 0x40000018
 8001444:	44644363 	strbtmi	r4, [r4], #-867	; 0xfffffc9d
 8001448:	46664565 	strbtmi	r4, [r6], -r5, ror #10
 800144c:	48684767 	stmdami	r8!, {r0, r1, r2, r5, r6, r8, r9, sl, lr}^
 8001450:	4a6a4969 	bmi	9a939fc <OPTKEY1+0x1900fc1>
 8001454:	4c6c4b6b 			; <UNDEFINED> instruction: 0x4c6c4b6b
 8001458:	4e6e4d6d 	cdpmi	13, 6, cr4, cr14, cr13, {3}
 800145c:	50704f6f 	rsbspl	r4, r0, pc, ror #30
 8001460:	52725171 	rsbspl	r5, r2, #1073741852	; 0x4000001c
 8001464:	54745373 	ldrbtpl	r5, [r4], #-883	; 0xfffffc8d
 8001468:	56765575 			; <UNDEFINED> instruction: 0x56765575
 800146c:	58785777 	ldmdapl	r8!, {r0, r1, r2, r4, r5, r6, r8, r9, sl, ip, lr}^
 8001470:	5a7a5979 	bpl	9e97a5c <OPTKEY1+0x1d05021>
 8001474:	40322131 	eorsmi	r2, r2, r1, lsr r1
 8001478:	24342333 	ldrtcs	r2, [r4], #-819	; 0xfffffccd
 800147c:	5e362535 	mrcpl	5, 1, r2, cr6, cr5, {1}
 8001480:	2a382637 	bcs	8e0ad64 <OPTKEY1+0xc78329>
 8001484:	29302839 	ldmdbcs	r0!, {r0, r3, r4, r5, fp, sp}
 8001488:	2b3d5f2d 	blcs	8f59144 <OPTKEY1+0xdc6709>
 800148c:	22277e60 	eorcs	r7, r7, #96, 28	; 0x600
 8001490:	3e2e3c2c 	cdpcc	12, 2, cr3, cr14, cr12, {1}
 8001494:	7c5c3f2f 	mrrcvc	15, 2, r3, ip, cr15
 8001498:	7b5b3a3b 	blvc	96cfd8c <OPTKEY1+0x153d351>
 800149c:	00007d5d 	andeq	r7, r0, sp, asr sp

080014a0 <altchar>:
 80014a0:	40325c31 	eorsmi	r5, r2, r1, lsr ip
 80014a4:	3f362f33 	svccc	0x00362f33
 80014a8:	7b397c37 	blvc	8e6058c <OPTKEY1+0xccdb51>
 80014ac:	00007d30 	andeq	r7, r0, r0, lsr sp

080014b0 <extended>:
 80014b0:	a01fa114 	andsge	sl, pc, r4, lsl r1	; <UNPREDICTABLE>
 80014b4:	a311a227 	tstge	r1, #1879048194	; 0x70000002
 80014b8:	8d75972f 	ldclhi	7, cr9, [r5, #-188]!	; 0xffffff44
 80014bc:	8f6b8e72 	svchi	0x006b8e72
 80014c0:	95709074 	ldrbls	r9, [r0, #-116]!	; 0xffffff8c
 80014c4:	937d916c 	cmnls	sp, #108, 2
 80014c8:	7f71947a 	svcvc	0x0071947a
 80014cc:	2f4a9269 	svccs	0x004a9269
 80014d0:	00120d5a 	andseq	r0, r2, sl, asr sp
 80014d4:	0000007c 	andeq	r0, r0, ip, ror r0

080014d8 <controls>:
 80014d8:	a01f0363 	andsge	r0, pc, r3, ror #6
 80014dc:	a227a114 	eorge	sl, r7, #20, 2
 80014e0:	972fa311 			; <UNDEFINED> instruction: 0x972fa311
 80014e4:	916c9570 	smcls	51536	; 0xc950
 80014e8:	7f71937d 	svcvc	0x0071937d
 80014ec:	947a9269 	ldrbtls	r9, [sl], #-617	; 0xfffffd97
 80014f0:	8f6b8d75 	svchi	0x006b8d75
 80014f4:	90748e72 	rsbsls	r8, r4, r2, ror lr
 80014f8:	0d5a2f4a 	ldcleq	15, cr2, [sl, #-296]	; 0xfffffed8
 80014fc:	9d149c12 	ldcls	12, cr9, [r4, #-72]	; 0xffffffb8
 8001500:	9f599e11 	svcls	0x00599e11
 8001504:	1b760d5a 	blne	9d84a74 <OPTKEY1+0x1bf2039>
 8001508:	9b589a77 	blls	9627eec <OPTKEY1+0x14954b1>
 800150c:	bf000000 	svclt	0x00000000

08001510 <kbd_isr>:
 8001510:	f44f 5270 	mov.w	r2, #15360	; 0x3c00
 8001514:	f2c4 0201 	movt	r2, #16385	; 0x4001
 8001518:	f44f 4000 	mov.w	r0, #32768	; 0x8000
 800151c:	6150      	str	r0, [r2, #20]
 800151e:	f44f 6300 	mov.w	r3, #2048	; 0x800
 8001522:	f2c4 0302 	movt	r3, #16386	; 0x4002
 8001526:	f8d4 0076 	ldr.w	r0, [r4, #118]	; 0x76
 800152a:	f010 0f02 	tst.w	r0, #2
 800152e:	f040 8084 	bne.w	800163a <send_bit>
 8001532:	8a18      	ldrh	r0, [r3, #16]
 8001534:	f894 1074 	ldrb.w	r1, [r4, #116]	; 0x74
 8001538:	f101 0201 	add.w	r2, r1, #1
 800153c:	f884 2074 	strb.w	r2, [r4, #116]	; 0x74
 8001540:	2900      	cmp	r1, #0
 8001542:	d015      	beq.n	8001570 <start_bit>
 8001544:	2909      	cmp	r1, #9
 8001546:	d025      	beq.n	8001594 <parity_bit>
 8001548:	290a      	cmp	r1, #10
 800154a:	d02d      	beq.n	80015a8 <stop_bit>
 800154c:	f894 2075 	ldrb.w	r2, [r4, #117]	; 0x75
 8001550:	ea4f 0252 	mov.w	r2, r2, lsr #1
 8001554:	f410 4f80 	tst.w	r0, #16384	; 0x4000
 8001558:	d007      	beq.n	800156a <kbd_isr+0x5a>
 800155a:	f042 0280 	orr.w	r2, r2, #128	; 0x80
 800155e:	f894 0077 	ldrb.w	r0, [r4, #119]	; 0x77
 8001562:	f100 0001 	add.w	r0, r0, #1
 8001566:	f884 0077 	strb.w	r0, [r4, #119]	; 0x77
 800156a:	f884 2075 	strb.w	r2, [r4, #117]	; 0x75
 800156e:	e063      	b.n	8001638 <store_code+0x3a>

08001570 <start_bit>:
 8001570:	f410 4f80 	tst.w	r0, #16384	; 0x4000
 8001574:	d160      	bne.n	8001638 <store_code+0x3a>
 8001576:	ea80 0000 	eor.w	r0, r0, r0
 800157a:	f884 0075 	strb.w	r0, [r4, #117]	; 0x75
 800157e:	f884 0077 	strb.w	r0, [r4, #119]	; 0x77
 8001582:	f894 0076 	ldrb.w	r0, [r4, #118]	; 0x76
 8001586:	f06f 0101 	mvn.w	r1, #1
 800158a:	ea00 0001 	and.w	r0, r0, r1
 800158e:	f884 0076 	strb.w	r0, [r4, #118]	; 0x76
 8001592:	e051      	b.n	8001638 <store_code+0x3a>

08001594 <parity_bit>:
 8001594:	f894 1077 	ldrb.w	r1, [r4, #119]	; 0x77
 8001598:	f410 4f80 	tst.w	r0, #16384	; 0x4000
 800159c:	d04c      	beq.n	8001638 <store_code+0x3a>
 800159e:	f101 0101 	add.w	r1, r1, #1
 80015a2:	f884 1077 	strb.w	r1, [r4, #119]	; 0x77
 80015a6:	e047      	b.n	8001638 <store_code+0x3a>

080015a8 <stop_bit>:
 80015a8:	f410 4f80 	tst.w	r0, #16384	; 0x4000
 80015ac:	d040      	beq.n	8001630 <store_code+0x32>
 80015ae:	f894 1077 	ldrb.w	r1, [r4, #119]	; 0x77
 80015b2:	f011 0f01 	tst.w	r1, #1
 80015b6:	d03b      	beq.n	8001630 <store_code+0x32>
 80015b8:	f894 0075 	ldrb.w	r0, [r4, #117]	; 0x75
 80015bc:	f894 1076 	ldrb.w	r1, [r4, #118]	; 0x76
 80015c0:	28e0      	cmp	r0, #224	; 0xe0
 80015c2:	d104      	bne.n	80015ce <stop_bit+0x26>
 80015c4:	f041 0140 	orr.w	r1, r1, #64	; 0x40
 80015c8:	f884 1076 	strb.w	r1, [r4, #118]	; 0x76
 80015cc:	e030      	b.n	8001630 <store_code+0x32>
 80015ce:	f011 0f80 	tst.w	r1, #128	; 0x80
 80015d2:	d014      	beq.n	80015fe <store_code>
 80015d4:	2858      	cmp	r0, #88	; 0x58
 80015d6:	d104      	bne.n	80015e2 <stop_bit+0x3a>
 80015d8:	f081 0104 	eor.w	r1, r1, #4
 80015dc:	f041 0101 	orr.w	r1, r1, #1
 80015e0:	e006      	b.n	80015f0 <stop_bit+0x48>
 80015e2:	b500      	push	{lr}
 80015e4:	f000 f873 	bl	80016ce <do_async_key>
 80015e8:	f85d eb04 	ldr.w	lr, [sp], #4
 80015ec:	f894 1076 	ldrb.w	r1, [r4, #118]	; 0x76
 80015f0:	f06f 02c0 	mvn.w	r2, #192	; 0xc0
 80015f4:	ea01 0102 	and.w	r1, r1, r2
 80015f8:	f884 1076 	strb.w	r1, [r4, #118]	; 0x76
 80015fc:	e018      	b.n	8001630 <store_code+0x32>

080015fe <store_code>:
 80015fe:	28f0      	cmp	r0, #240	; 0xf0
 8001600:	d104      	bne.n	800160c <store_code+0xe>
 8001602:	f041 0180 	orr.w	r1, r1, #128	; 0x80
 8001606:	f884 1076 	strb.w	r1, [r4, #118]	; 0x76
 800160a:	e011      	b.n	8001630 <store_code+0x32>
 800160c:	4601      	mov	r1, r0
 800160e:	b500      	push	{lr}
 8001610:	f000 f85d 	bl	80016ce <do_async_key>
 8001614:	f85d eb04 	ldr.w	lr, [sp], #4
 8001618:	d10a      	bne.n	8001630 <store_code+0x32>
 800161a:	f8d4 008c 	ldr.w	r0, [r4, #140]	; 0x8c
 800161e:	f104 0278 	add.w	r2, r4, #120	; 0x78
 8001622:	5411      	strb	r1, [r2, r0]
 8001624:	f100 0001 	add.w	r0, r0, #1
 8001628:	f000 000f 	and.w	r0, r0, #15
 800162c:	f884 008c 	strb.w	r0, [r4, #140]	; 0x8c
 8001630:	ea80 0000 	eor.w	r0, r0, r0
 8001634:	f8a4 0074 	strh.w	r0, [r4, #116]	; 0x74
 8001638:	4770      	bx	lr

0800163a <send_bit>:
 800163a:	f894 1074 	ldrb.w	r1, [r4, #116]	; 0x74
 800163e:	f101 0001 	add.w	r0, r1, #1
 8001642:	f884 0074 	strb.w	r0, [r4, #116]	; 0x74
 8001646:	f894 0075 	ldrb.w	r0, [r4, #117]	; 0x75
 800164a:	f44f 4280 	mov.w	r2, #16384	; 0x4000
 800164e:	2908      	cmp	r1, #8
 8001650:	d015      	beq.n	800167e <send_parity>
 8001652:	2909      	cmp	r1, #9
 8001654:	d01c      	beq.n	8001690 <send_stop>
 8001656:	290a      	cmp	r1, #10
 8001658:	d01f      	beq.n	800169a <rx_ack_bit>
 800165a:	f010 0f01 	tst.w	r0, #1
 800165e:	ea4f 0050 	mov.w	r0, r0, lsr #1
 8001662:	f884 0075 	strb.w	r0, [r4, #117]	; 0x75
 8001666:	d102      	bne.n	800166e <send_bit+0x34>
 8001668:	ea4f 4202 	mov.w	r2, r2, lsl #16
 800166c:	e005      	b.n	800167a <send_bit+0x40>
 800166e:	f894 0077 	ldrb.w	r0, [r4, #119]	; 0x77
 8001672:	f100 0001 	add.w	r0, r0, #1
 8001676:	f884 0077 	strb.w	r0, [r4, #119]	; 0x77
 800167a:	619a      	str	r2, [r3, #24]
 800167c:	e01c      	b.n	80016b8 <rx_ack_bit+0x1e>

0800167e <send_parity>:
 800167e:	f894 0077 	ldrb.w	r0, [r4, #119]	; 0x77
 8001682:	f010 0f01 	tst.w	r0, #1
 8001686:	d001      	beq.n	800168c <send_parity+0xe>
 8001688:	ea4f 4202 	mov.w	r2, r2, lsl #16
 800168c:	619a      	str	r2, [r3, #24]
 800168e:	e013      	b.n	80016b8 <rx_ack_bit+0x1e>

08001690 <send_stop>:
 8001690:	6819      	ldr	r1, [r3, #0]
 8001692:	f021 5140 	bic.w	r1, r1, #805306368	; 0x30000000
 8001696:	6019      	str	r1, [r3, #0]
 8001698:	e00e      	b.n	80016b8 <rx_ack_bit+0x1e>

0800169a <rx_ack_bit>:
 800169a:	f894 0076 	ldrb.w	r0, [r4, #118]	; 0x76
 800169e:	f06f 0102 	mvn.w	r1, #2
 80016a2:	ea00 0001 	and.w	r0, r0, r1
 80016a6:	8a19      	ldrh	r1, [r3, #16]
 80016a8:	f411 4f80 	tst.w	r1, #16384	; 0x4000
 80016ac:	f884 0076 	strb.w	r0, [r4, #118]	; 0x76
 80016b0:	ea80 0000 	eor.w	r0, r0, r0
 80016b4:	f884 0074 	strb.w	r0, [r4, #116]	; 0x74
 80016b8:	4770      	bx	lr

080016ba <is_async_key>:
 80016ba:	b402      	push	{r1}
 80016bc:	f8df 1464 	ldr.w	r1, [pc, #1124]	; 8001b24 <WKEY+0x1c>
 80016c0:	b500      	push	{lr}
 80016c2:	f000 f89f 	bl	8001804 <table_scan>
 80016c6:	f85d eb04 	ldr.w	lr, [sp], #4
 80016ca:	bc02      	pop	{r1}
 80016cc:	4770      	bx	lr

080016ce <do_async_key>:
 80016ce:	b500      	push	{lr}
 80016d0:	f7ff fff3 	bl	80016ba <is_async_key>
 80016d4:	f85d eb04 	ldr.w	lr, [sp], #4
 80016d8:	28ff      	cmp	r0, #255	; 0xff
 80016da:	d101      	bne.n	80016e0 <set_async_key>
 80016dc:	2000      	movs	r0, #0
 80016de:	4770      	bx	lr

080016e0 <set_async_key>:
 80016e0:	b406      	push	{r1, r2}
 80016e2:	f894 2076 	ldrb.w	r2, [r4, #118]	; 0x76
 80016e6:	f8df 1440 	ldr.w	r1, [pc, #1088]	; 8001b28 <WKEY+0x20>
 80016ea:	e8d1 f000 	tbb	[r1, r0]

080016ee <shift_key>:
 80016ee:	f04f 0008 	mov.w	r0, #8
 80016f2:	e004      	b.n	80016fe <set_reset>

080016f4 <ctrl_key>:
 80016f4:	f04f 0010 	mov.w	r0, #16
 80016f8:	e001      	b.n	80016fe <set_reset>

080016fa <alt_key>:
 80016fa:	f04f 0020 	mov.w	r0, #32

080016fe <set_reset>:
 80016fe:	f012 0f80 	tst.w	r2, #128	; 0x80
 8001702:	d004      	beq.n	800170e <set_reset+0x10>
 8001704:	ea6f 0000 	mvn.w	r0, r0
 8001708:	ea02 0200 	and.w	r2, r2, r0
 800170c:	e001      	b.n	8001712 <set_reset+0x14>
 800170e:	ea42 0200 	orr.w	r2, r2, r0
 8001712:	f884 2076 	strb.w	r2, [r4, #118]	; 0x76
 8001716:	f05f 30ff 	movs.w	r0, #4294967295	; 0xffffffff
 800171a:	bc06      	pop	{r1, r2}
 800171c:	4770      	bx	lr

0800171e <async_keys>:
 800171e:	00590012 	subseq	r0, r9, r2, lsl r0
 8001722:	01140114 	tsteq	r4, r4, lsl r1
 8001726:	02110211 	andseq	r0, r1, #268435457	; 0x10000001
 800172a:	 	movweq	pc, #3840	; 0xf00	; <UNPREDICTABLE>

0800172c <async_jump>:
 800172c:	00060300 	andeq	r0, r6, r0, lsl #6

08001730 <kbd_init>:
 8001730:	f44f 6300 	mov.w	r3, #2048	; 0x800
 8001734:	f2c4 0302 	movt	r3, #16386	; 0x4002
 8001738:	4618      	mov	r0, r3
 800173a:	f04f 010f 	mov.w	r1, #15
 800173e:	f04f 0200 	mov.w	r2, #0
 8001742:	b500      	push	{lr}
 8001744:	f7ff f80f 	bl	8000766 <gpio_config>
 8001748:	f85d eb04 	ldr.w	lr, [sp], #4
 800174c:	4618      	mov	r0, r3
 800174e:	f04f 010e 	mov.w	r1, #14
 8001752:	f04f 0200 	mov.w	r2, #0
 8001756:	b500      	push	{lr}
 8001758:	f7ff f805 	bl	8000766 <gpio_config>
 800175c:	f85d eb04 	ldr.w	lr, [sp], #4
 8001760:	f44f 5260 	mov.w	r2, #14336	; 0x3800
 8001764:	f2c4 0201 	movt	r2, #16385	; 0x4001
 8001768:	f44f 5000 	mov.w	r0, #8192	; 0x2000
 800176c:	8290      	strh	r0, [r2, #20]
 800176e:	f44f 5270 	mov.w	r2, #15360	; 0x3c00
 8001772:	f2c4 0201 	movt	r2, #16385	; 0x4001
 8001776:	f44f 4000 	mov.w	r0, #32768	; 0x8000
 800177a:	6010      	str	r0, [r2, #0]
 800177c:	60d0      	str	r0, [r2, #12]
 800177e:	ea80 0000 	eor.w	r0, r0, r0
 8001782:	f8c4 0088 	str.w	r0, [r4, #136]	; 0x88
 8001786:	f8c4 008c 	str.w	r0, [r4, #140]	; 0x8c
 800178a:	f04f 0028 	mov.w	r0, #40	; 0x28
 800178e:	f04f 0101 	mov.w	r1, #1
 8001792:	b500      	push	{lr}
 8001794:	f7fe ffa2 	bl	80006dc <nvic_set_priority>
 8001798:	f85d eb04 	ldr.w	lr, [sp], #4
 800179c:	f04f 0028 	mov.w	r0, #40	; 0x28
 80017a0:	b500      	push	{lr}
 80017a2:	f7fe ffb4 	bl	800070e <nvic_enable_irq>
 80017a6:	f85d eb04 	ldr.w	lr, [sp], #4
 80017aa:	4770      	bx	lr
 80017ac:	08001348 	stmdaeq	r0, {r3, r6, r8, r9, ip}

080017b0 <_KEY_ASYNC>:
 80017b0:	59454b09 	stmdbpl	r5, {r0, r3, r8, r9, fp, lr}^
 80017b4:	5953412d 	ldmdbpl	r3, {r0, r2, r3, r5, r8, lr}^
 80017b8:	bf00434e 	svclt	0x0000434e

080017bc <KEY_ASYNC>:
 80017bc:	f847 6d04 	str.w	r6, [r7, #-4]!
 80017c0:	f894 6076 	ldrb.w	r6, [r4, #118]	; 0x76
 80017c4:	f006 06fc 	and.w	r6, r6, #252	; 0xfc
 80017c8:	f000 bfd4 	b.w	8002774 <INEXT>

080017cc <keycode>:
 80017cc:	b40e      	push	{r1, r2, r3}
 80017ce:	ea80 0000 	eor.w	r0, r0, r0
 80017d2:	f104 0378 	add.w	r3, r4, #120	; 0x78
 80017d6:	f8d4 1088 	ldr.w	r1, [r4, #136]	; 0x88
 80017da:	f8d4 208c 	ldr.w	r2, [r4, #140]	; 0x8c
 80017de:	4291      	cmp	r1, r2
 80017e0:	d006      	beq.n	80017f0 <keycode+0x24>
 80017e2:	5c58      	ldrb	r0, [r3, r1]
 80017e4:	f101 0101 	add.w	r1, r1, #1
 80017e8:	f001 010f 	and.w	r1, r1, #15
 80017ec:	f8c4 1088 	str.w	r1, [r4, #136]	; 0x88
 80017f0:	bc0e      	pop	{r1, r2, r3}
 80017f2:	4770      	bx	lr

080017f4 <wait_code>:
 80017f4:	b500      	push	{lr}
 80017f6:	f7ff ffe9 	bl	80017cc <keycode>
 80017fa:	f85d eb04 	ldr.w	lr, [sp], #4
 80017fe:	0000      	movs	r0, r0
 8001800:	d0f8      	beq.n	80017f4 <wait_code>
 8001802:	4770      	bx	lr

08001804 <table_scan>:
 8001804:	b404      	push	{r2}
 8001806:	f811 2b01 	ldrb.w	r2, [r1], #1
 800180a:	b122      	cbz	r2, 8001816 <table_scan+0x12>
 800180c:	4282      	cmp	r2, r0
 800180e:	d002      	beq.n	8001816 <table_scan+0x12>
 8001810:	f101 0101 	add.w	r1, r1, #1
 8001814:	e7f7      	b.n	8001806 <table_scan+0x2>
 8001816:	7808      	ldrb	r0, [r1, #0]
 8001818:	0000      	movs	r0, r0
 800181a:	bc04      	pop	{r2}
 800181c:	4770      	bx	lr
 800181e:	080017b0 	stmdaeq	r0, {r4, r5, r7, r8, r9, sl, ip}

08001822 <_PS2_QKEY>:
 8001822:	32535008 	subscc	r5, r3, #8
 8001826:	59454b2d 	stmdbpl	r5, {r0, r2, r3, r5, r8, r9, fp, lr}^
 800182a:	 			; <UNDEFINED> instruction: 0xf847003f

0800182c <PS2_QKEY>:
 800182c:	f847 6d04 	str.w	r6, [r7, #-4]!
 8001830:	ea86 0606 	eor.w	r6, r6, r6
 8001834:	49bd      	ldr	r1, [pc, #756]	; (8001b2c <WKEY+0x24>)
 8001836:	f894 0076 	ldrb.w	r0, [r4, #118]	; 0x76
 800183a:	f04f 0240 	mov.w	r2, #64	; 0x40
 800183e:	4210      	tst	r0, r2
 8001840:	d000      	beq.n	8001844 <PS2_QKEY+0x18>
 8001842:	49bb      	ldr	r1, [pc, #748]	; (8001b30 <WKEY+0x28>)
 8001844:	b500      	push	{lr}
 8001846:	f7ff ffc1 	bl	80017cc <keycode>
 800184a:	f85d eb04 	ldr.w	lr, [sp], #4
 800184e:	b198      	cbz	r0, 8001878 <inkey_exit>
 8001850:	28e1      	cmp	r0, #225	; 0xe1
 8001852:	d013      	beq.n	800187c <pause_key>
 8001854:	b500      	push	{lr}
 8001856:	f7ff ffd5 	bl	8001804 <table_scan>
 800185a:	f85d eb04 	ldr.w	lr, [sp], #4
 800185e:	4606      	mov	r6, r0
 8001860:	b500      	push	{lr}
 8001862:	f000 f816 	bl	8001892 <do_modifiers>
 8001866:	f85d eb04 	ldr.w	lr, [sp], #4
 800186a:	2e03      	cmp	r6, #3
 800186c:	f43e ae44 	beq.w	80004f8 <user_reboot>
 8001870:	f847 6d04 	str.w	r6, [r7, #-4]!
 8001874:	f04f 36ff 	mov.w	r6, #4294967295	; 0xffffffff

08001878 <inkey_exit>:
 8001878:	f000 bf7c 	b.w	8002774 <INEXT>

0800187c <pause_key>:
 800187c:	f04f 0107 	mov.w	r1, #7
 8001880:	b500      	push	{lr}
 8001882:	f7ff ffb7 	bl	80017f4 <wait_code>
 8001886:	f85d eb04 	ldr.w	lr, [sp], #4
 800188a:	3901      	subs	r1, #1
 800188c:	d1f8      	bne.n	8001880 <pause_key+0x4>
 800188e:	f000 bf71 	b.w	8002774 <INEXT>

08001892 <do_modifiers>:
 8001892:	f894 0076 	ldrb.w	r0, [r4, #118]	; 0x76
 8001896:	f010 0f08 	tst.w	r0, #8
 800189a:	d106      	bne.n	80018aa <shift_down>
 800189c:	f010 0f20 	tst.w	r0, #32
 80018a0:	d106      	bne.n	80018b0 <altchar_down>
 80018a2:	f010 0f10 	tst.w	r0, #16
 80018a6:	d106      	bne.n	80018b6 <ctrl_down>
 80018a8:	e00d      	b.n	80018c6 <ctrl_down+0x10>

080018aa <shift_down>:
 80018aa:	4630      	mov	r0, r6
 80018ac:	49a1      	ldr	r1, [pc, #644]	; (8001b34 <WKEY+0x2c>)
 80018ae:	e004      	b.n	80018ba <ctrl_down+0x4>

080018b0 <altchar_down>:
 80018b0:	4630      	mov	r0, r6
 80018b2:	49a1      	ldr	r1, [pc, #644]	; (8001b38 <WKEY+0x30>)
 80018b4:	e001      	b.n	80018ba <ctrl_down+0x4>

080018b6 <ctrl_down>:
 80018b6:	4630      	mov	r0, r6
 80018b8:	49a0      	ldr	r1, [pc, #640]	; (8001b3c <WKEY+0x34>)
 80018ba:	b500      	push	{lr}
 80018bc:	f7ff ffa2 	bl	8001804 <table_scan>
 80018c0:	f85d eb04 	ldr.w	lr, [sp], #4
 80018c4:	4606      	mov	r6, r0
 80018c6:	b500      	push	{lr}
 80018c8:	f000 f803 	bl	80018d2 <do_capslock>
 80018cc:	f85d eb04 	ldr.w	lr, [sp], #4
 80018d0:	4770      	bx	lr

080018d2 <do_capslock>:
 80018d2:	f894 0076 	ldrb.w	r0, [r4, #118]	; 0x76
 80018d6:	f010 0f04 	tst.w	r0, #4
 80018da:	d00b      	beq.n	80018f4 <do_capslock+0x22>
 80018dc:	2e41      	cmp	r6, #65	; 0x41
 80018de:	d409      	bmi.n	80018f4 <do_capslock+0x22>
 80018e0:	2e5b      	cmp	r6, #91	; 0x5b
 80018e2:	d403      	bmi.n	80018ec <do_capslock+0x1a>
 80018e4:	2e61      	cmp	r6, #97	; 0x61
 80018e6:	d405      	bmi.n	80018f4 <do_capslock+0x22>
 80018e8:	2e7b      	cmp	r6, #123	; 0x7b
 80018ea:	d503      	bpl.n	80018f4 <do_capslock+0x22>
 80018ec:	f04f 0020 	mov.w	r0, #32
 80018f0:	ea86 0600 	eor.w	r6, r6, r0
 80018f4:	4770      	bx	lr

080018f6 <kbd_send>:
 80018f6:	b40f      	push	{r0, r1, r2, r3}
 80018f8:	6ea0      	ldr	r0, [r4, #104]	; 0x68
 80018fa:	2801      	cmp	r0, #1
 80018fc:	d1fc      	bne.n	80018f8 <kbd_send+0x2>
 80018fe:	f04f 001d 	mov.w	r0, #29
 8001902:	b500      	push	{lr}
 8001904:	f7fe ff18 	bl	8000738 <nvic_disable_irq>
 8001908:	f85d eb04 	ldr.w	lr, [sp], #4
 800190c:	f44f 6300 	mov.w	r3, #2048	; 0x800
 8001910:	f2c4 0302 	movt	r3, #16386	; 0x4002
 8001914:	4618      	mov	r0, r3
 8001916:	f04f 010f 	mov.w	r1, #15
 800191a:	f04f 0211 	mov.w	r2, #17
 800191e:	b500      	push	{lr}
 8001920:	f7fe ff21 	bl	8000766 <gpio_config>
 8001924:	f85d eb04 	ldr.w	lr, [sp], #4
 8001928:	4618      	mov	r0, r3
 800192a:	f04f 010f 	mov.w	r1, #15
 800192e:	ea82 0202 	eor.w	r2, r2, r2
 8001932:	b500      	push	{lr}
 8001934:	f7fe ff6d 	bl	8000812 <gpio_out>
 8001938:	f85d eb04 	ldr.w	lr, [sp], #4
 800193c:	f44f 50e1 	mov.w	r0, #7200	; 0x1c20
 8001940:	3801      	subs	r0, #1
 8001942:	d1fd      	bne.n	8001940 <kbd_send+0x4a>
 8001944:	bc01      	pop	{r0}
 8001946:	f884 0075 	strb.w	r0, [r4, #117]	; 0x75
 800194a:	f8d4 0076 	ldr.w	r0, [r4, #118]	; 0x76
 800194e:	f040 0002 	orr.w	r0, r0, #2
 8001952:	f884 0076 	strb.w	r0, [r4, #118]	; 0x76
 8001956:	ea80 0000 	eor.w	r0, r0, r0
 800195a:	f884 0074 	strb.w	r0, [r4, #116]	; 0x74
 800195e:	f884 0077 	strb.w	r0, [r4, #119]	; 0x77
 8001962:	4618      	mov	r0, r3
 8001964:	f04f 010e 	mov.w	r1, #14
 8001968:	f04f 0211 	mov.w	r2, #17
 800196c:	b500      	push	{lr}
 800196e:	f7fe fefa 	bl	8000766 <gpio_config>
 8001972:	f85d eb04 	ldr.w	lr, [sp], #4
 8001976:	4618      	mov	r0, r3
 8001978:	f04f 010e 	mov.w	r1, #14
 800197c:	ea82 0202 	eor.w	r2, r2, r2
 8001980:	b500      	push	{lr}
 8001982:	f7fe ff46 	bl	8000812 <gpio_out>
 8001986:	f85d eb04 	ldr.w	lr, [sp], #4
 800198a:	4618      	mov	r0, r3
 800198c:	f04f 010f 	mov.w	r1, #15
 8001990:	f04f 0200 	mov.w	r2, #0
 8001994:	b500      	push	{lr}
 8001996:	f7fe fee6 	bl	8000766 <gpio_config>
 800199a:	f85d eb04 	ldr.w	lr, [sp], #4
 800199e:	f04f 000a 	mov.w	r0, #10
 80019a2:	60e0      	str	r0, [r4, #12]
 80019a4:	68e0      	ldr	r0, [r4, #12]
 80019a6:	b120      	cbz	r0, 80019b2 <kbd_send+0xbc>
 80019a8:	f894 0076 	ldrb.w	r0, [r4, #118]	; 0x76
 80019ac:	f010 0f02 	tst.w	r0, #2
 80019b0:	d1f8      	bne.n	80019a4 <kbd_send+0xae>
 80019b2:	f04f 001d 	mov.w	r0, #29
 80019b6:	b500      	push	{lr}
 80019b8:	f7fe fea9 	bl	800070e <nvic_enable_irq>
 80019bc:	f85d eb04 	ldr.w	lr, [sp], #4
 80019c0:	f894 0076 	ldrb.w	r0, [r4, #118]	; 0x76
 80019c4:	f020 0102 	bic.w	r1, r0, #2
 80019c8:	f884 1076 	strb.w	r1, [r4, #118]	; 0x76
 80019cc:	f000 0002 	and.w	r0, r0, #2
 80019d0:	b148      	cbz	r0, 80019e6 <kbd_send+0xf0>
 80019d2:	6819      	ldr	r1, [r3, #0]
 80019d4:	f021 5140 	bic.w	r1, r1, #805306368	; 0x30000000
 80019d8:	6019      	str	r1, [r3, #0]
 80019da:	ea80 0000 	eor.w	r0, r0, r0
 80019de:	f884 0074 	strb.w	r0, [r4, #116]	; 0x74
 80019e2:	ea6f 0000 	mvn.w	r0, r0
 80019e6:	bc0e      	pop	{r1, r2, r3}
 80019e8:	4770      	bx	lr

080019ea <kbd_clear_queue>:
 80019ea:	ea80 0000 	eor.w	r0, r0, r0
 80019ee:	f8c4 0088 	str.w	r0, [r4, #136]	; 0x88
 80019f2:	f8c4 008c 	str.w	r0, [r4, #140]	; 0x8c
 80019f6:	f894 0076 	ldrb.w	r0, [r4, #118]	; 0x76
 80019fa:	f06f 0103 	mvn.w	r1, #3
 80019fe:	ea00 0001 	and.w	r0, r0, r1
 8001a02:	f884 0076 	strb.w	r0, [r4, #118]	; 0x76
 8001a06:	4770      	bx	lr
 8001a08:	08001822 	stmdaeq	r0, {r1, r5, fp, ip}

08001a0c <_KBD_RST>:
 8001a0c:	44424b07 	strbmi	r4, [r2], #-2823	; 0xfffff4f9
 8001a10:	5453522d 	ldrbpl	r5, [r3], #-557	; 0xfffffdd3

08001a14 <KBD_RST>:
 8001a14:	f04f 00ff 	mov.w	r0, #255	; 0xff
 8001a18:	b500      	push	{lr}
 8001a1a:	f7ff ff6c 	bl	80018f6 <kbd_send>
 8001a1e:	f85d eb04 	ldr.w	lr, [sp], #4
 8001a22:	b9b8      	cbnz	r0, 8001a54 <KBD_RST+0x40>
 8001a24:	b500      	push	{lr}
 8001a26:	f7ff ffe0 	bl	80019ea <kbd_clear_queue>
 8001a2a:	f85d eb04 	ldr.w	lr, [sp], #4
 8001a2e:	b500      	push	{lr}
 8001a30:	f7ff fee0 	bl	80017f4 <wait_code>
 8001a34:	f85d eb04 	ldr.w	lr, [sp], #4
 8001a38:	28fe      	cmp	r0, #254	; 0xfe
 8001a3a:	d0eb      	beq.n	8001a14 <KBD_RST>
 8001a3c:	f44f 70fa 	mov.w	r0, #500	; 0x1f4
 8001a40:	60e0      	str	r0, [r4, #12]
 8001a42:	b500      	push	{lr}
 8001a44:	f7ff fec2 	bl	80017cc <keycode>
 8001a48:	f85d eb04 	ldr.w	lr, [sp], #4
 8001a4c:	b910      	cbnz	r0, 8001a54 <KBD_RST+0x40>
 8001a4e:	68e0      	ldr	r0, [r4, #12]
 8001a50:	2800      	cmp	r0, #0
 8001a52:	d1f6      	bne.n	8001a42 <KBD_RST+0x2e>
 8001a54:	f847 6d04 	str.w	r6, [r7, #-4]!
 8001a58:	4606      	mov	r6, r0
 8001a5a:	f000 be8b 	b.w	8002774 <INEXT>
 8001a5e:	08001a0c 	stmdaeq	r0, {r2, r3, r9, fp, ip}

08001a62 <_KBD_LED>:
 8001a62:	44424b07 	strbmi	r4, [r2], #-2823	; 0xfffff4f9
 8001a66:	44454c2d 	strbmi	r4, [r5], #-3117	; 0xfffff3d3
 8001a6a:	bf00      	nop

08001a6c <KBD_LED>:
 8001a6c:	b500      	push	{lr}
 8001a6e:	f7ff ffbc 	bl	80019ea <kbd_clear_queue>
 8001a72:	f85d eb04 	ldr.w	lr, [sp], #4
 8001a76:	f04f 00ed 	mov.w	r0, #237	; 0xed
 8001a7a:	b500      	push	{lr}
 8001a7c:	f7ff ff3b 	bl	80018f6 <kbd_send>
 8001a80:	f85d eb04 	ldr.w	lr, [sp], #4
 8001a84:	b500      	push	{lr}
 8001a86:	f7ff feb5 	bl	80017f4 <wait_code>
 8001a8a:	f85d eb04 	ldr.w	lr, [sp], #4
 8001a8e:	28fe      	cmp	r0, #254	; 0xfe
 8001a90:	d0ec      	beq.n	8001a6c <KBD_LED>
 8001a92:	28fa      	cmp	r0, #250	; 0xfa
 8001a94:	d1f6      	bne.n	8001a84 <KBD_LED+0x18>
 8001a96:	4630      	mov	r0, r6
 8001a98:	f000 0007 	and.w	r0, r0, #7
 8001a9c:	b500      	push	{lr}
 8001a9e:	f7ff ff2a 	bl	80018f6 <kbd_send>
 8001aa2:	f85d eb04 	ldr.w	lr, [sp], #4
 8001aa6:	b500      	push	{lr}
 8001aa8:	f7ff fea4 	bl	80017f4 <wait_code>
 8001aac:	f85d eb04 	ldr.w	lr, [sp], #4
 8001ab0:	28fe      	cmp	r0, #254	; 0xfe
 8001ab2:	d0f0      	beq.n	8001a96 <KBD_LED+0x2a>
 8001ab4:	28fa      	cmp	r0, #250	; 0xfa
 8001ab6:	d1f6      	bne.n	8001aa6 <KBD_LED+0x3a>
 8001ab8:	f857 6b04 	ldr.w	r6, [r7], #4
 8001abc:	f000 be5a 	b.w	8002774 <INEXT>
 8001ac0:	08001a62 	stmdaeq	r0, {r1, r5, r6, r9, fp, ip}

08001ac4 <_CAPS_LED>:
 8001ac4:	50414308 	subpl	r4, r1, r8, lsl #6
 8001ac8:	454c2d53 	strbmi	r2, [ip, #-3411]	; 0xfffff2ad
 8001acc:	bf000044 	svclt	0x00000044

08001ad0 <CAPS_LED>:
 8001ad0:	f894 0076 	ldrb.w	r0, [r4, #118]	; 0x76
 8001ad4:	f010 0f01 	tst.w	r0, #1
 8001ad8:	d101      	bne.n	8001ade <CAPS_LED+0xe>
 8001ada:	f000 be4b 	b.w	8002774 <INEXT>
 8001ade:	f847 6d04 	str.w	r6, [r7, #-4]!
 8001ae2:	f06f 0101 	mvn.w	r1, #1
 8001ae6:	ea00 0001 	and.w	r0, r0, r1
 8001aea:	f884 0076 	strb.w	r0, [r4, #118]	; 0x76
 8001aee:	f000 0604 	and.w	r6, r0, #4
 8001af2:	4d13      	ldr	r5, [pc, #76]	; (8001b40 <WKEY+0x38>)
 8001af4:	f045 0501 	orr.w	r5, r5, #1
 8001af8:	e7b8      	b.n	8001a6c <KBD_LED>
 8001afa:	08001ac4 	stmdaeq	r0, {r2, r6, r7, r9, fp, ip}

08001afe <_WKEY>:
 8001afe:	49415708 	stmdbmi	r1, {r3, r8, r9, sl, ip, lr}^
 8001b02:	454b2d54 	strbmi	r2, [fp, #-3412]	; 0xfffff2ac
 8001b06:	 			; <UNDEFINED> instruction: 0x47500059

08001b08 <WKEY>:
 8001b08:	4750      	bx	sl
 8001b0a:	bf00      	nop
 8001b0c:	08001ad1 	stmdaeq	r0, {r0, r4, r6, r7, r9, fp, ip}
 8001b10:	0800182d 	stmdaeq	r0, {r0, r2, r3, r5, fp, ip}
 8001b14:	08002ca9 	stmdaeq	r0, {r0, r3, r5, r7, sl, fp, sp}
 8001b18:	0800297b 	stmdaeq	r0, {r0, r1, r3, r4, r5, r6, r8, fp, sp}
 8001b1c:	08001b0c 	stmdaeq	r0, {r2, r3, r8, r9, fp, ip}
 8001b20:	0800277b 	stmdaeq	r0, {r0, r1, r3, r4, r5, r6, r8, r9, sl, sp}
 8001b24:	0800171e 	stmdaeq	r0, {r1, r2, r3, r4, r8, r9, sl, ip}
 8001b28:	0800172c 	stmdaeq	r0, {r2, r3, r5, r8, r9, sl, ip}
 8001b2c:	0800138c 	stmdaeq	r0, {r2, r3, r7, r8, r9, ip}
 8001b30:	080014b0 	stmdaeq	r0, {r4, r5, r7, sl, ip}
 8001b34:	08001440 	stmdaeq	r0, {r6, sl, ip}
 8001b38:	080014a0 	stmdaeq	r0, {r5, r7, sl, ip}
 8001b3c:	080014d8 	stmdaeq	r0, {r3, r4, r6, r7, sl, ip}
 8001b40:	08001a6c 	stmdaeq	r0, {r2, r3, r5, r6, r9, fp, ip}

08001b44 <flash_spi_init>:
 8001b44:	f04f 0000 	mov.w	r0, #0
 8001b48:	f2c4 0002 	movt	r0, #16386	; 0x4002
 8001b4c:	4603      	mov	r3, r0
 8001b4e:	f04f 0104 	mov.w	r1, #4
 8001b52:	f04f 0201 	mov.w	r2, #1
 8001b56:	b500      	push	{lr}
 8001b58:	f7fe fe05 	bl	8000766 <gpio_config>
 8001b5c:	f85d eb04 	ldr.w	lr, [sp], #4
 8001b60:	4618      	mov	r0, r3
 8001b62:	f04f 0104 	mov.w	r1, #4
 8001b66:	f04f 0201 	mov.w	r2, #1
 8001b6a:	b500      	push	{lr}
 8001b6c:	f7fe fe51 	bl	8000812 <gpio_out>
 8001b70:	f85d eb04 	ldr.w	lr, [sp], #4
 8001b74:	4618      	mov	r0, r3
 8001b76:	f04f 0105 	mov.w	r1, #5
 8001b7a:	f04f 0202 	mov.w	r2, #2
 8001b7e:	b500      	push	{lr}
 8001b80:	f7fe fdf1 	bl	8000766 <gpio_config>
 8001b84:	f85d eb04 	ldr.w	lr, [sp], #4
 8001b88:	4618      	mov	r0, r3
 8001b8a:	f04f 0107 	mov.w	r1, #7
 8001b8e:	f04f 0202 	mov.w	r2, #2
 8001b92:	b500      	push	{lr}
 8001b94:	f7fe fde7 	bl	8000766 <gpio_config>
 8001b98:	f85d eb04 	ldr.w	lr, [sp], #4
 8001b9c:	4618      	mov	r0, r3
 8001b9e:	f04f 0106 	mov.w	r1, #6
 8001ba2:	f04f 0202 	mov.w	r2, #2
 8001ba6:	b500      	push	{lr}
 8001ba8:	f7fe fddd 	bl	8000766 <gpio_config>
 8001bac:	f85d eb04 	ldr.w	lr, [sp], #4
 8001bb0:	f64c 40aa 	movw	r0, #52394	; 0xccaa
 8001bb4:	8118      	strh	r0, [r3, #8]
 8001bb6:	f44f 5060 	mov.w	r0, #14336	; 0x3800
 8001bba:	f2c4 0002 	movt	r0, #16386	; 0x4002
 8001bbe:	6c41      	ldr	r1, [r0, #68]	; 0x44
 8001bc0:	f441 5180 	orr.w	r1, r1, #4096	; 0x1000
 8001bc4:	6441      	str	r1, [r0, #68]	; 0x44
 8001bc6:	f44f 5040 	mov.w	r0, #12288	; 0x3000
 8001bca:	f2c4 0001 	movt	r0, #16385	; 0x4001
 8001bce:	f44f 7153 	mov.w	r1, #844	; 0x34c
 8001bd2:	8001      	strh	r1, [r0, #0]
 8001bd4:	6a19      	ldr	r1, [r3, #32]
 8001bd6:	ea80 0000 	eor.w	r0, r0, r0
 8001bda:	f2c5 5050 	movt	r0, #21840	; 0x5550
 8001bde:	ea40 0001 	orr.w	r0, r0, r1
 8001be2:	6218      	str	r0, [r3, #32]
 8001be4:	4770      	bx	lr
 8001be6:	08001afe 	stmdaeq	r0, {r1, r2, r3, r4, r5, r6, r7, r9, fp, ip}

08001bea <_CHIP_SEL>:
 8001bea:	49484308 	stmdbmi	r8, {r3, r8, r9, lr}^
 8001bee:	45532d50 	ldrbmi	r2, [r3, #-3408]	; 0xfffff2b0
 8001bf2:	 			; <UNDEFINED> instruction: 0xf04f004c

08001bf4 <CHIP_SEL>:
 8001bf4:	f04f 0000 	mov.w	r0, #0
 8001bf8:	f2c4 0002 	movt	r0, #16386	; 0x4002
 8001bfc:	f04f 0104 	mov.w	r1, #4
 8001c00:	f04f 0200 	mov.w	r2, #0
 8001c04:	b500      	push	{lr}
 8001c06:	f7fe fe04 	bl	8000812 <gpio_out>
 8001c0a:	f85d eb04 	ldr.w	lr, [sp], #4
 8001c0e:	f000 bdb1 	b.w	8002774 <INEXT>
 8001c12:	08001bea 	stmdaeq	r0, {r1, r3, r5, r6, r7, r8, r9, fp, ip}

08001c16 <_CHIP_DSEL>:
 8001c16:	49484309 	stmdbmi	r8, {r0, r3, r8, r9, lr}^
 8001c1a:	53442d50 	movtpl	r2, #19792	; 0x4d50
 8001c1e:	 			; <UNDEFINED> instruction: 0xf44f4c45

08001c20 <CHIP_DSEL>:
 8001c20:	f44f 5040 	mov.w	r0, #12288	; 0x3000
 8001c24:	f2c4 0001 	movt	r0, #16385	; 0x4001
 8001c28:	8901      	ldrh	r1, [r0, #8]
 8001c2a:	f011 0f80 	tst.w	r1, #128	; 0x80
 8001c2e:	d1fb      	bne.n	8001c28 <CHIP_DSEL+0x8>
 8001c30:	f04f 0000 	mov.w	r0, #0
 8001c34:	f2c4 0002 	movt	r0, #16386	; 0x4002
 8001c38:	f04f 0104 	mov.w	r1, #4
 8001c3c:	f04f 0201 	mov.w	r2, #1
 8001c40:	b500      	push	{lr}
 8001c42:	f7fe fde6 	bl	8000812 <gpio_out>
 8001c46:	f85d eb04 	ldr.w	lr, [sp], #4
 8001c4a:	f000 bd93 	b.w	8002774 <INEXT>
 8001c4e:	08001c16 	stmdaeq	r0, {r1, r2, r4, sl, fp, ip}

08001c52 <_RD_BYTE>:
 8001c52:	2d445207 	sfmcs	f5, 2, [r4, #-28]	; 0xffffffe4
 8001c56:	45545942 	ldrbmi	r5, [r4, #-2370]	; 0xfffff6be
 8001c5a:	bf00      	nop

08001c5c <RD_BYTE>:
 8001c5c:	f44f 5040 	mov.w	r0, #12288	; 0x3000
 8001c60:	f2c4 0001 	movt	r0, #16385	; 0x4001
 8001c64:	8901      	ldrh	r1, [r0, #8]
 8001c66:	f011 0f02 	tst.w	r1, #2
 8001c6a:	d0fb      	beq.n	8001c64 <RD_BYTE+0x8>
 8001c6c:	f06f 0100 	mvn.w	r1, #0
 8001c70:	7301      	strb	r1, [r0, #12]
 8001c72:	8901      	ldrh	r1, [r0, #8]
 8001c74:	f011 0f01 	tst.w	r1, #1
 8001c78:	d0fb      	beq.n	8001c72 <RD_BYTE+0x16>
 8001c7a:	f847 6d04 	str.w	r6, [r7, #-4]!
 8001c7e:	7b06      	ldrb	r6, [r0, #12]
 8001c80:	f000 bd78 	b.w	8002774 <INEXT>
 8001c84:	08001c52 	stmdaeq	r0, {r1, r4, r6, sl, fp, ip}

08001c88 <_WR_BYTE>:
 8001c88:	2d525707 	ldclcs	7, cr5, [r2, #-28]	; 0xffffffe4
 8001c8c:	45545942 	ldrbmi	r5, [r4, #-2370]	; 0xfffff6be

08001c90 <WR_BYTE>:
 8001c90:	f44f 5040 	mov.w	r0, #12288	; 0x3000
 8001c94:	f2c4 0001 	movt	r0, #16385	; 0x4001
 8001c98:	8901      	ldrh	r1, [r0, #8]
 8001c9a:	f011 0f02 	tst.w	r1, #2
 8001c9e:	d0fb      	beq.n	8001c98 <WR_BYTE+0x8>
 8001ca0:	7306      	strb	r6, [r0, #12]
 8001ca2:	8901      	ldrh	r1, [r0, #8]
 8001ca4:	f011 0f01 	tst.w	r1, #1
 8001ca8:	d0fb      	beq.n	8001ca2 <WR_BYTE+0x12>
 8001caa:	8981      	ldrh	r1, [r0, #12]
 8001cac:	f857 6b04 	ldr.w	r6, [r7], #4
 8001cb0:	f000 bd60 	b.w	8002774 <INEXT>
 8001cb4:	08001c88 	stmdaeq	r0, {r3, r7, sl, fp, ip}

08001cb8 <_WR_DIS>:
 8001cb8:	2d525706 	ldclcs	7, cr5, [r2, #-24]	; 0xffffffe8
 8001cbc:	00534944 	subseq	r4, r3, r4, asr #18

08001cc0 <WR_DIS>:
 8001cc0:	4750      	bx	sl
 8001cc2:	bf00      	nop
 8001cc4:	08001bf5 	stmdaeq	r0, {r0, r2, r4, r5, r6, r7, r8, r9, fp, ip}
 8001cc8:	0800293b 	stmdaeq	r0, {r0, r1, r3, r4, r5, r8, fp, sp}
 8001ccc:	00000004 	andeq	r0, r0, r4
 8001cd0:	08001c91 	stmdaeq	r0, {r0, r4, r7, sl, fp, ip}
 8001cd4:	08001c21 	stmdaeq	r0, {r0, r5, sl, fp, ip}
 8001cd8:	0800277b 	stmdaeq	r0, {r0, r1, r3, r4, r5, r6, r8, r9, sl, sp}
 8001cdc:	08001cb8 	stmdaeq	r0, {r3, r4, r5, r7, sl, fp, ip}

08001ce0 <_WR_ENBL>:
 8001ce0:	2d525707 	ldclcs	7, cr5, [r2, #-28]	; 0xffffffe4
 8001ce4:	4c424e45 	mcrrmi	14, 4, r4, r2, cr5

08001ce8 <WR_ENBL>:
 8001ce8:	4750      	bx	sl
 8001cea:	bf00      	nop
 8001cec:	08001bf5 	stmdaeq	r0, {r0, r2, r4, r5, r6, r7, r8, r9, fp, ip}
 8001cf0:	0800293b 	stmdaeq	r0, {r0, r1, r3, r4, r5, r8, fp, sp}
 8001cf4:	00000006 	andeq	r0, r0, r6
 8001cf8:	08001c91 	stmdaeq	r0, {r0, r4, r7, sl, fp, ip}
 8001cfc:	08001c21 	stmdaeq	r0, {r0, r5, sl, fp, ip}
 8001d00:	0800277b 	stmdaeq	r0, {r0, r1, r3, r4, r5, r6, r8, r9, sl, sp}
 8001d04:	08001ce0 	stmdaeq	r0, {r5, r6, r7, sl, fp, ip}

08001d08 <_RD_SR>:
 8001d08:	2d445205 	sfmcs	f5, 2, [r4, #-20]	; 0xffffffec
 8001d0c:	bf005253 	svclt	0x00005253

08001d10 <RD_SR>:
 8001d10:	4750      	bx	sl
 8001d12:	bf00      	nop
 8001d14:	08001bf5 	stmdaeq	r0, {r0, r2, r4, r5, r6, r7, r8, r9, fp, ip}
 8001d18:	0800293b 	stmdaeq	r0, {r0, r1, r3, r4, r5, r8, fp, sp}
 8001d1c:	08001d38 	stmdaeq	r0, {r3, r4, r5, r8, sl, fp, ip}
 8001d20:	08002b99 	stmdaeq	r0, {r0, r3, r4, r7, r8, r9, fp, sp}
 8001d24:	080029e1 	stmdaeq	r0, {r0, r5, r6, r7, r8, fp, sp}
 8001d28:	08001c91 	stmdaeq	r0, {r0, r4, r7, sl, fp, ip}
 8001d2c:	08001c5d 	stmdaeq	r0, {r0, r2, r3, r4, r6, sl, fp, ip}
 8001d30:	08001c21 	stmdaeq	r0, {r0, r5, sl, fp, ip}
 8001d34:	0800277b 	stmdaeq	r0, {r0, r1, r3, r4, r5, r6, r8, r9, sl, sp}

08001d38 <sr_cmd>:
 8001d38:	08153505 	ldmdaeq	r5, {r0, r2, r8, sl, ip, sp}
 8001d3c:	 	stmdaeq	r8, {r0, r2, r3, r4}

08001d3f <_SEND_ADR>:
 8001d3f:	4e455308 	cdpmi	3, 4, cr5, cr5, cr8, {0}
 8001d43:	44412d44 	strbmi	r2, [r1], #-3396	; 0xfffff2bc
 8001d47:	 	subeq	r5, r7, r2, asr r0

08001d48 <SEND_ADR>:
 8001d48:	4750      	bx	sl
 8001d4a:	bf00      	nop
 8001d4c:	08002ad5 	stmdaeq	r0, {r0, r2, r4, r6, r7, r9, fp, sp}
 8001d50:	0800293b 	stmdaeq	r0, {r0, r1, r3, r4, r5, r8, fp, sp}
 8001d54:	00000010 	andeq	r0, r0, r0, lsl r0
 8001d58:	08002b71 	stmdaeq	r0, {r0, r4, r5, r6, r8, r9, fp, sp}
 8001d5c:	08001c91 	stmdaeq	r0, {r0, r4, r7, sl, fp, ip}
 8001d60:	08002ad5 	stmdaeq	r0, {r0, r2, r4, r6, r7, r9, fp, sp}
 8001d64:	0800293b 	stmdaeq	r0, {r0, r1, r3, r4, r5, r8, fp, sp}
 8001d68:	00000008 	andeq	r0, r0, r8
 8001d6c:	08002b71 	stmdaeq	r0, {r0, r4, r5, r6, r8, r9, fp, sp}
 8001d70:	08001c91 	stmdaeq	r0, {r0, r4, r7, sl, fp, ip}
 8001d74:	08001c91 	stmdaeq	r0, {r0, r4, r7, sl, fp, ip}
 8001d78:	0800277b 	stmdaeq	r0, {r0, r1, r3, r4, r5, r6, r8, r9, sl, sp}
 8001d7c:	08001d3f 	stmdaeq	r0, {r0, r1, r2, r3, r4, r5, r8, sl, fp, ip}

08001d80 <_WAIT_DONE>:
 8001d80:	49415709 	stmdbmi	r1, {r0, r3, r8, r9, sl, ip, lr}^
 8001d84:	4f442d54 	svcmi	0x00442d54
 8001d88:	bf00454e 	svclt	0x0000454e

08001d8c <WAIT_DONE>:
 8001d8c:	4750      	bx	sl
 8001d8e:	bf00      	nop
 8001d90:	0800293b 	stmdaeq	r0, {r0, r1, r3, r4, r5, r8, fp, sp}
 8001d94:	00000000 	andeq	r0, r0, r0
 8001d98:	08001d11 	stmdaeq	r0, {r0, r4, r8, sl, fp, ip}
 8001d9c:	0800293b 	stmdaeq	r0, {r0, r1, r3, r4, r5, r8, fp, sp}
 8001da0:	00000003 	andeq	r0, r0, r3
 8001da4:	08002b19 	stmdaeq	r0, {r0, r3, r4, r8, r9, fp, sp}
 8001da8:	0800297b 	stmdaeq	r0, {r0, r1, r3, r4, r5, r6, r8, fp, sp}
 8001dac:	08001db8 	stmdaeq	r0, {r3, r4, r5, r7, r8, sl, fp, ip}
 8001db0:	0800298f 	stmdaeq	r0, {r0, r1, r2, r3, r7, r8, fp, sp}
 8001db4:	08001d90 	stmdaeq	r0, {r4, r7, r8, sl, fp, ip}
 8001db8:	0800277b 	stmdaeq	r0, {r0, r1, r3, r4, r5, r6, r8, r9, sl, sp}
 8001dbc:	08001d80 	stmdaeq	r0, {r7, r8, sl, fp, ip}

08001dc0 <_ERASE_BLK>:
 8001dc0:	41524509 	cmpmi	r2, r9, lsl #10
 8001dc4:	422d4553 	eormi	r4, sp, #348127232	; 0x14c00000
 8001dc8:	bf004b4c 	svclt	0x00004b4c

08001dcc <ERASE_BLK>:
 8001dcc:	4750      	bx	sl
 8001dce:	bf00      	nop
 8001dd0:	08001ce9 	stmdaeq	r0, {r0, r3, r5, r6, r7, sl, fp, ip}
 8001dd4:	08001bf5 	stmdaeq	r0, {r0, r2, r4, r5, r6, r7, r8, r9, fp, ip}
 8001dd8:	0800293b 	stmdaeq	r0, {r0, r1, r3, r4, r5, r8, fp, sp}
 8001ddc:	00000020 	andeq	r0, r0, r0, lsr #32
 8001de0:	08001c91 	stmdaeq	r0, {r0, r4, r7, sl, fp, ip}
 8001de4:	08001d49 	stmdaeq	r0, {r0, r3, r6, r8, sl, fp, ip}
 8001de8:	08001c21 	stmdaeq	r0, {r0, r5, sl, fp, ip}
 8001dec:	08001d8d 	stmdaeq	r0, {r0, r2, r3, r7, r8, sl, fp, ip}
 8001df0:	0800277b 	stmdaeq	r0, {r0, r1, r3, r4, r5, r6, r8, r9, sl, sp}
 8001df4:	08001dc0 	stmdaeq	r0, {r6, r7, r8, sl, fp, ip}

08001df8 <_ERASE_CHIP>:
 8001df8:	4152450a 	cmpmi	r2, sl, lsl #10
 8001dfc:	432d4553 			; <UNDEFINED> instruction: 0x432d4553
 8001e00:	00504948 	subseq	r4, r0, r8, asr #18

08001e04 <ERASE_CHIP>:
 8001e04:	4750      	bx	sl
 8001e06:	bf00      	nop
 8001e08:	08001ce9 	stmdaeq	r0, {r0, r3, r5, r6, r7, sl, fp, ip}
 8001e0c:	08001bf5 	stmdaeq	r0, {r0, r2, r4, r5, r6, r7, r8, r9, fp, ip}
 8001e10:	0800293b 	stmdaeq	r0, {r0, r1, r3, r4, r5, r8, fp, sp}
 8001e14:	00000060 	andeq	r0, r0, r0, rrx
 8001e18:	0800293b 	stmdaeq	r0, {r0, r1, r3, r4, r5, r8, fp, sp}
 8001e1c:	000000c7 	andeq	r0, r0, r7, asr #1
 8001e20:	08001c91 	stmdaeq	r0, {r0, r4, r7, sl, fp, ip}
 8001e24:	08001c91 	stmdaeq	r0, {r0, r4, r7, sl, fp, ip}
 8001e28:	08001c21 	stmdaeq	r0, {r0, r5, sl, fp, ip}
 8001e2c:	08001d8d 	stmdaeq	r0, {r0, r2, r3, r7, r8, sl, fp, ip}
 8001e30:	0800277b 	stmdaeq	r0, {r0, r1, r3, r4, r5, r6, r8, r9, sl, sp}
 8001e34:	08001df8 	stmdaeq	r0, {r3, r4, r5, r6, r7, r8, sl, fp, ip}

08001e38 <_RD_BLK>:
 8001e38:	2d445206 	sfmcs	f5, 2, [r4, #-24]	; 0xffffffe8
 8001e3c:	004b4c42 	subeq	r4, fp, r2, asr #24

08001e40 <RD_BLK>:
 8001e40:	4750      	bx	sl
 8001e42:	bf00      	nop
 8001e44:	08001bf5 	stmdaeq	r0, {r0, r2, r4, r5, r6, r7, r8, r9, fp, ip}
 8001e48:	0800293b 	stmdaeq	r0, {r0, r1, r3, r4, r5, r8, fp, sp}
 8001e4c:	00000003 	andeq	r0, r0, r3
 8001e50:	08001c91 	stmdaeq	r0, {r0, r4, r7, sl, fp, ip}
 8001e54:	08001d49 	stmdaeq	r0, {r0, r3, r6, r8, sl, fp, ip}
 8001e58:	08002a51 	stmdaeq	r0, {r0, r4, r6, r9, fp, sp}
 8001e5c:	0800298f 	stmdaeq	r0, {r0, r1, r2, r3, r7, r8, fp, sp}
 8001e60:	08001e74 	stmdaeq	r0, {r2, r4, r5, r6, r9, sl, fp, ip}
 8001e64:	08001c5d 	stmdaeq	r0, {r0, r2, r3, r4, r6, sl, fp, ip}
 8001e68:	08002af9 	stmdaeq	r0, {r0, r3, r4, r5, r6, r7, r9, fp, sp}
 8001e6c:	080029cd 	stmdaeq	r0, {r0, r2, r3, r6, r7, r8, fp, sp}
 8001e70:	08002bf5 	stmdaeq	r0, {r0, r2, r4, r5, r6, r7, r8, r9, fp, sp}
 8001e74:	0800295d 	stmdaeq	r0, {r0, r2, r3, r4, r6, r8, fp, sp}
 8001e78:	08001e64 	stmdaeq	r0, {r2, r5, r6, r9, sl, fp, ip}
 8001e7c:	08002ac5 	stmdaeq	r0, {r0, r2, r6, r7, r9, fp, sp}
 8001e80:	08001c21 	stmdaeq	r0, {r0, r5, sl, fp, ip}
 8001e84:	0800277b 	stmdaeq	r0, {r0, r1, r3, r4, r5, r6, r8, r9, sl, sp}
 8001e88:	08001e38 	stmdaeq	r0, {r3, r4, r5, r9, sl, fp, ip}

08001e8c <_WR_BLK>:
 8001e8c:	2d525706 	ldclcs	7, cr5, [r2, #-24]	; 0xffffffe8
 8001e90:	004b4c42 	subeq	r4, fp, r2, asr #24

08001e94 <WR_BLK>:
 8001e94:	4750      	bx	sl
 8001e96:	bf00      	nop
 8001e98:	08001ce9 	stmdaeq	r0, {r0, r3, r5, r6, r7, sl, fp, ip}
 8001e9c:	08001bf5 	stmdaeq	r0, {r0, r2, r4, r5, r6, r7, r8, r9, fp, ip}
 8001ea0:	0800293b 	stmdaeq	r0, {r0, r1, r3, r4, r5, r8, fp, sp}
 8001ea4:	00000002 	andeq	r0, r0, r2
 8001ea8:	08001c91 	stmdaeq	r0, {r0, r4, r7, sl, fp, ip}
 8001eac:	08001d49 	stmdaeq	r0, {r0, r3, r6, r8, sl, fp, ip}
 8001eb0:	08002a51 	stmdaeq	r0, {r0, r4, r6, r9, fp, sp}
 8001eb4:	0800298f 	stmdaeq	r0, {r0, r1, r2, r3, r7, r8, fp, sp}
 8001eb8:	08001ed4 	stmdaeq	r0, {r2, r4, r6, r7, r9, sl, fp, ip}
 8001ebc:	08002ad5 	stmdaeq	r0, {r0, r2, r4, r6, r7, r9, fp, sp}
 8001ec0:	080029e1 	stmdaeq	r0, {r0, r5, r6, r7, r8, fp, sp}
 8001ec4:	08002ad5 	stmdaeq	r0, {r0, r2, r4, r6, r7, r9, fp, sp}
 8001ec8:	08003be9 	stmdaeq	r0, {r0, r3, r5, r6, r7, r8, r9, fp, ip, sp}
 8001ecc:	08001c91 	stmdaeq	r0, {r0, r4, r7, sl, fp, ip}
 8001ed0:	08002bf5 	stmdaeq	r0, {r0, r2, r4, r5, r6, r7, r8, r9, fp, sp}
 8001ed4:	0800295d 	stmdaeq	r0, {r0, r2, r3, r4, r6, r8, fp, sp}
 8001ed8:	08001ebc 	stmdaeq	r0, {r2, r3, r4, r5, r7, r9, sl, fp, ip}
 8001edc:	08002ac5 	stmdaeq	r0, {r0, r2, r6, r7, r9, fp, sp}
 8001ee0:	08001c21 	stmdaeq	r0, {r0, r5, sl, fp, ip}
 8001ee4:	08001d8d 	stmdaeq	r0, {r0, r2, r3, r7, r8, sl, fp, ip}
 8001ee8:	0800277b 	stmdaeq	r0, {r0, r1, r3, r4, r5, r6, r8, r9, sl, sp}
 8001eec:	08001e8c 	stmdaeq	r0, {r2, r3, r7, r9, sl, fp, ip}

08001ef0 <_SEARCH_FILE>:
 8001ef0:	4145530b 	cmpmi	r5, fp, lsl #6
 8001ef4:	2d484352 	stclcs	3, cr4, [r8, #-328]	; 0xfffffeb8
 8001ef8:	454c4946 	strbmi	r4, [ip, #-2374]	; 0xfffff6ba

08001efc <SEARCH_FILE>:
 8001efc:	4750      	bx	sl
 8001efe:	bf00      	nop
 8001f00:	0800277b 	stmdaeq	r0, {r0, r1, r3, r4, r5, r6, r8, r9, sl, sp}
 8001f04:	08001ef0 	stmdaeq	r0, {r4, r5, r6, r7, r9, sl, fp, ip}

08001f08 <_ERASE_FILE>:
 8001f08:	4152450a 	cmpmi	r2, sl, lsl #10
 8001f0c:	462d4553 			; <UNDEFINED> instruction: 0x462d4553
 8001f10:	00454c49 	subeq	r4, r5, r9, asr #24

08001f14 <ERASE_FILE>:
 8001f14:	4750      	bx	sl
 8001f16:	bf00      	nop
 8001f18:	0800277b 	stmdaeq	r0, {r0, r1, r3, r4, r5, r6, r8, r9, sl, sp}
 8001f1c:	08001f08 	stmdaeq	r0, {r3, r8, r9, sl, fp, ip}

08001f20 <_DIR>:
 8001f20:	52494403 	subpl	r4, r9, #50331648	; 0x3000000

08001f24 <DIR>:
 8001f24:	4750      	bx	sl
 8001f26:	bf00      	nop
 8001f28:	0800277b 	stmdaeq	r0, {r0, r1, r3, r4, r5, r6, r8, r9, sl, sp}
 8001f2c:	08001f20 	stmdaeq	r0, {r5, r8, r9, sl, fp, ip}

08001f30 <_SAVE>:
 8001f30:	56415304 	strbpl	r5, [r1], -r4, lsl #6
 8001f34:	bf000045 	svclt	0x00000045

08001f38 <SAVE>:
 8001f38:	4750      	bx	sl
 8001f3a:	bf00      	nop
 8001f3c:	0800277b 	stmdaeq	r0, {r0, r1, r3, r4, r5, r6, r8, r9, sl, sp}
 8001f40:	08001f30 	stmdaeq	r0, {r4, r5, r8, r9, sl, fp, ip}

08001f44 <_LOAD>:
 8001f44:	414f4c04 	cmpmi	pc, r4, lsl #24
 8001f48:	bf000044 	svclt	0x00000044

08001f4c <LOAD>:
 8001f4c:	4750      	bx	sl
 8001f4e:	bf00      	nop
 8001f50:	0800277b 	stmdaeq	r0, {r0, r1, r3, r4, r5, r6, r8, r9, sl, sp}

08001f54 <fpu_init>:
 8001f54:	f8df 03a0 	ldr.w	r0, [pc, #928]	; 80022f8 <NUMBER+0x20>
 8001f58:	6801      	ldr	r1, [r0, #0]
 8001f5a:	f441 0170 	orr.w	r1, r1, #15728640	; 0xf00000
 8001f5e:	6001      	str	r1, [r0, #0]
 8001f60:	f3bf 8f4f 	dsb	sy
 8001f64:	f04f 0000 	mov.w	r0, #0
 8001f68:	ea81 0101 	eor.w	r1, r1, r1
 8001f6c:	6001      	str	r1, [r0, #0]
 8001f6e:	f3bf 8f4f 	dsb	sy
 8001f72:	f04f 0051 	mov.w	r0, #81	; 0x51
 8001f76:	b500      	push	{lr}
 8001f78:	f7fe fbc9 	bl	800070e <nvic_enable_irq>
 8001f7c:	f85d eb04 	ldr.w	lr, [sp], #4
 8001f80:	4770      	bx	lr
 8001f82:	08001f44 	stmdaeq	r0, {r2, r6, r8, r9, sl, fp, ip}

08001f86 <_FPSCR>:
 8001f86:	53504605 	cmppl	r0, #5242880	; 0x500000
 8001f8a:	 			; <UNDEFINED> instruction: 0xf8475243

08001f8c <FPSCR>:
 8001f8c:	f847 6d04 	str.w	r6, [r7, #-4]!
 8001f90:	eef1 6a10 	vmrs	r6, fpscr
 8001f94:	f3bf 8f4f 	dsb	sy
 8001f98:	e3ec      	b.n	8002774 <INEXT>
 8001f9a:	08001f86 	stmdaeq	r0, {r1, r2, r7, r8, r9, sl, fp, ip}

08001f9e <_CLR_FPSCR>:
 8001f9e:	524c4309 	subpl	r4, ip, #603979776	; 0x24000000
 8001fa2:	5350465f 	cmppl	r0, #99614720	; 0x5f00000
 8001fa6:	 	b	60168ba <FCLK+0x4890ba>

08001fa8 <CLR_FPSCR>:
 8001fa8:	ea80 0000 	eor.w	r0, r0, r0
 8001fac:	eee1 0a10 	vmsr	fpscr, r0
 8001fb0:	f3bf 8f4f 	dsb	sy
 8001fb4:	e3de      	b.n	8002774 <INEXT>
 8001fb6:	08001f9e 	stmdaeq	r0, {r1, r2, r3, r4, r7, r8, r9, sl, fp, ip}

08001fba <_TOS0>:
 8001fba:	30533e03 	subscc	r3, r3, r3, lsl #28
 8001fbe:	bf00      	nop

08001fc0 <TOS0>:
 8001fc0:	ee00 6a10 	vmov	s0, r6
 8001fc4:	f857 6b04 	ldr.w	r6, [r7], #4
 8001fc8:	e3d4      	b.n	8002774 <INEXT>
 8001fca:	08001fba 	stmdaeq	r0, {r1, r3, r4, r5, r7, r8, r9, sl, fp, ip}

08001fce <_TOS1>:
 8001fce:	31533e03 	cmpcc	r3, r3, lsl #28
 8001fd2:	bf00      	nop

08001fd4 <TOS1>:
 8001fd4:	ee00 6a90 	vmov	s1, r6
 8001fd8:	f857 6b04 	ldr.w	r6, [r7], #4
 8001fdc:	e3ca      	b.n	8002774 <INEXT>
 8001fde:	08001fce 	stmdaeq	r0, {r1, r2, r3, r6, r7, r8, r9, sl, fp, ip}

08001fe2 <_TOS2>:
 8001fe2:	32533e03 	subscc	r3, r3, #3, 28	; 0x30
 8001fe6:	bf00      	nop

08001fe8 <TOS2>:
 8001fe8:	ee01 6a10 	vmov	s2, r6
 8001fec:	f857 6b04 	ldr.w	r6, [r7], #4
 8001ff0:	e3c0      	b.n	8002774 <INEXT>
 8001ff2:	08001fe2 	stmdaeq	r0, {r1, r5, r6, r7, r8, r9, sl, fp, ip}

08001ff6 <_S0FROM>:
 8001ff6:	3e305303 	cdpcc	3, 3, cr5, cr0, cr3, {0}
 8001ffa:	bf00      	nop

08001ffc <S0FROM>:
 8001ffc:	f847 6d04 	str.w	r6, [r7, #-4]!
 8002000:	ee10 6a10 	vmov	r6, s0
 8002004:	e3b6      	b.n	8002774 <INEXT>
 8002006:	08001ff6 	stmdaeq	r0, {r1, r2, r4, r5, r6, r7, r8, r9, sl, fp, ip}

0800200a <_S1FROM>:
 800200a:	3e315303 	cdpcc	3, 3, cr5, cr1, cr3, {0}
 800200e:	bf00      	nop

08002010 <S1FROM>:
 8002010:	f847 6d04 	str.w	r6, [r7, #-4]!
 8002014:	ee10 6a90 	vmov	r6, s1
 8002018:	e3ac      	b.n	8002774 <INEXT>
 800201a:	0800200a 	stmdaeq	r0, {r1, r3, sp}

0800201e <_S2FROM>:
 800201e:	3e325303 	cdpcc	3, 3, cr5, cr2, cr3, {0}
 8002022:	bf00      	nop

08002024 <S2FROM>:
 8002024:	f847 6d04 	str.w	r6, [r7, #-4]!
 8002028:	ee11 6a10 	vmov	r6, s2
 800202c:	e3a2      	b.n	8002774 <INEXT>
 800202e:	0800201e 	stmdaeq	r0, {r1, r2, r3, r4, sp}

08002032 <_FTOS>:
 8002032:	533e4603 	teqpl	lr, #3145728	; 0x300000
 8002036:	bf00      	nop

08002038 <FTOS>:
 8002038:	ee00 6a10 	vmov	s0, r6
 800203c:	eebd 0a40 	vcvtr.s32.f32	s0, s0
 8002040:	ee10 6a10 	vmov	r6, s0
 8002044:	e396      	b.n	8002774 <INEXT>
 8002046:	08002032 	stmdaeq	r0, {r1, r4, r5, sp}

0800204a <_TRUNC>:
 800204a:	55525405 	ldrbpl	r5, [r2, #-1029]	; 0xfffffbfb
 800204e:	 	cdp	3, 0, cr4, cr0, cr14, {2}

08002050 <TRUNC>:
 8002050:	ee00 6a10 	vmov	s0, r6
 8002054:	eebd 0ac0 	vcvt.s32.f32	s0, s0
 8002058:	ee10 6a10 	vmov	r6, s0
 800205c:	e38a      	b.n	8002774 <INEXT>
 800205e:	0800204a 	stmdaeq	r0, {r1, r3, r6, sp}

08002062 <_STOF>:
 8002062:	463e5303 	ldrtmi	r5, [lr], -r3, lsl #6
 8002066:	bf00      	nop

08002068 <STOF>:
 8002068:	ee00 6a10 	vmov	s0, r6
 800206c:	eeb8 0ac0 	vcvt.f32.s32	s0, s0
 8002070:	ee10 6a10 	vmov	r6, s0
 8002074:	e37e      	b.n	8002774 <INEXT>
 8002076:	08002062 	stmdaeq	r0, {r1, r5, r6, sp}

0800207a <_FPLUS>:
 800207a:	002b4602 	eoreq	r4, fp, r2, lsl #12
 800207e:	bf00      	nop

08002080 <FPLUS>:
 8002080:	ee00 6a10 	vmov	s0, r6
 8002084:	f857 6b04 	ldr.w	r6, [r7], #4
 8002088:	ee00 6a90 	vmov	s1, r6
 800208c:	ee30 0a20 	vadd.f32	s0, s0, s1
 8002090:	ee10 6a10 	vmov	r6, s0
 8002094:	e36e      	b.n	8002774 <INEXT>
 8002096:	0800207a 	stmdaeq	r0, {r1, r3, r4, r5, r6, sp}

0800209a <_FMINUS>:
 800209a:	002d4602 	eoreq	r4, sp, r2, lsl #12
 800209e:	bf00      	nop

080020a0 <FMINUS>:
 80020a0:	ee00 6a10 	vmov	s0, r6
 80020a4:	f857 6b04 	ldr.w	r6, [r7], #4
 80020a8:	ee00 6a90 	vmov	s1, r6
 80020ac:	ee30 0ac0 	vsub.f32	s0, s1, s0
 80020b0:	ee10 6a10 	vmov	r6, s0
 80020b4:	e35e      	b.n	8002774 <INEXT>
 80020b6:	0800209a 	stmdaeq	r0, {r1, r3, r4, r7, sp}

080020ba <_FSTAR>:
 80020ba:	002a4602 	eoreq	r4, sl, r2, lsl #12
 80020be:	bf00      	nop

080020c0 <FSTAR>:
 80020c0:	ee00 6a10 	vmov	s0, r6
 80020c4:	f857 6b04 	ldr.w	r6, [r7], #4
 80020c8:	ee00 6a90 	vmov	s1, r6
 80020cc:	ee20 0a80 	vmul.f32	s0, s1, s0
 80020d0:	ee10 6a10 	vmov	r6, s0
 80020d4:	e34e      	b.n	8002774 <INEXT>
 80020d6:	080020ba 	stmdaeq	r0, {r1, r3, r4, r5, r7, sp}

080020da <_FSLH>:
 80020da:	002f4602 	eoreq	r4, pc, r2, lsl #12
 80020de:	bf00      	nop

080020e0 <FSLH>:
 80020e0:	ee00 6a10 	vmov	s0, r6
 80020e4:	f857 6b04 	ldr.w	r6, [r7], #4
 80020e8:	ee00 6a90 	vmov	s1, r6
 80020ec:	ee80 0a80 	vdiv.f32	s0, s1, s0
 80020f0:	ee10 6a10 	vmov	r6, s0
 80020f4:	e33e      	b.n	8002774 <INEXT>
 80020f6:	080020da 	stmdaeq	r0, {r1, r3, r4, r6, r7, sp}

080020fa <_FNEG>:
 80020fa:	454e4607 	strbmi	r4, [lr, #-1543]	; 0xfffff9f9
 80020fe:	45544147 	ldrbmi	r4, [r4, #-327]	; 0xfffffeb9
 8002102:	bf00      	nop

08002104 <FNEG>:
 8002104:	ee00 6a10 	vmov	s0, r6
 8002108:	eeb1 0a40 	vneg.f32	s0, s0
 800210c:	ee10 6a10 	vmov	r6, s0
 8002110:	e330      	b.n	8002774 <INEXT>
 8002112:	080020fa 	stmdaeq	r0, {r1, r3, r4, r5, r6, r7, sp}

08002116 <_FABS>:
 8002116:	42414604 	submi	r4, r1, #4, 12	; 0x400000
 800211a:	 	b	600226e <FCLK+0x474a6e>

0800211c <FABS>:
 800211c:	ea80 0000 	eor.w	r0, r0, r0
 8002120:	ea6f 0000 	mvn.w	r0, r0
 8002124:	ea4f 0050 	mov.w	r0, r0, lsr #1
 8002128:	ea06 0600 	and.w	r6, r6, r0
 800212c:	e322      	b.n	8002774 <INEXT>
 800212e:	08002116 	stmdaeq	r0, {r1, r2, r4, r8, sp}

08002132 <_SQRT>:
 8002132:	52515304 	subspl	r5, r1, #4, 6	; 0x10000000
 8002136:	 	mcr	0, 0, r0, cr0, cr4, {2}

08002138 <SQRT>:
 8002138:	ee00 6a10 	vmov	s0, r6
 800213c:	eeb1 0ac0 	vsqrt.f32	s0, s0
 8002140:	ee10 6a10 	vmov	r6, s0
 8002144:	e316      	b.n	8002774 <INEXT>
 8002146:	08002132 	stmdaeq	r0, {r1, r4, r5, r8, sp}

0800214a <_FZLESS>:
 800214a:	3c304603 	ldccc	6, cr4, [r0], #-12
 800214e:	bf00      	nop

08002150 <FZLESS>:
 8002150:	ee00 6a10 	vmov	s0, r6
 8002154:	eeb5 0a40 	vcmp.f32	s0, #0.0
 8002158:	eef1 6a10 	vmrs	r6, fpscr
 800215c:	f3bf 8f4f 	dsb	sy
 8002160:	ea4f 76e6 	mov.w	r6, r6, asr #31
 8002164:	e306      	b.n	8002774 <INEXT>
 8002166:	0800214a 	stmdaeq	r0, {r1, r3, r6, r8, sp}

0800216a <_FGREAT>:
 800216a:	003e4602 	eorseq	r4, lr, r2, lsl #12
 800216e:	bf00      	nop

08002170 <FGREAT>:
 8002170:	4750      	bx	sl
 8002172:	bf00      	nop
 8002174:	080020a1 	stmdaeq	r0, {r0, r5, r7, sp}
 8002178:	08002151 	stmdaeq	r0, {r0, r4, r6, r8, sp}
 800217c:	08002da5 	stmdaeq	r0, {r0, r2, r5, r7, r8, sl, fp, sp}
 8002180:	0800277b 	stmdaeq	r0, {r0, r1, r3, r4, r5, r6, r8, r9, sl, sp}
 8002184:	0800216a 	stmdaeq	r0, {r1, r3, r5, r6, r8, sp}

08002188 <_FLESS>:
 8002188:	003c4602 	eorseq	r4, ip, r2, lsl #12

0800218c <FLESS>:
 800218c:	4750      	bx	sl
 800218e:	bf00      	nop
 8002190:	080020a1 	stmdaeq	r0, {r0, r5, r7, sp}
 8002194:	08002151 	stmdaeq	r0, {r0, r4, r6, r8, sp}
 8002198:	0800277b 	stmdaeq	r0, {r0, r1, r3, r4, r5, r6, r8, r9, sl, sp}
 800219c:	08002188 	stmdaeq	r0, {r3, r7, r8, sp}

080021a0 <_FMIN>:
 80021a0:	494d4604 	stmdbmi	sp, {r2, r9, sl, lr}^
 80021a4:	bf00004e 	svclt	0x0000004e

080021a8 <FMIN>:
 80021a8:	4750      	bx	sl
 80021aa:	bf00      	nop
 80021ac:	08002af9 	stmdaeq	r0, {r0, r3, r4, r5, r6, r7, r9, fp, sp}
 80021b0:	08002af9 	stmdaeq	r0, {r0, r3, r4, r5, r6, r7, r9, fp, sp}
 80021b4:	08002171 	stmdaeq	r0, {r0, r4, r5, r6, r8, sp}
 80021b8:	0800297b 	stmdaeq	r0, {r0, r1, r3, r4, r5, r6, r8, fp, sp}
 80021bc:	080021c4 	stmdaeq	r0, {r2, r6, r7, r8, sp}
 80021c0:	08002ae5 	stmdaeq	r0, {r0, r2, r5, r6, r7, r9, fp, sp}
 80021c4:	08002ac5 	stmdaeq	r0, {r0, r2, r6, r7, r9, fp, sp}
 80021c8:	0800277b 	stmdaeq	r0, {r0, r1, r3, r4, r5, r6, r8, r9, sl, sp}
 80021cc:	080021a0 	stmdaeq	r0, {r5, r7, r8, sp}

080021d0 <_FMAX>:
 80021d0:	414d4604 	cmpmi	sp, r4, lsl #12
 80021d4:	bf000058 	svclt	0x00000058

080021d8 <FMAX>:
 80021d8:	4750      	bx	sl
 80021da:	bf00      	nop
 80021dc:	08002af9 	stmdaeq	r0, {r0, r3, r4, r5, r6, r7, r9, fp, sp}
 80021e0:	08002af9 	stmdaeq	r0, {r0, r3, r4, r5, r6, r7, r9, fp, sp}
 80021e4:	0800218d 	stmdaeq	r0, {r0, r2, r3, r7, r8, sp}
 80021e8:	0800297b 	stmdaeq	r0, {r0, r1, r3, r4, r5, r6, r8, fp, sp}
 80021ec:	080021f4 	stmdaeq	r0, {r2, r4, r5, r6, r7, r8, sp}
 80021f0:	08002ae5 	stmdaeq	r0, {r0, r2, r5, r6, r7, r9, fp, sp}
 80021f4:	08002ac5 	stmdaeq	r0, {r0, r2, r6, r7, r9, fp, sp}
 80021f8:	0800277b 	stmdaeq	r0, {r0, r1, r3, r4, r5, r6, r8, r9, sl, sp}
 80021fc:	080021d0 	stmdaeq	r0, {r4, r6, r7, r8, sp}

08002200 <_FSIGN>:
 8002200:	49534605 	ldmdbmi	r3, {r0, r2, r9, sl, lr}^
 8002204:	bf004e47 	svclt	0x00004e47

08002208 <FSIGN>:
 8002208:	ea80 0000 	eor.w	r0, r0, r0
 800220c:	f2c8 0000 	movt	r0, #32768	; 0x8000
 8002210:	ea06 0600 	and.w	r6, r6, r0
 8002214:	ea4f 76e6 	mov.w	r6, r6, asr #31
 8002218:	e2ac      	b.n	8002774 <INEXT>
 800221a:	08002200 	stmdaeq	r0, {r9, sp}

0800221e <_FEXP>:
 800221e:	58454604 	stmdapl	r5, {r2, r9, sl, lr}^
 8002222:	 			; <UNDEFINED> instruction: 0xf04f0050

08002224 <FEXP>:
 8002224:	f04f 0000 	mov.w	r0, #0
 8002228:	f6c7 7080 	movt	r0, #32640	; 0x7f80
 800222c:	ea06 0600 	and.w	r6, r6, r0
 8002230:	ea4f 56d6 	mov.w	r6, r6, lsr #23
 8002234:	f1a6 067f 	sub.w	r6, r6, #127	; 0x7f
 8002238:	e29c      	b.n	8002774 <INEXT>
 800223a:	0800221e 	stmdaeq	r0, {r1, r2, r3, r4, r9, sp}

0800223e <_FMANT>:
 800223e:	414d4605 	cmpmi	sp, r5, lsl #12
 8002242:	 			; <UNDEFINED> instruction: 0xf64f544e

08002244 <FMANT>:
 8002244:	f64f 70ff 	movw	r0, #65535	; 0xffff
 8002248:	f2c0 007f 	movt	r0, #127	; 0x7f
 800224c:	ea06 0600 	and.w	r6, r6, r0
 8002250:	ea80 0000 	eor.w	r0, r0, r0
 8002254:	f2c0 0080 	movt	r0, #128	; 0x80
 8002258:	ea46 0600 	orr.w	r6, r6, r0
 800225c:	e28a      	b.n	8002774 <INEXT>
 800225e:	0800223e 	stmdaeq	r0, {r1, r2, r3, r4, r5, r9, sp}

08002262 <_PI>:
 8002262:	00495002 	subeq	r5, r9, r2
 8002266:	bf00      	nop

08002268 <PI>:
 8002268:	f847 6d04 	str.w	r6, [r7, #-4]!
 800226c:	f640 76db 	movw	r6, #4059	; 0xfdb
 8002270:	f2c4 0649 	movt	r6, #16457	; 0x4049
 8002274:	e27e      	b.n	8002774 <INEXT>
 8002276:	08002262 	stmdaeq	r0, {r1, r5, r6, r9, sp}

0800227a <_LOG2>:
 800227a:	474f4c04 	strbmi	r4, [pc, -r4, lsl #24]
 800227e:	 			; <UNDEFINED> instruction: 0xf8470032

08002280 <LOG2>:
 8002280:	f847 6d04 	str.w	r6, [r7, #-4]!
 8002284:	f242 069a 	movw	r6, #8346	; 0x209a
 8002288:	f6c3 669a 	movt	r6, #16026	; 0x3e9a
 800228c:	e272      	b.n	8002774 <INEXT>
 800228e:	0800227a 	stmdaeq	r0, {r1, r3, r4, r5, r6, r9, sp}

08002292 <_LOG2TO10>:
 8002292:	474f4c07 	strbmi	r4, [pc, -r7, lsl #24]
 8002296:	30313e32 	eorscc	r3, r1, r2, lsr lr
 800229a:	bf00      	nop

0800229c <LOG2TO10>:
 800229c:	4750      	bx	sl
 800229e:	bf00      	nop
 80022a0:	08002225 	stmdaeq	r0, {r0, r2, r5, r9, sp}
 80022a4:	08002069 	stmdaeq	r0, {r0, r3, r5, r6, sp}
 80022a8:	08002281 	stmdaeq	r0, {r0, r7, r9, sp}
 80022ac:	080020c1 	stmdaeq	r0, {r0, r6, r7, sp}
 80022b0:	08002051 	stmdaeq	r0, {r0, r4, r6, sp}
 80022b4:	08002ad5 	stmdaeq	r0, {r0, r2, r4, r6, r7, r9, fp, sp}
 80022b8:	08002b09 	stmdaeq	r0, {r0, r3, r8, r9, fp, sp}
 80022bc:	0800297b 	stmdaeq	r0, {r0, r1, r3, r4, r5, r6, r8, fp, sp}
 80022c0:	080022c8 	stmdaeq	r0, {r3, r6, r7, r9, sp}
 80022c4:	08002c05 	stmdaeq	r0, {r0, r2, sl, fp, sp}
 80022c8:	0800277b 	stmdaeq	r0, {r0, r1, r3, r4, r5, r6, r8, r9, sl, sp}
 80022cc:	08002292 	stmdaeq	r0, {r1, r4, r7, r9, sp}

080022d0 <_NUMBER>:
 80022d0:	4d554e06 	ldclmi	14, cr4, [r5, #-24]	; 0xffffffe8
 80022d4:	00524542 	subseq	r4, r2, r2, asr #10

080022d8 <NUMBER>:
 80022d8:	4750      	bx	sl
 80022da:	bf00      	nop
 80022dc:	080038c1 	stmdaeq	r0, {r0, r6, r7, fp, ip, sp}
 80022e0:	08002ca9 	stmdaeq	r0, {r0, r3, r5, r7, sl, fp, sp}
 80022e4:	0800297b 	stmdaeq	r0, {r0, r1, r3, r4, r5, r6, r8, fp, sp}
 80022e8:	080022f0 	stmdaeq	r0, {r4, r5, r6, r7, r9, sp}
 80022ec:	0800277b 	stmdaeq	r0, {r0, r1, r3, r4, r5, r6, r8, r9, sl, sp}
 80022f0:	080024e5 	stmdaeq	r0, {r0, r2, r5, r6, r7, sl, sp}
 80022f4:	0800277b 	stmdaeq	r0, {r0, r1, r3, r4, r5, r6, r8, r9, sl, sp}
 80022f8:	e000ed88 	and	lr, r0, r8, lsl #27

080022fc <powersof10>:
 80022fc:	41200000 			; <UNDEFINED> instruction: 0x41200000
 8002300:	42c80000 	sbcmi	r0, r8, #0
 8002304:	461c4000 	ldrmi	r4, [ip], -r0
 8002308:	4cbebc20 	ldcmi	12, cr11, [lr], #128	; 0x80
 800230c:	5a0e1bca 	bpl	838923c <OPTKEY1+0x1f6801>
 8002310:	749dc5ae 	ldrvc	ip, [sp], #1454	; 0x5ae

08002314 <power10>:
 8002314:	4750      	bx	sl
 8002316:	bf00      	nop
 8002318:	0800293b 	stmdaeq	r0, {r0, r1, r3, r4, r5, r8, fp, sp}
 800231c:	00000002 	andeq	r0, r0, r2
 8002320:	08002b89 	stmdaeq	r0, {r0, r3, r7, r8, r9, fp, sp}
 8002324:	0800293b 	stmdaeq	r0, {r0, r1, r3, r4, r5, r8, fp, sp}
 8002328:	080022fc 	stmdaeq	r0, {r2, r3, r4, r5, r6, r7, r9, sp}
 800232c:	08002b99 	stmdaeq	r0, {r0, r3, r4, r7, r8, r9, fp, sp}
 8002330:	080029c1 	stmdaeq	r0, {r0, r6, r7, r8, fp, sp}
 8002334:	0800277b 	stmdaeq	r0, {r0, r1, r3, r4, r5, r6, r8, r9, sl, sp}

08002338 <bit_state>:
 8002338:	4750      	bx	sl
 800233a:	bf00      	nop
 800233c:	0800293b 	stmdaeq	r0, {r0, r1, r3, r4, r5, r8, fp, sp}
 8002340:	00000001 	andeq	r0, r0, r1
 8002344:	0800293b 	stmdaeq	r0, {r0, r1, r3, r4, r5, r8, fp, sp}
 8002348:	00000003 	andeq	r0, r0, r3
 800234c:	08003425 	stmdaeq	r0, {r0, r2, r5, sl, ip, sp}
 8002350:	08002b89 	stmdaeq	r0, {r0, r3, r7, r8, r9, fp, sp}
 8002354:	08002b19 	stmdaeq	r0, {r0, r3, r4, r8, r9, fp, sp}
 8002358:	0800277b 	stmdaeq	r0, {r0, r1, r3, r4, r5, r6, r8, r9, sl, sp}

0800235c <mult_div_exp>:
 800235c:	4750      	bx	sl
 800235e:	bf00      	nop
 8002360:	08002af9 	stmdaeq	r0, {r0, r3, r4, r5, r6, r7, r9, fp, sp}
 8002364:	0800297b 	stmdaeq	r0, {r0, r1, r3, r4, r5, r6, r8, fp, sp}
 8002368:	08002428 	stmdaeq	r0, {r3, r5, sl, sp}
 800236c:	0800293b 	stmdaeq	r0, {r0, r1, r3, r4, r5, r8, fp, sp}
 8002370:	00000000 	andeq	r0, r0, r0
 8002374:	08002cd1 	stmdaeq	r0, {r0, r4, r6, r7, sl, fp, sp}
 8002378:	08002ae5 	stmdaeq	r0, {r0, r2, r5, r6, r7, r9, fp, sp}
 800237c:	08002ad5 	stmdaeq	r0, {r0, r2, r4, r6, r7, r9, fp, sp}
 8002380:	08002b09 	stmdaeq	r0, {r0, r3, r8, r9, fp, sp}
 8002384:	0800297b 	stmdaeq	r0, {r0, r1, r3, r4, r5, r6, r8, fp, sp}
 8002388:	080023dc 	stmdaeq	r0, {r2, r3, r4, r6, r7, r8, r9, sp}
 800238c:	08002dc9 	stmdaeq	r0, {r0, r3, r6, r7, r8, sl, fp, sp}
 8002390:	08002a51 	stmdaeq	r0, {r0, r4, r6, r9, fp, sp}

08002394 <div_loop>:
 8002394:	08002a3d 	stmdaeq	r0, {r0, r2, r3, r4, r5, r9, fp, sp}
 8002398:	08002339 	stmdaeq	r0, {r0, r3, r4, r5, r8, r9, sp}
 800239c:	0800297b 	stmdaeq	r0, {r0, r1, r3, r4, r5, r6, r8, fp, sp}
 80023a0:	080023b0 	stmdaeq	r0, {r4, r5, r7, r8, r9, sp}
 80023a4:	08002af9 	stmdaeq	r0, {r0, r3, r4, r5, r6, r7, r9, fp, sp}
 80023a8:	08002315 	stmdaeq	r0, {r0, r2, r4, r8, r9, sp}
 80023ac:	080020e1 	stmdaeq	r0, {r0, r5, r6, r7, sp}
 80023b0:	08002ae5 	stmdaeq	r0, {r0, r2, r5, r6, r7, r9, fp, sp}
 80023b4:	08002bf5 	stmdaeq	r0, {r0, r2, r4, r5, r6, r7, r8, r9, fp, sp}
 80023b8:	08002ae5 	stmdaeq	r0, {r0, r2, r5, r6, r7, r9, fp, sp}
 80023bc:	08002af9 	stmdaeq	r0, {r0, r3, r4, r5, r6, r7, r9, fp, sp}
 80023c0:	0800293b 	stmdaeq	r0, {r0, r1, r3, r4, r5, r8, fp, sp}
 80023c4:	00000005 	andeq	r0, r0, r5
 80023c8:	08002ea1 	stmdaeq	r0, {r0, r5, r7, r9, sl, fp, sp}
 80023cc:	0800297b 	stmdaeq	r0, {r0, r1, r3, r4, r5, r6, r8, fp, sp}
 80023d0:	08002394 	stmdaeq	r0, {r2, r4, r7, r8, r9, sp}
 80023d4:	0800298f 	stmdaeq	r0, {r0, r1, r2, r3, r7, r8, fp, sp}
 80023d8:	08002420 	stmdaeq	r0, {r5, sl, sp}

080023dc <pos_exp>:
 80023dc:	08002a51 	stmdaeq	r0, {r0, r4, r6, r9, fp, sp}

080023e0 <mult_loop>:
 80023e0:	08002a3d 	stmdaeq	r0, {r0, r2, r3, r4, r5, r9, fp, sp}
 80023e4:	08002339 	stmdaeq	r0, {r0, r3, r4, r5, r8, r9, sp}
 80023e8:	0800297b 	stmdaeq	r0, {r0, r1, r3, r4, r5, r6, r8, fp, sp}
 80023ec:	080023fc 	stmdaeq	r0, {r2, r3, r4, r5, r6, r7, r8, r9, sp}
 80023f0:	08002af9 	stmdaeq	r0, {r0, r3, r4, r5, r6, r7, r9, fp, sp}
 80023f4:	08002315 	stmdaeq	r0, {r0, r2, r4, r8, r9, sp}
 80023f8:	080020c1 	stmdaeq	r0, {r0, r6, r7, sp}
 80023fc:	08002ae5 	stmdaeq	r0, {r0, r2, r5, r6, r7, r9, fp, sp}
 8002400:	08002bf5 	stmdaeq	r0, {r0, r2, r4, r5, r6, r7, r8, r9, fp, sp}
 8002404:	08002ae5 	stmdaeq	r0, {r0, r2, r5, r6, r7, r9, fp, sp}
 8002408:	08002af9 	stmdaeq	r0, {r0, r3, r4, r5, r6, r7, r9, fp, sp}
 800240c:	0800293b 	stmdaeq	r0, {r0, r1, r3, r4, r5, r8, fp, sp}
 8002410:	00000005 	andeq	r0, r0, r5
 8002414:	08002ea1 	stmdaeq	r0, {r0, r5, r7, r9, sl, fp, sp}
 8002418:	0800297b 	stmdaeq	r0, {r0, r1, r3, r4, r5, r6, r8, fp, sp}
 800241c:	080023e0 	stmdaeq	r0, {r5, r6, r7, r8, r9, sp}
 8002420:	08002a0d 	stmdaeq	r0, {r0, r2, r3, r9, fp, sp}
 8002424:	08002ac5 	stmdaeq	r0, {r0, r2, r6, r7, r9, fp, sp}
 8002428:	08002ae5 	stmdaeq	r0, {r0, r2, r5, r6, r7, r9, fp, sp}
 800242c:	08002ac5 	stmdaeq	r0, {r0, r2, r6, r7, r9, fp, sp}
 8002430:	0800277b 	stmdaeq	r0, {r0, r1, r3, r4, r5, r6, r8, r9, sl, sp}

08002434 <div_fract>:
 8002434:	4750      	bx	sl
 8002436:	bf00      	nop
 8002438:	08002ae5 	stmdaeq	r0, {r0, r2, r5, r6, r7, r9, fp, sp}
 800243c:	08002a51 	stmdaeq	r0, {r0, r4, r6, r9, fp, sp}
 8002440:	0800293b 	stmdaeq	r0, {r0, r1, r3, r4, r5, r8, fp, sp}
 8002444:	3f800000 	svccc	0x00800000
 8002448:	0800298f 	stmdaeq	r0, {r0, r1, r2, r3, r7, r8, fp, sp}
 800244c:	0800245c 	stmdaeq	r0, {r2, r3, r4, r6, sl, sp}
 8002450:	0800293b 	stmdaeq	r0, {r0, r1, r3, r4, r5, r8, fp, sp}
 8002454:	41200000 			; <UNDEFINED> instruction: 0x41200000
 8002458:	080020c1 	stmdaeq	r0, {r0, r6, r7, sp}
 800245c:	0800295d 	stmdaeq	r0, {r0, r2, r3, r4, r6, r8, fp, sp}
 8002460:	08002450 	stmdaeq	r0, {r4, r6, sl, sp}
 8002464:	080020e1 	stmdaeq	r0, {r0, r5, r6, r7, sp}
 8002468:	0800277b 	stmdaeq	r0, {r0, r1, r3, r4, r5, r6, r8, r9, sl, sp}

0800246c <decimals>:
 800246c:	4750      	bx	sl
 800246e:	bf00      	nop
 8002470:	0800293b 	stmdaeq	r0, {r0, r1, r3, r4, r5, r8, fp, sp}
 8002474:	00000000 	andeq	r0, r0, r0
 8002478:	08002ad5 	stmdaeq	r0, {r0, r2, r4, r6, r7, r9, fp, sp}
 800247c:	08002cbd 	stmdaeq	r0, {r0, r2, r3, r4, r5, r7, sl, fp, sp}
 8002480:	080037fd 	stmdaeq	r0, {r0, r2, r3, r4, r5, r6, r7, r8, r9, sl, ip, sp}
 8002484:	08002cd1 	stmdaeq	r0, {r0, r4, r6, r7, sl, fp, sp}
 8002488:	08002069 	stmdaeq	r0, {r0, r3, r5, r6, sp}
 800248c:	08002435 	stmdaeq	r0, {r0, r2, r4, r5, sl, sp}
 8002490:	0800277b 	stmdaeq	r0, {r0, r1, r3, r4, r5, r6, r8, r9, sl, sp}

08002494 <exponent>:
 8002494:	4750      	bx	sl
 8002496:	bf00      	nop
 8002498:	08003877 	stmdaeq	r0, {r0, r1, r2, r4, r5, r6, fp, ip, sp}
 800249c:	08002a51 	stmdaeq	r0, {r0, r4, r6, r9, fp, sp}
 80024a0:	0800293b 	stmdaeq	r0, {r0, r1, r3, r4, r5, r8, fp, sp}
 80024a4:	00000000 	andeq	r0, r0, r0
 80024a8:	08002ad5 	stmdaeq	r0, {r0, r2, r4, r6, r7, r9, fp, sp}
 80024ac:	08002cbd 	stmdaeq	r0, {r0, r2, r3, r4, r5, r7, sl, fp, sp}
 80024b0:	080037fd 	stmdaeq	r0, {r0, r2, r3, r4, r5, r6, r7, r8, r9, sl, ip, sp}
 80024b4:	08002cd1 	stmdaeq	r0, {r0, r4, r6, r7, sl, fp, sp}
 80024b8:	08002ae5 	stmdaeq	r0, {r0, r2, r5, r6, r7, r9, fp, sp}
 80024bc:	08002ac5 	stmdaeq	r0, {r0, r2, r6, r7, r9, fp, sp}
 80024c0:	08002a0d 	stmdaeq	r0, {r0, r2, r3, r9, fp, sp}
 80024c4:	0800297b 	stmdaeq	r0, {r0, r1, r3, r4, r5, r6, r8, fp, sp}
 80024c8:	080024d0 	stmdaeq	r0, {r4, r6, r7, sl, sp}
 80024cc:	08002db9 	stmdaeq	r0, {r0, r3, r4, r5, r7, r8, sl, fp, sp}
 80024d0:	08002ae5 	stmdaeq	r0, {r0, r2, r5, r6, r7, r9, fp, sp}
 80024d4:	0800277b 	stmdaeq	r0, {r0, r1, r3, r4, r5, r6, r8, r9, sl, sp}
 80024d8:	080022d0 	stmdaeq	r0, {r4, r6, r7, r9, sp}

080024dc <_FLOATQ>:
 80024dc:	4f4c4606 	svcmi	0x004c4606
 80024e0:	003f5441 	eorseq	r5, pc, r1, asr #8

080024e4 <FLOATQ>:
 80024e4:	4750      	bx	sl
 80024e6:	bf00      	nop
 80024e8:	08002fd1 	stmdaeq	r0, {r0, r4, r6, r7, r8, r9, sl, fp, sp}
 80024ec:	080029c1 	stmdaeq	r0, {r0, r6, r7, r8, fp, sp}
 80024f0:	08002a51 	stmdaeq	r0, {r0, r4, r6, r9, fp, sp}
 80024f4:	0800377d 	stmdaeq	r0, {r0, r2, r3, r4, r5, r6, r8, r9, sl, ip, sp}
 80024f8:	0800293b 	stmdaeq	r0, {r0, r1, r3, r4, r5, r8, fp, sp}
 80024fc:	00000000 	andeq	r0, r0, r0
 8002500:	08002af9 	stmdaeq	r0, {r0, r3, r4, r5, r6, r7, r9, fp, sp}
 8002504:	08002f29 	stmdaeq	r0, {r0, r3, r5, r8, r9, sl, fp, sp}
 8002508:	08002ac5 	stmdaeq	r0, {r0, r2, r6, r7, r9, fp, sp}
 800250c:	08003877 	stmdaeq	r0, {r0, r1, r2, r4, r5, r6, fp, ip, sp}
 8002510:	08002a51 	stmdaeq	r0, {r0, r4, r6, r9, fp, sp}
 8002514:	08002ad5 	stmdaeq	r0, {r0, r2, r4, r6, r7, r9, fp, sp}
 8002518:	080029e1 	stmdaeq	r0, {r0, r5, r6, r7, r8, fp, sp}
 800251c:	0800293b 	stmdaeq	r0, {r0, r1, r3, r4, r5, r8, fp, sp}
 8002520:	0000000a 	andeq	r0, r0, sl
 8002524:	080037a1 	stmdaeq	r0, {r0, r5, r7, r8, r9, sl, ip, sp}
 8002528:	08002ae5 	stmdaeq	r0, {r0, r2, r5, r6, r7, r9, fp, sp}
 800252c:	08002ac5 	stmdaeq	r0, {r0, r2, r6, r7, r9, fp, sp}
 8002530:	0800297b 	stmdaeq	r0, {r0, r1, r3, r4, r5, r6, r8, fp, sp}
 8002534:	08002584 	stmdaeq	r0, {r2, r7, r8, sl, sp}
 8002538:	0800293b 	stmdaeq	r0, {r0, r1, r3, r4, r5, r8, fp, sp}
 800253c:	00000000 	andeq	r0, r0, r0
 8002540:	08002ad5 	stmdaeq	r0, {r0, r2, r4, r6, r7, r9, fp, sp}
 8002544:	08002cbd 	stmdaeq	r0, {r0, r2, r3, r4, r5, r7, sl, fp, sp}
 8002548:	080037fd 	stmdaeq	r0, {r0, r2, r3, r4, r5, r6, r7, r8, r9, sl, ip, sp}
 800254c:	08002cd1 	stmdaeq	r0, {r0, r4, r6, r7, sl, fp, sp}
 8002550:	08002069 	stmdaeq	r0, {r0, r3, r5, r6, sp}
 8002554:	08002a51 	stmdaeq	r0, {r0, r4, r6, r9, fp, sp}
 8002558:	08002ac5 	stmdaeq	r0, {r0, r2, r6, r7, r9, fp, sp}
 800255c:	0800293b 	stmdaeq	r0, {r0, r1, r3, r4, r5, r8, fp, sp}
 8002560:	00000045 	andeq	r0, r0, r5, asr #32
 8002564:	0800385d 	stmdaeq	r0, {r0, r2, r3, r4, r6, fp, ip, sp}
 8002568:	0800297b 	stmdaeq	r0, {r0, r1, r3, r4, r5, r6, r8, fp, sp}
 800256c:	08002590 	stmdaeq	r0, {r4, r7, r8, sl, sp}
 8002570:	0800293b 	stmdaeq	r0, {r0, r1, r3, r4, r5, r8, fp, sp}
 8002574:	00000000 	andeq	r0, r0, r0
 8002578:	08002a51 	stmdaeq	r0, {r0, r4, r6, r9, fp, sp}
 800257c:	0800298f 	stmdaeq	r0, {r0, r1, r2, r3, r7, r8, fp, sp}
 8002580:	080025ec 	stmdaeq	r0, {r2, r3, r5, r6, r7, r8, sl, sp}

08002584 <must_be_dot>:
 8002584:	0800293b 	stmdaeq	r0, {r0, r1, r3, r4, r5, r8, fp, sp}
 8002588:	00000000 	andeq	r0, r0, r0
 800258c:	08002a51 	stmdaeq	r0, {r0, r4, r6, r9, fp, sp}
 8002590:	0800293b 	stmdaeq	r0, {r0, r1, r3, r4, r5, r8, fp, sp}
 8002594:	0000002e 	andeq	r0, r0, lr, lsr #32
 8002598:	0800385d 	stmdaeq	r0, {r0, r2, r3, r4, r6, fp, ip, sp}
 800259c:	0800297b 	stmdaeq	r0, {r0, r1, r3, r4, r5, r6, r8, fp, sp}
 80025a0:	0800265c 	stmdaeq	r0, {r2, r3, r4, r6, r9, sl, sp}
 80025a4:	0800246d 	stmdaeq	r0, {r0, r2, r3, r5, r6, sl, sp}
 80025a8:	08002a51 	stmdaeq	r0, {r0, r4, r6, r9, fp, sp}
 80025ac:	0800293b 	stmdaeq	r0, {r0, r1, r3, r4, r5, r8, fp, sp}
 80025b0:	00000045 	andeq	r0, r0, r5, asr #32
 80025b4:	0800385d 	stmdaeq	r0, {r0, r2, r3, r4, r6, fp, ip, sp}
 80025b8:	0800297b 	stmdaeq	r0, {r0, r1, r3, r4, r5, r6, r8, fp, sp}
 80025bc:	080025c8 	stmdaeq	r0, {r3, r6, r7, r8, sl, sp}
 80025c0:	0800298f 	stmdaeq	r0, {r0, r1, r2, r3, r7, r8, fp, sp}
 80025c4:	080025ec 	stmdaeq	r0, {r2, r3, r5, r6, r7, r8, sl, sp}
 80025c8:	080029e1 	stmdaeq	r0, {r0, r5, r6, r7, r8, fp, sp}
 80025cc:	0800297b 	stmdaeq	r0, {r0, r1, r3, r4, r5, r6, r8, fp, sp}
 80025d0:	080025dc 	stmdaeq	r0, {r2, r3, r4, r6, r7, r8, sl, sp}
 80025d4:	0800298f 	stmdaeq	r0, {r0, r1, r2, r3, r7, r8, fp, sp}
 80025d8:	08002670 	stmdaeq	r0, {r4, r5, r6, r9, sl, sp}
 80025dc:	08002a51 	stmdaeq	r0, {r0, r4, r6, r9, fp, sp}
 80025e0:	08002ac5 	stmdaeq	r0, {r0, r2, r6, r7, r9, fp, sp}
 80025e4:	0800298f 	stmdaeq	r0, {r0, r1, r2, r3, r7, r8, fp, sp}
 80025e8:	08002624 	stmdaeq	r0, {r2, r5, r9, sl, sp}
 80025ec:	08002495 	stmdaeq	r0, {r0, r2, r4, r7, sl, sp}
 80025f0:	080029e1 	stmdaeq	r0, {r0, r5, r6, r7, r8, fp, sp}
 80025f4:	0800297b 	stmdaeq	r0, {r0, r1, r3, r4, r5, r6, r8, fp, sp}
 80025f8:	08002604 	stmdaeq	r0, {r2, r9, sl, sp}
 80025fc:	0800298f 	stmdaeq	r0, {r0, r1, r2, r3, r7, r8, fp, sp}
 8002600:	08002670 	stmdaeq	r0, {r4, r5, r6, r9, sl, sp}
 8002604:	08002a51 	stmdaeq	r0, {r0, r4, r6, r9, fp, sp}
 8002608:	08002ce5 	stmdaeq	r0, {r0, r2, r5, r6, r7, sl, fp, sp}
 800260c:	0800298f 	stmdaeq	r0, {r0, r1, r2, r3, r7, r8, fp, sp}
 8002610:	08002624 	stmdaeq	r0, {r2, r5, r9, sl, sp}
 8002614:	0800293b 	stmdaeq	r0, {r0, r1, r3, r4, r5, r8, fp, sp}
 8002618:	00000000 	andeq	r0, r0, r0
 800261c:	08002a51 	stmdaeq	r0, {r0, r4, r6, r9, fp, sp}
 8002620:	08002ac5 	stmdaeq	r0, {r0, r2, r6, r7, r9, fp, sp}

08002624 <build_float>:
 8002624:	08002a0d 	stmdaeq	r0, {r0, r2, r3, r9, fp, sp}
 8002628:	08002a21 	stmdaeq	r0, {r0, r5, r9, fp, sp}
 800262c:	08002081 	stmdaeq	r0, {r0, r7, sp}
 8002630:	0800235d 	stmdaeq	r0, {r0, r2, r3, r4, r6, r8, r9, sp}
 8002634:	08002a0d 	stmdaeq	r0, {r0, r2, r3, r9, fp, sp}
 8002638:	0800297b 	stmdaeq	r0, {r0, r1, r3, r4, r5, r6, r8, fp, sp}
 800263c:	0800264c 	stmdaeq	r0, {r2, r3, r6, r9, sl, sp}
 8002640:	0800293b 	stmdaeq	r0, {r0, r1, r3, r4, r5, r8, fp, sp}
 8002644:	bf800000 	svclt	0x00800000
 8002648:	080020c1 	stmdaeq	r0, {r0, r6, r7, sp}
 800264c:	0800293b 	stmdaeq	r0, {r0, r1, r3, r4, r5, r8, fp, sp}
 8002650:	fffffffe 			; <UNDEFINED> instruction: 0xfffffffe
 8002654:	0800298f 	stmdaeq	r0, {r0, r1, r2, r3, r7, r8, fp, sp}
 8002658:	08002680 	stmdaeq	r0, {r7, r9, sl, sp}

0800265c <error1>:
 800265c:	08002a21 	stmdaeq	r0, {r0, r5, r9, fp, sp}
 8002660:	08002ce5 	stmdaeq	r0, {r0, r2, r5, r6, r7, sl, fp, sp}
 8002664:	08002ac5 	stmdaeq	r0, {r0, r2, r6, r7, r9, fp, sp}
 8002668:	0800298f 	stmdaeq	r0, {r0, r1, r2, r3, r7, r8, fp, sp}
 800266c:	08002680 	stmdaeq	r0, {r7, r9, sl, sp}

08002670 <error2>:
 8002670:	08002a21 	stmdaeq	r0, {r0, r5, r9, fp, sp}
 8002674:	08002ce5 	stmdaeq	r0, {r0, r2, r5, r6, r7, sl, fp, sp}
 8002678:	08002a0d 	stmdaeq	r0, {r0, r2, r3, r9, fp, sp}
 800267c:	08002ce5 	stmdaeq	r0, {r0, r2, r5, r6, r7, sl, fp, sp}

08002680 <restore_base>:
 8002680:	08002a0d 	stmdaeq	r0, {r0, r2, r3, r9, fp, sp}
 8002684:	08002fd1 	stmdaeq	r0, {r0, r4, r6, r7, r8, r9, sl, fp, sp}
 8002688:	080029ad 	stmdaeq	r0, {r0, r2, r3, r5, r7, r8, fp, sp}
 800268c:	0800277b 	stmdaeq	r0, {r0, r1, r3, r4, r5, r6, r8, r9, sl, sp}

08002690 <pwr10m9>:
 8002690:	322bcc77 	eorcc	ip, fp, #30464	; 0x7700
 8002694:	33d6bf95 	bicscc	fp, r6, #596	; 0x254
 8002698:	358637bd 	strcc	r3, [r6, #1981]	; 0x7bd
 800269c:	3727c5ac 	strcc	ip, [r7, -ip, lsr #11]!
 80026a0:	38d1b717 	ldmcc	r1, {r0, r1, r2, r4, r8, r9, sl, ip, sp, pc}^
 80026a4:	3a83126f 	bcc	60c7068 <FCLK+0x539868>
 80026a8:	3c23d70a 	stccc	7, cr13, [r3], #-40	; 0xffffffd8
 80026ac:	3dcccccd 	stclcc	12, cr12, [ip, #820]	; 0x334
 80026b0:	3f800000 	svccc	0x00800000

080026b4 <pwr10e0>:
 80026b4:	41200000 			; <UNDEFINED> instruction: 0x41200000
 80026b8:	42c80000 	sbcmi	r0, r8, #0
 80026bc:	447a0000 	ldrbtmi	r0, [sl], #-0
 80026c0:	461c4000 	ldrmi	r4, [ip], -r0
 80026c4:	47c35000 	strbmi	r5, [r3, r0]
 80026c8:	49742400 	ldmdbmi	r4!, {sl, sp}^
 80026cc:	4b189680 	blmi	86280d4 <OPTKEY1+0x495699>
 80026d0:	4cbebc20 	ldcmi	12, cr11, [lr], #128	; 0x80
 80026d4:	4e6e6b28 	vmulmi.f64	d22, d14, d24
 80026d8:	501502f9 			; <UNDEFINED> instruction: 0x501502f9

080026dc <rounding>:
 80026dc:	2cafebff 	fstmiaxcs	pc!, {d14-d140}	;@ Deprecated
 80026e0:	2e5be6ff 	mrccs	6, 2, lr, cr11, cr15, {7}
 80026e4:	3009705f 	andcc	r7, r9, pc, asr r0
 80026e8:	31abcc77 			; <UNDEFINED> instruction: 0x31abcc77
 80026ec:	3356bf95 	cmpcc	r6, #596	; 0x254
 80026f0:	350637bd 	strcc	r3, [r6, #-1981]	; 0xfffff843
 80026f4:	36a7c5ac 	strtcc	ip, [r7], ip, lsr #11
 80026f8:	3851b717 	ldmdacc	r1, {r0, r1, r2, r4, r8, r9, sl, ip, sp, pc}^
 80026fc:	3a03126f 	bcc	80c70c0 <FLASH_END+0x470c0>
 8002700:	3ba3d70a 	blcc	68f8330 <FCLK+0xd6ab30>
 8002704:	3d4ccccd 	stclcc	12, cr12, [ip, #-820]	; 0xfffffccc
 8002708:	3f000000 	svccc	0x00000000
 800270c:	080024dc 	stmdaeq	r0, {r2, r3, r4, r6, r7, sl, sp}

08002710 <_EDOT>:
 8002710:	002e4502 	eoreq	r4, lr, r2, lsl #10

08002714 <EDOT>:
 8002714:	4750      	bx	sl
 8002716:	bf00      	nop
 8002718:	0800277b 	stmdaeq	r0, {r0, r1, r3, r4, r5, r6, r8, r9, sl, sp}
 800271c:	08002710 	stmdaeq	r0, {r4, r8, r9, sl, sp}

08002720 <_FDOT>:
 8002720:	002e4602 	eoreq	r4, lr, r2, lsl #12

08002724 <FDOT>:
 8002724:	4750      	bx	sl
 8002726:	bf00      	nop
 8002728:	0800293b 	stmdaeq	r0, {r0, r1, r3, r4, r5, r8, fp, sp}
 800272c:	00000028 	andeq	r0, r0, r8, lsr #32
 8002730:	08002ecd 	stmdaeq	r0, {r0, r2, r3, r6, r7, r9, sl, fp, sp}
 8002734:	08002ae5 	stmdaeq	r0, {r0, r2, r5, r6, r7, r9, fp, sp}
 8002738:	08002ad5 	stmdaeq	r0, {r0, r2, r4, r6, r7, r9, fp, sp}
 800273c:	08002225 	stmdaeq	r0, {r0, r2, r5, r9, sp}
 8002740:	0800293b 	stmdaeq	r0, {r0, r1, r3, r4, r5, r8, fp, sp}
 8002744:	0000001f 	andeq	r0, r0, pc, lsl r0
 8002748:	0800277b 	stmdaeq	r0, {r0, r1, r3, r4, r5, r6, r8, r9, sl, sp}

0800274c <itoa>:
 800274c:	4750      	bx	sl
 800274e:	bf00      	nop
 8002750:	0800304d 	stmdaeq	r0, {r0, r2, r3, r6, ip, sp}
 8002754:	080029ad 	stmdaeq	r0, {r0, r2, r3, r5, r7, r8, fp, sp}
 8002758:	0800293b 	stmdaeq	r0, {r0, r1, r3, r4, r5, r8, fp, sp}
 800275c:	00000000 	andeq	r0, r0, r0
 8002760:	08003681 	stmdaeq	r0, {r0, r7, r9, sl, ip, sp}
 8002764:	00000001 	andeq	r0, r0, r1
 8002768:	0800277b 	stmdaeq	r0, {r0, r1, r3, r4, r5, r6, r8, r9, sl, sp}

0800276c <NEST>:
 800276c:	f848 cd04 	str.w	ip, [r8, #-4]!
 8002770:	f105 0c03 	add.w	ip, r5, #3

08002774 <INEXT>:
 8002774:	f85c 5b04 	ldr.w	r5, [ip], #4
 8002778:	4728      	bx	r5

0800277a <UNNEST>:
 800277a:	f858 cb04 	ldr.w	ip, [r8], #4
 800277e:	f85c 5b04 	ldr.w	r5, [ip], #4
 8002782:	4728      	bx	r5

08002784 <COMPI_NEST>:
 8002784:	f104 0144 	add.w	r1, r4, #68	; 0x44
 8002788:	6809      	ldr	r1, [r1, #0]
 800278a:	f244 7250 	movw	r2, #18256	; 0x4750
 800278e:	f821 2b02 	strh.w	r2, [r1], #2
 8002792:	f44f 423f 	mov.w	r2, #48896	; 0xbf00
 8002796:	f821 2b02 	strh.w	r2, [r1], #2
 800279a:	f104 0244 	add.w	r2, r4, #68	; 0x44
 800279e:	6011      	str	r1, [r2, #0]
 80027a0:	e7e8      	b.n	8002774 <INEXT>

080027a2 <TSTDIN>:
 80027a2:	f847 6d04 	str.w	r6, [r7, #-4]!
 80027a6:	f104 0614 	add.w	r6, r4, #20
 80027aa:	e7e3      	b.n	8002774 <INEXT>

080027ac <TSTDOUT>:
 80027ac:	f847 6d04 	str.w	r6, [r7, #-4]!
 80027b0:	f104 0618 	add.w	r6, r4, #24
 80027b4:	e7de      	b.n	8002774 <INEXT>
 80027b6:	08002720 	stmdaeq	r0, {r5, r8, r9, sl, sp}

080027ba <_CFSR>:
 80027ba:	43544106 	cmpmi	r4, #-2147483647	; 0x80000001
 80027be:	00525346 	subseq	r5, r2, r6, asr #6
 80027c2:	bf00      	nop

080027c4 <CFSR>:
 80027c4:	f44f 406d 	mov.w	r0, #60672	; 0xed00
 80027c8:	f2ce 0000 	movt	r0, #57344	; 0xe000
 80027cc:	f847 6d04 	str.w	r6, [r7, #-4]!
 80027d0:	6a86      	ldr	r6, [r0, #40]	; 0x28
 80027d2:	ea81 0101 	eor.w	r1, r1, r1
 80027d6:	6281      	str	r1, [r0, #40]	; 0x28
 80027d8:	e7cc      	b.n	8002774 <INEXT>
 80027da:	080027ba 	stmdaeq	r0, {r1, r3, r4, r5, r7, r8, r9, sl, sp}

080027de <_BFAR>:
 80027de:	42544106 	subsmi	r4, r4, #-2147483647	; 0x80000001
 80027e2:	00524146 	subseq	r4, r2, r6, asr #2
 80027e6:	bf00      	nop

080027e8 <BFAR>:
 80027e8:	f44f 406d 	mov.w	r0, #60672	; 0xed00
 80027ec:	f2ce 0000 	movt	r0, #57344	; 0xe000
 80027f0:	f847 6d04 	str.w	r6, [r7, #-4]!
 80027f4:	6b86      	ldr	r6, [r0, #56]	; 0x38
 80027f6:	ea81 0101 	eor.w	r1, r1, r1
 80027fa:	6381      	str	r1, [r0, #56]	; 0x38
 80027fc:	e7ba      	b.n	8002774 <INEXT>
 80027fe:	080027de 	stmdaeq	r0, {r1, r2, r3, r4, r6, r7, r8, r9, sl, sp}

08002802 <_QKEY>:
 8002802:	59454b04 	stmdbpl	r5, {r2, r8, r9, fp, lr}^
 8002806:	 	smmlarmi	r0, pc, r0, r0	; <UNPREDICTABLE>

08002808 <QKEY>:
 8002808:	4750      	bx	sl
 800280a:	bf00      	nop
 800280c:	080027a3 	stmdaeq	r0, {r0, r1, r5, r7, r8, r9, sl, sp}
 8002810:	0800349d 	stmdaeq	r0, {r0, r2, r3, r4, r7, sl, ip, sp}
 8002814:	0800277b 	stmdaeq	r0, {r0, r1, r3, r4, r5, r6, r8, r9, sl, sp}
 8002818:	08002802 	stmdaeq	r0, {r1, fp, sp}

0800281c <_KEY>:
 800281c:	59454b03 	stmdbpl	r5, {r0, r1, r8, r9, fp, lr}^

08002820 <KEY>:
 8002820:	4750      	bx	sl
 8002822:	bf00      	nop

08002824 <KEY1>:
 8002824:	08001ad1 	stmdaeq	r0, {r0, r4, r6, r7, r9, fp, ip}
 8002828:	08002809 	stmdaeq	r0, {r0, r3, fp, sp}
 800282c:	0800297b 	stmdaeq	r0, {r0, r1, r3, r4, r5, r6, r8, fp, sp}
 8002830:	08002824 	stmdaeq	r0, {r2, r5, fp, sp}
 8002834:	0800277b 	stmdaeq	r0, {r0, r1, r3, r4, r5, r6, r8, r9, sl, sp}
 8002838:	0800281c 	stmdaeq	r0, {r2, r3, r4, fp, sp}

0800283c <_EMIT>:
 800283c:	494d4504 	stmdbmi	sp, {r2, r8, sl, lr}^
 8002840:	bf000054 	svclt	0x00000054

08002844 <EMIT>:
 8002844:	4750      	bx	sl
 8002846:	bf00      	nop
 8002848:	080027ad 	stmdaeq	r0, {r0, r2, r3, r5, r7, r8, r9, sl, sp}
 800284c:	0800349d 	stmdaeq	r0, {r0, r2, r3, r4, r7, sl, ip, sp}
 8002850:	0800277b 	stmdaeq	r0, {r0, r1, r3, r4, r5, r6, r8, r9, sl, sp}
 8002854:	0800283c 	stmdaeq	r0, {r2, r3, r4, r5, fp, sp}

08002858 <_RAND>:
 8002858:	4e415206 	cdpmi	2, 4, cr5, cr1, cr6, {0}
 800285c:	004d4f44 	subeq	r4, sp, r4, asr #30

08002860 <RAND>:
 8002860:	4750      	bx	sl
 8002862:	bf00      	nop
 8002864:	08002dc9 	stmdaeq	r0, {r0, r3, r6, r7, r8, sl, fp, sp}
 8002868:	08002f71 	stmdaeq	r0, {r0, r4, r5, r6, r8, r9, sl, fp, sp}
 800286c:	080029c1 	stmdaeq	r0, {r0, r6, r7, r8, fp, sp}
 8002870:	08002ad5 	stmdaeq	r0, {r0, r2, r4, r6, r7, r9, fp, sp}
 8002874:	0800293b 	stmdaeq	r0, {r0, r1, r3, r4, r5, r8, fp, sp}
 8002878:	0000000d 	andeq	r0, r0, sp
 800287c:	08002b89 	stmdaeq	r0, {r0, r3, r7, r8, r9, fp, sp}
 8002880:	08002b41 	stmdaeq	r0, {r0, r6, r8, r9, fp, sp}
 8002884:	08002ad5 	stmdaeq	r0, {r0, r2, r4, r6, r7, r9, fp, sp}
 8002888:	0800293b 	stmdaeq	r0, {r0, r1, r3, r4, r5, r8, fp, sp}
 800288c:	00000011 	andeq	r0, r0, r1, lsl r0
 8002890:	08002b71 	stmdaeq	r0, {r0, r4, r5, r6, r8, r9, fp, sp}
 8002894:	08002b41 	stmdaeq	r0, {r0, r6, r8, r9, fp, sp}
 8002898:	08002ad5 	stmdaeq	r0, {r0, r2, r4, r6, r7, r9, fp, sp}
 800289c:	0800293b 	stmdaeq	r0, {r0, r1, r3, r4, r5, r8, fp, sp}
 80028a0:	00000005 	andeq	r0, r0, r5
 80028a4:	08002b89 	stmdaeq	r0, {r0, r3, r7, r8, r9, fp, sp}
 80028a8:	08002b41 	stmdaeq	r0, {r0, r6, r8, r9, fp, sp}
 80028ac:	08002ad5 	stmdaeq	r0, {r0, r2, r4, r6, r7, r9, fp, sp}
 80028b0:	08002f71 	stmdaeq	r0, {r0, r4, r5, r6, r8, r9, sl, fp, sp}
 80028b4:	080029ad 	stmdaeq	r0, {r0, r2, r3, r5, r7, r8, fp, sp}
 80028b8:	0800293b 	stmdaeq	r0, {r0, r1, r3, r4, r5, r8, fp, sp}
 80028bc:	7fffffff 	svcvc	0x00ffffff
 80028c0:	08002b19 	stmdaeq	r0, {r0, r3, r4, r8, r9, fp, sp}
 80028c4:	08002ae5 	stmdaeq	r0, {r0, r2, r5, r6, r7, r9, fp, sp}
 80028c8:	08003321 	stmdaeq	r0, {r0, r5, r8, r9, ip, sp}
 80028cc:	0800277b 	stmdaeq	r0, {r0, r1, r3, r4, r5, r6, r8, r9, sl, sp}
 80028d0:	08002858 	stmdaeq	r0, {r3, r4, r6, fp, sp}

080028d4 <_PAUSE>:
 80028d4:	55415005 	strbpl	r5, [r1, #-5]
 80028d8:	bf004553 	svclt	0x00004553

080028dc <PAUSE>:
 80028dc:	4750      	bx	sl
 80028de:	bf00      	nop
 80028e0:	08002fa1 	stmdaeq	r0, {r0, r5, r7, r8, r9, sl, fp, sp}
 80028e4:	080029ad 	stmdaeq	r0, {r0, r2, r3, r5, r7, r8, fp, sp}

080028e8 <PAUSE_LOOP>:
 80028e8:	08002fa1 	stmdaeq	r0, {r0, r5, r7, r8, r9, sl, fp, sp}
 80028ec:	080029c1 	stmdaeq	r0, {r0, r6, r7, r8, fp, sp}
 80028f0:	0800297b 	stmdaeq	r0, {r0, r1, r3, r4, r5, r6, r8, fp, sp}
 80028f4:	08002900 	stmdaeq	r0, {r8, fp, sp}
 80028f8:	0800298f 	stmdaeq	r0, {r0, r1, r2, r3, r7, r8, fp, sp}
 80028fc:	080028e8 	stmdaeq	r0, {r3, r5, r6, r7, fp, sp}

08002900 <PAUSE_EXIT>:
 8002900:	0800277b 	stmdaeq	r0, {r0, r1, r3, r4, r5, r6, r8, r9, sl, sp}
 8002904:	080028d4 	stmdaeq	r0, {r2, r4, r6, r7, fp, sp}

08002908 <_ULED>:
 8002908:	454c5504 	strbmi	r5, [ip, #-1284]	; 0xfffffafc
 800290c:	bf000044 	svclt	0x00000044

08002910 <ULED>:
 8002910:	f44f 5000 	mov.w	r0, #8192	; 0x2000
 8002914:	f44f 6100 	mov.w	r1, #2048	; 0x800
 8002918:	f2c4 0102 	movt	r1, #16386	; 0x4002
 800291c:	0036      	movs	r6, r6
 800291e:	f857 6b04 	ldr.w	r6, [r7], #4
 8002922:	d003      	beq.n	800292c <ULED_OFF>
 8002924:	ea4f 4000 	mov.w	r0, r0, lsl #16
 8002928:	6188      	str	r0, [r1, #24]
 800292a:	e723      	b.n	8002774 <INEXT>

0800292c <ULED_OFF>:
 800292c:	6188      	str	r0, [r1, #24]
 800292e:	e721      	b.n	8002774 <INEXT>
 8002930:	08002908 	stmdaeq	r0, {r3, r8, fp, sp}

08002934 <_NOP>:
 8002934:	504f4e03 	subpl	r4, pc, r3, lsl #28

08002938 <NOP>:
 8002938:	e71c      	b.n	8002774 <INEXT>

0800293a <DOLIT>:
 800293a:	f847 6d04 	str.w	r6, [r7, #-4]!
 800293e:	f85c 6b04 	ldr.w	r6, [ip], #4
 8002942:	e717      	b.n	8002774 <INEXT>
 8002944:	08002934 	stmdaeq	r0, {r2, r4, r5, r8, fp, sp}

08002948 <_EXECU>:
 8002948:	45584507 	ldrbmi	r4, [r8, #-1287]	; 0xfffffaf9
 800294c:	45545543 	ldrbmi	r5, [r4, #-1347]	; 0xfffffabd

08002950 <EXECU>:
 8002950:	f046 0501 	orr.w	r5, r6, #1
 8002954:	f857 6b04 	ldr.w	r6, [r7], #4
 8002958:	4728      	bx	r5
 800295a:	e70b      	b.n	8002774 <INEXT>

0800295c <DONXT>:
 800295c:	f8d8 2000 	ldr.w	r2, [r8]
 8002960:	b922      	cbnz	r2, 800296c <NEXT1>
 8002962:	f108 0804 	add.w	r8, r8, #4
 8002966:	f10c 0c04 	add.w	ip, ip, #4
 800296a:	e703      	b.n	8002774 <INEXT>

0800296c <NEXT1>:
 800296c:	f1a2 0201 	sub.w	r2, r2, #1
 8002970:	f8c8 2000 	str.w	r2, [r8]
 8002974:	f8dc c000 	ldr.w	ip, [ip]
 8002978:	e6fc      	b.n	8002774 <INEXT>

0800297a <QBRAN>:
 800297a:	0036      	movs	r6, r6
 800297c:	f857 6b04 	ldr.w	r6, [r7], #4
 8002980:	d102      	bne.n	8002988 <QBRAN1>
 8002982:	f8dc c000 	ldr.w	ip, [ip]
 8002986:	e6f5      	b.n	8002774 <INEXT>

08002988 <QBRAN1>:
 8002988:	f10c 0c04 	add.w	ip, ip, #4
 800298c:	e6f2      	b.n	8002774 <INEXT>

0800298e <BRAN>:
 800298e:	f8dc c000 	ldr.w	ip, [ip]
 8002992:	e6ef      	b.n	8002774 <INEXT>
 8002994:	08002948 	stmdaeq	r0, {r3, r6, r8, fp, sp}

08002998 <_EXIT>:
 8002998:	49584504 	ldmdbmi	r8, {r2, r8, sl, lr}^
 800299c:	bf000054 	svclt	0x00000054

080029a0 <EXIT>:
 80029a0:	0800277b 	stmdaeq	r0, {r0, r1, r3, r4, r5, r6, r8, r9, sl, sp}
 80029a4:	08002998 	stmdaeq	r0, {r3, r4, r7, r8, fp, sp}

080029a8 <_STORE>:
 80029a8:	bf002101 	svclt	0x00002101

080029ac <STORE>:
 80029ac:	f857 5b04 	ldr.w	r5, [r7], #4
 80029b0:	6035      	str	r5, [r6, #0]
 80029b2:	f857 6b04 	ldr.w	r6, [r7], #4
 80029b6:	e6dd      	b.n	8002774 <INEXT>
 80029b8:	080029a8 	stmdaeq	r0, {r3, r5, r7, r8, fp, sp}

080029bc <_AT>:
 80029bc:	bf004001 	svclt	0x00004001

080029c0 <AT>:
 80029c0:	6836      	ldr	r6, [r6, #0]
 80029c2:	e6d7      	b.n	8002774 <INEXT>
 80029c4:	080029bc 	stmdaeq	r0, {r2, r3, r4, r5, r7, r8, fp, sp}

080029c8 <_CSTOR>:
 80029c8:	00214302 	eoreq	r4, r1, r2, lsl #6

080029cc <CSTOR>:
 80029cc:	f857 5b04 	ldr.w	r5, [r7], #4
 80029d0:	7035      	strb	r5, [r6, #0]
 80029d2:	f857 6b04 	ldr.w	r6, [r7], #4
 80029d6:	e6cd      	b.n	8002774 <INEXT>
 80029d8:	080029c8 	stmdaeq	r0, {r3, r6, r7, r8, fp, sp}

080029dc <_CAT>:
 80029dc:	00404302 	subeq	r4, r0, r2, lsl #6

080029e0 <CAT>:
 80029e0:	7836      	ldrb	r6, [r6, #0]
 80029e2:	e6c7      	b.n	8002774 <INEXT>
 80029e4:	080029dc 	stmdaeq	r0, {r2, r3, r4, r6, r7, r8, fp, sp}

080029e8 <_ARRAYAT>:
 80029e8:	52524106 	subspl	r4, r2, #-2147483647	; 0x80000001
 80029ec:	00405941 	subeq	r5, r0, r1, asr #18

080029f0 <ARRAYAT>:
 80029f0:	f04f 0002 	mov.w	r0, #2
 80029f4:	fa06 f000 	lsl.w	r0, r6, r0
 80029f8:	f857 6b04 	ldr.w	r6, [r7], #4
 80029fc:	4406      	add	r6, r0
 80029fe:	6836      	ldr	r6, [r6, #0]
 8002a00:	e6b8      	b.n	8002774 <INEXT>
 8002a02:	080029e8 	stmdaeq	r0, {r3, r5, r6, r7, r8, fp, sp}

08002a06 <_RFROM>:
 8002a06:	003e5202 	eorseq	r5, lr, r2, lsl #4
 8002a0a:	bf00      	nop

08002a0c <RFROM>:
 8002a0c:	f847 6d04 	str.w	r6, [r7, #-4]!
 8002a10:	f858 6b04 	ldr.w	r6, [r8], #4
 8002a14:	e6ae      	b.n	8002774 <INEXT>
 8002a16:	08002a06 	stmdaeq	r0, {r1, r2, r9, fp, sp}

08002a1a <_DRFROM>:
 8002a1a:	3e523203 	cdpcc	2, 5, cr3, cr2, cr3, {0}
 8002a1e:	bf00      	nop

08002a20 <DRFROM>:
 8002a20:	f847 6d04 	str.w	r6, [r7, #-4]!
 8002a24:	f858 6b04 	ldr.w	r6, [r8], #4
 8002a28:	f847 6d04 	str.w	r6, [r7, #-4]!
 8002a2c:	f858 6b04 	ldr.w	r6, [r8], #4
 8002a30:	e6a0      	b.n	8002774 <INEXT>
 8002a32:	08002a1a 	stmdaeq	r0, {r1, r3, r4, r9, fp, sp}

08002a36 <_RAT>:
 8002a36:	00405202 	subeq	r5, r0, r2, lsl #4
 8002a3a:	bf00      	nop

08002a3c <RAT>:
 8002a3c:	f847 6d04 	str.w	r6, [r7, #-4]!
 8002a40:	f8d8 6000 	ldr.w	r6, [r8]
 8002a44:	e696      	b.n	8002774 <INEXT>
 8002a46:	08002a36 	stmdaeq	r0, {r1, r2, r4, r5, r9, fp, sp}

08002a4a <_TOR>:
 8002a4a:	00523e02 	subseq	r3, r2, r2, lsl #28
 8002a4e:	bf00      	nop

08002a50 <TOR>:
 8002a50:	f848 6d04 	str.w	r6, [r8, #-4]!
 8002a54:	f857 6b04 	ldr.w	r6, [r7], #4
 8002a58:	e68c      	b.n	8002774 <INEXT>
 8002a5a:	08002a4a 	stmdaeq	r0, {r1, r3, r6, r9, fp, sp}

08002a5e <_DTOR>:
 8002a5e:	523e3203 	eorspl	r3, lr, #805306368	; 0x30000000
 8002a62:	bf00      	nop

08002a64 <DTOR>:
 8002a64:	f848 6d04 	str.w	r6, [r8, #-4]!
 8002a68:	f857 6b04 	ldr.w	r6, [r7], #4
 8002a6c:	f848 6d04 	str.w	r6, [r8, #-4]!
 8002a70:	f857 6b04 	ldr.w	r6, [r7], #4
 8002a74:	e67e      	b.n	8002774 <INEXT>
 8002a76:	08002a5e 	stmdaeq	r0, {r1, r2, r3, r4, r6, r9, fp, sp}

08002a7a <_RPSTOR>:
 8002a7a:	21505203 	cmpcs	r0, r3, lsl #4
 8002a7e:	bf00      	nop

08002a80 <RPSTOR>:
 8002a80:	46b0      	mov	r8, r6
 8002a82:	f857 6b04 	ldr.w	r6, [r7], #4
 8002a86:	e675      	b.n	8002774 <INEXT>
 8002a88:	08002a7a 	stmdaeq	r0, {r1, r3, r4, r5, r6, r9, fp, sp}

08002a8c <_SPSTOR>:
 8002a8c:	21505303 	cmpcs	r0, r3, lsl #6

08002a90 <SPSTOR>:
 8002a90:	4637      	mov	r7, r6
 8002a92:	ea86 0606 	eor.w	r6, r6, r6
 8002a96:	e66d      	b.n	8002774 <INEXT>
 8002a98:	08002a8c 	stmdaeq	r0, {r2, r3, r7, r9, fp, sp}

08002a9c <_SPAT>:
 8002a9c:	40505303 	subsmi	r5, r0, r3, lsl #6

08002aa0 <SPAT>:
 8002aa0:	f847 6d04 	str.w	r6, [r7, #-4]!
 8002aa4:	463e      	mov	r6, r7
 8002aa6:	e665      	b.n	8002774 <INEXT>
 8002aa8:	08002a9c 	stmdaeq	r0, {r2, r3, r4, r7, r9, fp, sp}

08002aac <_RPAT>:
 8002aac:	40505203 	subsmi	r5, r0, r3, lsl #4

08002ab0 <RPAT>:
 8002ab0:	f847 6d04 	str.w	r6, [r7, #-4]!
 8002ab4:	4646      	mov	r6, r8
 8002ab6:	e65d      	b.n	8002774 <INEXT>
 8002ab8:	08002aac 	stmdaeq	r0, {r2, r3, r5, r7, r9, fp, sp}

08002abc <_DROP>:
 8002abc:	4f524404 	svcmi	0x00524404
 8002ac0:	bf000050 	svclt	0x00000050

08002ac4 <DROP>:
 8002ac4:	f857 6b04 	ldr.w	r6, [r7], #4
 8002ac8:	e654      	b.n	8002774 <INEXT>
 8002aca:	08002abc 	stmdaeq	r0, {r2, r3, r4, r5, r7, r9, fp, sp}

08002ace <_DUPP>:
 8002ace:	50554403 	subspl	r4, r5, r3, lsl #8
 8002ad2:	bf00      	nop

08002ad4 <DUPP>:
 8002ad4:	f847 6d04 	str.w	r6, [r7, #-4]!
 8002ad8:	e64c      	b.n	8002774 <INEXT>
 8002ada:	08002ace 	stmdaeq	r0, {r1, r2, r3, r6, r7, r9, fp, sp}

08002ade <_SWAP>:
 8002ade:	41575304 	cmpmi	r7, r4, lsl #6
 8002ae2:	 	ldmdavs	sp!, {r4, r6}

08002ae4 <SWAP>:
 8002ae4:	683d      	ldr	r5, [r7, #0]
 8002ae6:	603e      	str	r6, [r7, #0]
 8002ae8:	462e      	mov	r6, r5
 8002aea:	e643      	b.n	8002774 <INEXT>
 8002aec:	08002ade 	stmdaeq	r0, {r1, r2, r3, r4, r6, r7, r9, fp, sp}

08002af0 <_OVER>:
 8002af0:	45564f04 	ldrbmi	r4, [r6, #-3844]	; 0xfffff0fc
 8002af4:	bf000052 	svclt	0x00000052

08002af8 <OVER>:
 8002af8:	f847 6d04 	str.w	r6, [r7, #-4]!
 8002afc:	687e      	ldr	r6, [r7, #4]
 8002afe:	e639      	b.n	8002774 <INEXT>
 8002b00:	08002af0 	stmdaeq	r0, {r4, r5, r6, r7, r9, fp, sp}

08002b04 <_ZLESS>:
 8002b04:	003c3002 	eorseq	r3, ip, r2

08002b08 <ZLESS>:
 8002b08:	ea4f 76e6 	mov.w	r6, r6, asr #31
 8002b0c:	e632      	b.n	8002774 <INEXT>
 8002b0e:	08002b04 	stmdaeq	r0, {r2, r8, r9, fp, sp}

08002b12 <_ANDD>:
 8002b12:	444e4103 	strbmi	r4, [lr], #-259	; 0xfffffefd
 8002b16:	bf00      	nop

08002b18 <ANDD>:
 8002b18:	f857 5b04 	ldr.w	r5, [r7], #4
 8002b1c:	ea06 0605 	and.w	r6, r6, r5
 8002b20:	e628      	b.n	8002774 <INEXT>
 8002b22:	08002b12 	stmdaeq	r0, {r1, r4, r8, r9, fp, sp}

08002b26 <_ORR>:
 8002b26:	00524f02 	subseq	r4, r2, r2, lsl #30
 8002b2a:	bf00      	nop

08002b2c <ORR>:
 8002b2c:	f857 5b04 	ldr.w	r5, [r7], #4
 8002b30:	ea46 0605 	orr.w	r6, r6, r5
 8002b34:	e61e      	b.n	8002774 <INEXT>
 8002b36:	08002b26 	stmdaeq	r0, {r1, r2, r5, r8, r9, fp, sp}

08002b3a <_XORR>:
 8002b3a:	524f5803 	subpl	r5, pc, #196608	; 0x30000
 8002b3e:	bf00      	nop

08002b40 <XORR>:
 8002b40:	f857 5b04 	ldr.w	r5, [r7], #4
 8002b44:	ea86 0605 	eor.w	r6, r6, r5
 8002b48:	e614      	b.n	8002774 <INEXT>
 8002b4a:	08002b3a 	stmdaeq	r0, {r1, r3, r4, r5, r8, r9, fp, sp}

08002b4e <_UPLUS>:
 8002b4e:	2b4d5503 	blcs	9357f62 <OPTKEY1+0x11c5527>
 8002b52:	bf00      	nop

08002b54 <UPLUS>:
 8002b54:	683d      	ldr	r5, [r7, #0]
 8002b56:	19ad      	adds	r5, r5, r6
 8002b58:	f04f 0600 	mov.w	r6, #0
 8002b5c:	f146 0600 	adc.w	r6, r6, #0
 8002b60:	603d      	str	r5, [r7, #0]
 8002b62:	e607      	b.n	8002774 <INEXT>
 8002b64:	08002b4e 	stmdaeq	r0, {r1, r2, r3, r6, r8, r9, fp, sp}

08002b68 <_RSHIFT>:
 8002b68:	48535206 	ldmdami	r3, {r1, r2, r9, ip, lr}^
 8002b6c:	00544649 	subseq	r4, r4, r9, asr #12

08002b70 <RSHIFT>:
 8002b70:	f857 5b04 	ldr.w	r5, [r7], #4
 8002b74:	fa45 f606 	asr.w	r6, r5, r6
 8002b78:	e5fc      	b.n	8002774 <INEXT>
 8002b7a:	08002b68 	stmdaeq	r0, {r3, r5, r6, r8, r9, fp, sp}

08002b7e <_LSHIFT>:
 8002b7e:	48534c06 	ldmdami	r3, {r1, r2, sl, fp, lr}^
 8002b82:	00544649 	subseq	r4, r4, r9, asr #12
 8002b86:	bf00      	nop

08002b88 <LSHIFT>:
 8002b88:	f857 5b04 	ldr.w	r5, [r7], #4
 8002b8c:	fa05 f606 	lsl.w	r6, r5, r6
 8002b90:	e5f0      	b.n	8002774 <INEXT>
 8002b92:	08002b7e 	stmdaeq	r0, {r1, r2, r3, r4, r5, r6, r8, r9, fp, sp}

08002b96 <_PLUS>:
 8002b96:	 			; <UNDEFINED> instruction: 0xf8572b01

08002b98 <PLUS>:
 8002b98:	f857 5b04 	ldr.w	r5, [r7], #4
 8002b9c:	442e      	add	r6, r5
 8002b9e:	e5e9      	b.n	8002774 <INEXT>
 8002ba0:	08002b96 	stmdaeq	r0, {r1, r2, r4, r7, r8, r9, fp, sp}

08002ba4 <_SUBB>:
 8002ba4:	bf002d01 	svclt	0x00002d01

08002ba8 <SUBB>:
 8002ba8:	f857 5b04 	ldr.w	r5, [r7], #4
 8002bac:	ebc6 0605 	rsb	r6, r6, r5
 8002bb0:	e5e0      	b.n	8002774 <INEXT>
 8002bb2:	08002ba4 	stmdaeq	r0, {r2, r5, r7, r8, r9, fp, sp}

08002bb6 <_STAR>:
 8002bb6:	 			; <UNDEFINED> instruction: 0xf8572a01

08002bb8 <STAR>:
 8002bb8:	f857 5b04 	ldr.w	r5, [r7], #4
 8002bbc:	fb05 f606 	mul.w	r6, r5, r6
 8002bc0:	e5d8      	b.n	8002774 <INEXT>
 8002bc2:	08002bb6 	stmdaeq	r0, {r1, r2, r4, r5, r7, r8, r9, fp, sp}

08002bc6 <_UMSTA>:
 8002bc6:	2a4d5503 	bcs	9357fda <OPTKEY1+0x11c559f>
 8002bca:	bf00      	nop

08002bcc <UMSTA>:
 8002bcc:	683d      	ldr	r5, [r7, #0]
 8002bce:	fba6 2305 	umull	r2, r3, r6, r5
 8002bd2:	603a      	str	r2, [r7, #0]
 8002bd4:	461e      	mov	r6, r3
 8002bd6:	e5cd      	b.n	8002774 <INEXT>
 8002bd8:	08002bc6 	stmdaeq	r0, {r1, r2, r6, r7, r8, r9, fp, sp}

08002bdc <_MSTAR>:
 8002bdc:	002a4d02 	eoreq	r4, sl, r2, lsl #26

08002be0 <MSTAR>:
 8002be0:	683d      	ldr	r5, [r7, #0]
 8002be2:	fb86 2305 	smull	r2, r3, r6, r5
 8002be6:	603a      	str	r2, [r7, #0]
 8002be8:	461e      	mov	r6, r3
 8002bea:	e5c3      	b.n	8002774 <INEXT>
 8002bec:	08002bdc 	stmdaeq	r0, {r2, r3, r4, r6, r7, r8, r9, fp, sp}

08002bf0 <_ONEP>:
 8002bf0:	002b3102 	eoreq	r3, fp, r2, lsl #2

08002bf4 <ONEP>:
 8002bf4:	f106 0601 	add.w	r6, r6, #1
 8002bf8:	e5bc      	b.n	8002774 <INEXT>
 8002bfa:	08002bf0 	stmdaeq	r0, {r4, r5, r6, r7, r8, r9, fp, sp}

08002bfe <_ONEM>:
 8002bfe:	002d3102 	eoreq	r3, sp, r2, lsl #2
 8002c02:	bf00      	nop

08002c04 <ONEM>:
 8002c04:	f1a6 0601 	sub.w	r6, r6, #1
 8002c08:	e5b4      	b.n	8002774 <INEXT>
 8002c0a:	08002bfe 	stmdaeq	r0, {r1, r2, r3, r4, r5, r6, r7, r8, r9, fp, sp}

08002c0e <_TWOP>:
 8002c0e:	002b3202 	eoreq	r3, fp, r2, lsl #4
 8002c12:	bf00      	nop

08002c14 <TWOP>:
 8002c14:	f106 0602 	add.w	r6, r6, #2
 8002c18:	e5ac      	b.n	8002774 <INEXT>
 8002c1a:	08002c0e 	stmdaeq	r0, {r1, r2, r3, sl, fp, sp}

08002c1e <_TWOM>:
 8002c1e:	002d3202 	eoreq	r3, sp, r2, lsl #4
 8002c22:	bf00      	nop

08002c24 <TWOM>:
 8002c24:	f1a6 0602 	sub.w	r6, r6, #2
 8002c28:	e5a4      	b.n	8002774 <INEXT>
 8002c2a:	08002c1e 	stmdaeq	r0, {r1, r2, r3, r4, sl, fp, sp}

08002c2e <_CELLP>:
 8002c2e:	4c454305 	mcrrmi	3, 0, r4, r5, cr5
 8002c32:	 			; <UNDEFINED> instruction: 0xf1062b4c

08002c34 <CELLP>:
 8002c34:	f106 0604 	add.w	r6, r6, #4
 8002c38:	e59c      	b.n	8002774 <INEXT>
 8002c3a:	08002c2e 	stmdaeq	r0, {r1, r2, r3, r5, sl, fp, sp}

08002c3e <_CELLM>:
 8002c3e:	4c454305 	mcrrmi	3, 0, r4, r5, cr5
 8002c42:	 			; <UNDEFINED> instruction: 0xf1a62d4c

08002c44 <CELLM>:
 8002c44:	f1a6 0604 	sub.w	r6, r6, #4
 8002c48:	e594      	b.n	8002774 <INEXT>
 8002c4a:	08002c3e 	stmdaeq	r0, {r1, r2, r3, r4, r5, sl, fp, sp}

08002c4e <_BLANK>:
 8002c4e:	004c4202 	subeq	r4, ip, r2, lsl #4
 8002c52:	bf00      	nop

08002c54 <BLANK>:
 8002c54:	f847 6d04 	str.w	r6, [r7, #-4]!
 8002c58:	f04f 0620 	mov.w	r6, #32
 8002c5c:	e58a      	b.n	8002774 <INEXT>
 8002c5e:	08002c4e 	stmdaeq	r0, {r1, r2, r3, r6, sl, fp, sp}

08002c62 <_CELLS>:
 8002c62:	4c454305 	mcrrmi	3, 0, r4, r5, cr5
 8002c66:	 	b	93d799e <OPTKEY1+0x1244f63>

08002c68 <CELLS>:
 8002c68:	ea4f 0686 	mov.w	r6, r6, lsl #2
 8002c6c:	e582      	b.n	8002774 <INEXT>
 8002c6e:	08002c62 	stmdaeq	r0, {r1, r5, r6, sl, fp, sp}

08002c72 <_CELLSL>:
 8002c72:	4c454305 	mcrrmi	3, 0, r4, r5, cr5
 8002c76:	 	b	93ce9ae <OPTKEY1+0x123bf73>

08002c78 <CELLSL>:
 8002c78:	ea4f 06a6 	mov.w	r6, r6, asr #2
 8002c7c:	e57a      	b.n	8002774 <INEXT>
 8002c7e:	08002c72 	stmdaeq	r0, {r1, r4, r5, r6, sl, fp, sp}

08002c82 <_TWOST>:
 8002c82:	002a3202 	eoreq	r3, sl, r2, lsl #4
 8002c86:	bf00      	nop

08002c88 <TWOST>:
 8002c88:	ea4f 0646 	mov.w	r6, r6, lsl #1
 8002c8c:	e572      	b.n	8002774 <INEXT>
 8002c8e:	08002c82 	stmdaeq	r0, {r1, r7, sl, fp, sp}

08002c92 <_TWOSL>:
 8002c92:	002f3202 	eoreq	r3, pc, r2, lsl #4
 8002c96:	bf00      	nop

08002c98 <TWOSL>:
 8002c98:	ea4f 0666 	mov.w	r6, r6, asr #1
 8002c9c:	e56a      	b.n	8002774 <INEXT>
 8002c9e:	08002c92 	stmdaeq	r0, {r1, r4, r7, sl, fp, sp}

08002ca2 <_QDUP>:
 8002ca2:	55443f04 	strbpl	r3, [r4, #-3844]	; 0xfffff0fc
 8002ca6:	 	eorseq	r0, r5, r0, asr r0

08002ca8 <QDUP>:
 8002ca8:	0035      	movs	r5, r6
 8002caa:	bf18      	it	ne
 8002cac:	f847 6d04 	strne.w	r6, [r7, #-4]!
 8002cb0:	e560      	b.n	8002774 <INEXT>
 8002cb2:	08002ca2 	stmdaeq	r0, {r1, r5, r7, sl, fp, sp}

08002cb6 <_ROT>:
 8002cb6:	544f5203 	strbpl	r5, [pc], #-515	; 8002cbe <ROT+0x2>
 8002cba:	bf00      	nop

08002cbc <ROT>:
 8002cbc:	6838      	ldr	r0, [r7, #0]
 8002cbe:	603e      	str	r6, [r7, #0]
 8002cc0:	687e      	ldr	r6, [r7, #4]
 8002cc2:	6078      	str	r0, [r7, #4]
 8002cc4:	e556      	b.n	8002774 <INEXT>
 8002cc6:	08002cb6 	stmdaeq	r0, {r1, r2, r4, r5, r7, sl, fp, sp}

08002cca <_NROT>:
 8002cca:	4f522d04 	svcmi	0x00522d04
 8002cce:	 	ldmdavs	r8!, {r2, r4, r6}^

08002cd0 <NROT>:
 8002cd0:	6878      	ldr	r0, [r7, #4]
 8002cd2:	607e      	str	r6, [r7, #4]
 8002cd4:	683e      	ldr	r6, [r7, #0]
 8002cd6:	6038      	str	r0, [r7, #0]
 8002cd8:	e54c      	b.n	8002774 <INEXT>
 8002cda:	08002cca 	stmdaeq	r0, {r1, r3, r6, r7, sl, fp, sp}

08002cde <_DDROP>:
 8002cde:	52443205 	subpl	r3, r4, #1342177280	; 0x50000000
 8002ce2:	 			; <UNDEFINED> instruction: 0xf857504f

08002ce4 <DDROP>:
 8002ce4:	f857 6b04 	ldr.w	r6, [r7], #4
 8002ce8:	f857 6b04 	ldr.w	r6, [r7], #4
 8002cec:	e542      	b.n	8002774 <INEXT>
 8002cee:	08002cde 	stmdaeq	r0, {r1, r2, r3, r4, r6, r7, sl, fp, sp}

08002cf2 <_TDROP>:
 8002cf2:	52443305 	subpl	r3, r4, #335544320	; 0x14000000
 8002cf6:	 			; <UNDEFINED> instruction: 0xf107504f

08002cf8 <TDROP>:
 8002cf8:	f107 0708 	add.w	r7, r7, #8
 8002cfc:	f857 6b04 	ldr.w	r6, [r7], #4
 8002d00:	e538      	b.n	8002774 <INEXT>
 8002d02:	08002cf2 	stmdaeq	r0, {r1, r4, r5, r6, r7, sl, fp, sp}

08002d06 <_DDUP>:
 8002d06:	55443204 	strbpl	r3, [r4, #-516]	; 0xfffffdfc
 8002d0a:	 	ldmdavs	r8!, {r4, r6}

08002d0c <DDUP>:
 8002d0c:	6838      	ldr	r0, [r7, #0]
 8002d0e:	f847 6d04 	str.w	r6, [r7, #-4]!
 8002d12:	f847 0d04 	str.w	r0, [r7, #-4]!
 8002d16:	e52d      	b.n	8002774 <INEXT>
 8002d18:	08002d06 	stmdaeq	r0, {r1, r2, r8, sl, fp, sp}

08002d1c <_DPLUS>:
 8002d1c:	002b4402 	eoreq	r4, fp, r2, lsl #8

08002d20 <DPLUS>:
 8002d20:	f857 5b04 	ldr.w	r5, [r7], #4
 8002d24:	f857 2b04 	ldr.w	r2, [r7], #4
 8002d28:	683b      	ldr	r3, [r7, #0]
 8002d2a:	18ed      	adds	r5, r5, r3
 8002d2c:	603d      	str	r5, [r7, #0]
 8002d2e:	eb46 0602 	adc.w	r6, r6, r2
 8002d32:	e51f      	b.n	8002774 <INEXT>
 8002d34:	08002d1c 	stmdaeq	r0, {r2, r3, r4, r8, sl, fp, sp}

08002d38 <_DABS>:
 8002d38:	42414404 	submi	r4, r1, #4, 8	; 0x4000000
 8002d3c:	bf000053 	svclt	0x00000053

08002d40 <DABS>:
 8002d40:	f016 4f00 	tst.w	r6, #2147483648	; 0x80000000
 8002d44:	d009      	beq.n	8002d5a <DABS+0x1a>
 8002d46:	ea6f 0606 	mvn.w	r6, r6
 8002d4a:	683d      	ldr	r5, [r7, #0]
 8002d4c:	ea6f 0505 	mvn.w	r5, r5
 8002d50:	3501      	adds	r5, #1
 8002d52:	603d      	str	r5, [r7, #0]
 8002d54:	d301      	bcc.n	8002d5a <DABS+0x1a>
 8002d56:	f106 0601 	add.w	r6, r6, #1
 8002d5a:	e50b      	b.n	8002774 <INEXT>
 8002d5c:	08002d38 	stmdaeq	r0, {r3, r4, r5, r8, sl, fp, sp}

08002d60 <_UDGREAT>:
 8002d60:	3e445503 	cdpcc	5, 4, cr5, cr4, cr3, {0}

08002d64 <UDGREAT>:
 8002d64:	f857 5b04 	ldr.w	r5, [r7], #4
 8002d68:	cf03      	ldmia	r7!, {r0, r1}
 8002d6a:	42b0      	cmp	r0, r6
 8002d6c:	d802      	bhi.n	8002d74 <UDGREAT+0x10>
 8002d6e:	d404      	bmi.n	8002d7a <UDGREAT+0x16>
 8002d70:	42a9      	cmp	r1, r5
 8002d72:	d902      	bls.n	8002d7a <UDGREAT+0x16>
 8002d74:	f04f 36ff 	mov.w	r6, #4294967295	; 0xffffffff
 8002d78:	e4fc      	b.n	8002774 <INEXT>
 8002d7a:	f04f 0600 	mov.w	r6, #0
 8002d7e:	e4f9      	b.n	8002774 <INEXT>
 8002d80:	08002d60 	stmdaeq	r0, {r5, r6, r8, sl, fp, sp}

08002d84 <_DZEQUAL>:
 8002d84:	3d304403 	cfldrscc	mvf4, [r0, #-12]!

08002d88 <DZEQUAL>:
 8002d88:	4630      	mov	r0, r6
 8002d8a:	f857 6b04 	ldr.w	r6, [r7], #4
 8002d8e:	ea46 0600 	orr.w	r6, r6, r0
 8002d92:	d001      	beq.n	8002d98 <DZEQUAL+0x10>
 8002d94:	f06f 0600 	mvn.w	r6, #0
 8002d98:	e4ec      	b.n	8002774 <INEXT>
 8002d9a:	08002d84 	stmdaeq	r0, {r2, r7, r8, sl, fp, sp}

08002d9e <_INVER>:
 8002d9e:	544f4e03 	strbpl	r4, [pc], #-3587	; 8002da6 <INVER+0x2>
 8002da2:	bf00      	nop

08002da4 <INVER>:
 8002da4:	ea6f 0606 	mvn.w	r6, r6
 8002da8:	e4e4      	b.n	8002774 <INEXT>
 8002daa:	08002d9e 	stmdaeq	r0, {r1, r2, r3, r4, r7, r8, sl, fp, sp}

08002dae <_NEGAT>:
 8002dae:	47454e06 	strbmi	r4, [r5, -r6, lsl #28]
 8002db2:	00455441 	subeq	r5, r5, r1, asr #8
 8002db6:	bf00      	nop

08002db8 <NEGAT>:
 8002db8:	f1c6 0600 	rsb	r6, r6, #0
 8002dbc:	e4da      	b.n	8002774 <INEXT>
 8002dbe:	08002dae 	stmdaeq	r0, {r1, r2, r3, r5, r7, r8, sl, fp, sp}

08002dc2 <_ABSS>:
 8002dc2:	53424103 	movtpl	r4, #8451	; 0x2103
 8002dc6:	bf00      	nop

08002dc8 <ABSS>:
 8002dc8:	f016 4f00 	tst.w	r6, #2147483648	; 0x80000000
 8002dcc:	bf18      	it	ne
 8002dce:	4276      	negne	r6, r6
 8002dd0:	e4d0      	b.n	8002774 <INEXT>
 8002dd2:	08002dc2 	stmdaeq	r0, {r1, r6, r7, r8, sl, fp, sp}

08002dd6 <_CLZ>:
 8002dd6:	5a4c4303 	bpl	93139ea <OPTKEY1+0x1180faf>
 8002dda:	bf00      	nop

08002ddc <CLZ>:
 8002ddc:	fab6 f686 	clz	r6, r6
 8002de0:	e4c8      	b.n	8002774 <INEXT>
 8002de2:	08002dd6 	stmdaeq	r0, {r1, r2, r4, r6, r7, r8, sl, fp, sp}

08002de6 <_CTZ>:
 8002de6:	5a544303 	bpl	95139fa <OPTKEY1+0x1380fbf>
 8002dea:	bf00      	nop

08002dec <CTZ>:
 8002dec:	ea80 0000 	eor.w	r0, r0, r0
 8002df0:	f016 0f01 	tst.w	r6, #1
 8002df4:	d104      	bne.n	8002e00 <CTZ+0x14>
 8002df6:	ea4f 0656 	mov.w	r6, r6, lsr #1
 8002dfa:	f100 0001 	add.w	r0, r0, #1
 8002dfe:	e7f7      	b.n	8002df0 <CTZ+0x4>
 8002e00:	4606      	mov	r6, r0
 8002e02:	e4b7      	b.n	8002774 <INEXT>
 8002e04:	08002de6 	stmdaeq	r0, {r1, r2, r5, r6, r7, r8, sl, fp, sp}

08002e08 <_ZEQUAL>:
 8002e08:	003d3002 	eorseq	r3, sp, r2

08002e0c <ZEQUAL>:
 8002e0c:	b916      	cbnz	r6, 8002e14 <ZEQUAL+0x8>
 8002e0e:	f04f 36ff 	mov.w	r6, #4294967295	; 0xffffffff
 8002e12:	e4af      	b.n	8002774 <INEXT>
 8002e14:	ea86 0606 	eor.w	r6, r6, r6
 8002e18:	e4ac      	b.n	8002774 <INEXT>
 8002e1a:	08002e08 	stmdaeq	r0, {r3, r9, sl, fp, sp}

08002e1e <_EQUAL>:
 8002e1e:	 			; <UNDEFINED> instruction: 0xf8573d01

08002e20 <EQUAL>:
 8002e20:	f857 5b04 	ldr.w	r5, [r7], #4
 8002e24:	42ae      	cmp	r6, r5
 8002e26:	bf0c      	ite	eq
 8002e28:	f06f 0600 	mvneq.w	r6, #0
 8002e2c:	2600      	movne	r6, #0
 8002e2e:	e4a1      	b.n	8002774 <INEXT>
 8002e30:	08002e1e 	stmdaeq	r0, {r1, r2, r3, r4, r9, sl, fp, sp}

08002e34 <_DIFF>:
 8002e34:	003e3c02 	eorseq	r3, lr, r2, lsl #24

08002e38 <DIFF>:
 8002e38:	4630      	mov	r0, r6
 8002e3a:	f857 6b04 	ldr.w	r6, [r7], #4
 8002e3e:	ea86 0600 	eor.w	r6, r6, r0
 8002e42:	fab6 f086 	clz	r0, r6
 8002e46:	fa06 f600 	lsl.w	r6, r6, r0
 8002e4a:	ea4f 76e6 	mov.w	r6, r6, asr #31
 8002e4e:	e491      	b.n	8002774 <INEXT>
 8002e50:	08002e34 	stmdaeq	r0, {r2, r4, r5, r9, sl, fp, sp}

08002e54 <_ULESS>:
 8002e54:	003c5502 	eorseq	r5, ip, r2, lsl #10

08002e58 <ULESS>:
 8002e58:	f857 5b04 	ldr.w	r5, [r7], #4
 8002e5c:	42b5      	cmp	r5, r6
 8002e5e:	bf34      	ite	cc
 8002e60:	f06f 0600 	mvncc.w	r6, #0
 8002e64:	2600      	movcs	r6, #0
 8002e66:	e485      	b.n	8002774 <INEXT>
 8002e68:	08002e54 	stmdaeq	r0, {r2, r4, r6, r9, sl, fp, sp}

08002e6c <_LESS>:
 8002e6c:	bf003c01 	svclt	0x00003c01

08002e70 <LESS>:
 8002e70:	f857 5b04 	ldr.w	r5, [r7], #4
 8002e74:	42b5      	cmp	r5, r6
 8002e76:	bfb4      	ite	lt
 8002e78:	f06f 0600 	mvnlt.w	r6, #0
 8002e7c:	2600      	movge	r6, #0
 8002e7e:	e479      	b.n	8002774 <INEXT>
 8002e80:	08002e6c 	stmdaeq	r0, {r2, r3, r5, r6, r9, sl, fp, sp}

08002e84 <_UGREAT>:
 8002e84:	003e5502 	eorseq	r5, lr, r2, lsl #10

08002e88 <UGREAT>:
 8002e88:	f857 5b04 	ldr.w	r5, [r7], #4
 8002e8c:	42ae      	cmp	r6, r5
 8002e8e:	bf34      	ite	cc
 8002e90:	f06f 0600 	mvncc.w	r6, #0
 8002e94:	2600      	movcs	r6, #0
 8002e96:	e46d      	b.n	8002774 <INEXT>
 8002e98:	08002e84 	stmdaeq	r0, {r2, r7, r9, sl, fp, sp}

08002e9c <_GREAT>:
 8002e9c:	bf003e01 	svclt	0x00003e01

08002ea0 <GREAT>:
 8002ea0:	f857 5b04 	ldr.w	r5, [r7], #4
 8002ea4:	42b5      	cmp	r5, r6
 8002ea6:	bfcc      	ite	gt
 8002ea8:	f06f 0600 	mvngt.w	r6, #0
 8002eac:	2600      	movle	r6, #0
 8002eae:	e461      	b.n	8002774 <INEXT>
 8002eb0:	08002e9c 	stmdaeq	r0, {r2, r3, r4, r7, r9, sl, fp, sp}

08002eb4 <_MAX>:
 8002eb4:	58414d03 	stmdapl	r1, {r0, r1, r8, sl, fp, lr}^

08002eb8 <MAX>:
 8002eb8:	f857 5b04 	ldr.w	r5, [r7], #4
 8002ebc:	42b5      	cmp	r5, r6
 8002ebe:	bfc8      	it	gt
 8002ec0:	462e      	movgt	r6, r5
 8002ec2:	e457      	b.n	8002774 <INEXT>
 8002ec4:	08002eb4 	stmdaeq	r0, {r2, r4, r5, r7, r9, sl, fp, sp}

08002ec8 <_MIN>:
 8002ec8:	4e494d03 	cdpmi	13, 4, cr4, cr9, cr3, {0}

08002ecc <MIN>:
 8002ecc:	f857 5b04 	ldr.w	r5, [r7], #4
 8002ed0:	42b5      	cmp	r5, r6
 8002ed2:	bfb8      	it	lt
 8002ed4:	462e      	movlt	r6, r5
 8002ed6:	e44d      	b.n	8002774 <INEXT>
 8002ed8:	08002ec8 	stmdaeq	r0, {r3, r6, r7, r9, sl, fp, sp}

08002edc <_PSTOR>:
 8002edc:	00212b02 	eoreq	r2, r1, r2, lsl #22

08002ee0 <PSTOR>:
 8002ee0:	f857 5b04 	ldr.w	r5, [r7], #4
 8002ee4:	6832      	ldr	r2, [r6, #0]
 8002ee6:	442a      	add	r2, r5
 8002ee8:	6032      	str	r2, [r6, #0]
 8002eea:	f857 6b04 	ldr.w	r6, [r7], #4
 8002eee:	e441      	b.n	8002774 <INEXT>
 8002ef0:	08002edc 	stmdaeq	r0, {r2, r3, r4, r6, r7, r9, sl, fp, sp}

08002ef4 <_DSTOR>:
 8002ef4:	00213202 	eoreq	r3, r1, r2, lsl #4

08002ef8 <DSTOR>:
 8002ef8:	f857 5b04 	ldr.w	r5, [r7], #4
 8002efc:	f857 2b04 	ldr.w	r2, [r7], #4
 8002f00:	f846 5b04 	str.w	r5, [r6], #4
 8002f04:	6032      	str	r2, [r6, #0]
 8002f06:	f857 6b04 	ldr.w	r6, [r7], #4
 8002f0a:	e433      	b.n	8002774 <INEXT>
 8002f0c:	08002ef4 	stmdaeq	r0, {r2, r4, r5, r6, r7, r9, sl, fp, sp}

08002f10 <_DAT>:
 8002f10:	00404402 	subeq	r4, r0, r2, lsl #8

08002f14 <DAT>:
 8002f14:	6875      	ldr	r5, [r6, #4]
 8002f16:	f847 5d04 	str.w	r5, [r7, #-4]!
 8002f1a:	6836      	ldr	r6, [r6, #0]
 8002f1c:	e42a      	b.n	8002774 <INEXT>
 8002f1e:	08002f10 	stmdaeq	r0, {r4, r8, r9, sl, fp, sp}

08002f22 <_COUNT>:
 8002f22:	554f4305 	strbpl	r4, [pc, #-773]	; 8002c25 <TWOM+0x1>
 8002f26:	 			; <UNDEFINED> instruction: 0xf816544e

08002f28 <COUNT>:
 8002f28:	f816 5b01 	ldrb.w	r5, [r6], #1
 8002f2c:	f847 6d04 	str.w	r6, [r7, #-4]!
 8002f30:	462e      	mov	r6, r5
 8002f32:	e41f      	b.n	8002774 <INEXT>
 8002f34:	08002f22 	stmdaeq	r0, {r1, r5, r8, r9, sl, fp, sp}

08002f38 <_DNEGA>:
 8002f38:	454e4407 	strbmi	r4, [lr, #-1031]	; 0xfffffbf9
 8002f3c:	45544147 	ldrbmi	r4, [r4, #-327]	; 0xfffffeb9

08002f40 <DNEGA>:
 8002f40:	683d      	ldr	r5, [r7, #0]
 8002f42:	eba2 0202 	sub.w	r2, r2, r2
 8002f46:	1b55      	subs	r5, r2, r5
 8002f48:	eb62 0606 	sbc.w	r6, r2, r6
 8002f4c:	603d      	str	r5, [r7, #0]
 8002f4e:	e411      	b.n	8002774 <INEXT>

08002f50 <DOVAR>:
 8002f50:	f847 6d04 	str.w	r6, [r7, #-4]!
 8002f54:	4666      	mov	r6, ip
 8002f56:	f10c 0c04 	add.w	ip, ip, #4
 8002f5a:	e40e      	b.n	800277a <UNNEST>

08002f5c <DOCON>:
 8002f5c:	f847 6d04 	str.w	r6, [r7, #-4]!
 8002f60:	f85c 6b04 	ldr.w	r6, [ip], #4
 8002f64:	e409      	b.n	800277a <UNNEST>
 8002f66:	08002f38 	stmdaeq	r0, {r3, r4, r5, r8, r9, sl, fp, sp}

08002f6a <_SEED>:
 8002f6a:	45455304 	strbmi	r5, [r5, #-772]	; 0xfffffcfc
 8002f6e:	 			; <UNDEFINED> instruction: 0xf8470044

08002f70 <SEED>:
 8002f70:	f847 6d04 	str.w	r6, [r7, #-4]!
 8002f74:	f104 0604 	add.w	r6, r4, #4
 8002f78:	f7ff bbfc 	b.w	8002774 <INEXT>
 8002f7c:	08002f6a 	stmdaeq	r0, {r1, r3, r5, r6, r8, r9, sl, fp, sp}

08002f80 <_MSEC>:
 8002f80:	45534d04 	ldrbmi	r4, [r3, #-3332]	; 0xfffff2fc
 8002f84:	bf000043 	svclt	0x00000043

08002f88 <MSEC>:
 8002f88:	f847 6d04 	str.w	r6, [r7, #-4]!
 8002f8c:	f104 0608 	add.w	r6, r4, #8
 8002f90:	f7ff bbf0 	b.w	8002774 <INEXT>
 8002f94:	08002f80 	stmdaeq	r0, {r7, r8, r9, sl, fp, sp}

08002f98 <_TIMER>:
 8002f98:	4d495405 	cfstrdmi	mvd5, [r9, #-20]	; 0xffffffec
 8002f9c:	bf005245 	svclt	0x00005245

08002fa0 <TIMER>:
 8002fa0:	f847 6d04 	str.w	r6, [r7, #-4]!
 8002fa4:	f104 060c 	add.w	r6, r4, #12
 8002fa8:	f7ff bbe4 	b.w	8002774 <INEXT>
 8002fac:	08002f98 	stmdaeq	r0, {r3, r4, r7, r8, r9, sl, fp, sp}

08002fb0 <_TBOOT>:
 8002fb0:	4f422705 	svcmi	0x00422705
 8002fb4:	bf00544f 	svclt	0x0000544f

08002fb8 <TBOOT>:
 8002fb8:	f847 6d04 	str.w	r6, [r7, #-4]!
 8002fbc:	f104 0610 	add.w	r6, r4, #16
 8002fc0:	f7ff bbd8 	b.w	8002774 <INEXT>
 8002fc4:	08002fb0 	stmdaeq	r0, {r4, r5, r7, r8, r9, sl, fp, sp}

08002fc8 <_BASE>:
 8002fc8:	53414204 	movtpl	r4, #4612	; 0x1204
 8002fcc:	bf000045 	svclt	0x00000045

08002fd0 <BASE>:
 8002fd0:	f847 6d04 	str.w	r6, [r7, #-4]!
 8002fd4:	f104 061c 	add.w	r6, r4, #28
 8002fd8:	f7ff bbcc 	b.w	8002774 <INEXT>

08002fdc <TEMP>:
 8002fdc:	f847 6d04 	str.w	r6, [r7, #-4]!
 8002fe0:	f104 0620 	add.w	r6, r4, #32
 8002fe4:	f7ff bbc6 	b.w	8002774 <INEXT>
 8002fe8:	08002fc8 	stmdaeq	r0, {r3, r6, r7, r8, r9, sl, fp, sp}

08002fec <_SPAN>:
 8002fec:	41505304 	cmpmi	r0, r4, lsl #6
 8002ff0:	bf00004e 	svclt	0x0000004e

08002ff4 <SPAN>:
 8002ff4:	f847 6d04 	str.w	r6, [r7, #-4]!
 8002ff8:	f104 0624 	add.w	r6, r4, #36	; 0x24
 8002ffc:	f7ff bbba 	b.w	8002774 <INEXT>
 8003000:	08002fec 	stmdaeq	r0, {r2, r3, r5, r6, r7, r8, r9, sl, fp, sp}

08003004 <_INN>:
 8003004:	4e493e03 	cdpmi	14, 4, cr3, cr9, cr3, {0}

08003008 <INN>:
 8003008:	f847 6d04 	str.w	r6, [r7, #-4]!
 800300c:	f104 0628 	add.w	r6, r4, #40	; 0x28
 8003010:	f7ff bbb0 	b.w	8002774 <INEXT>
 8003014:	08003004 	stmdaeq	r0, {r2, ip, sp}

08003018 <_NTIB>:
 8003018:	49542304 	ldmdbmi	r4, {r2, r8, r9, sp}^
 800301c:	bf000042 	svclt	0x00000042

08003020 <NTIB>:
 8003020:	f847 6d04 	str.w	r6, [r7, #-4]!
 8003024:	f104 062c 	add.w	r6, r4, #44	; 0x2c
 8003028:	f7ff bba4 	b.w	8002774 <INEXT>
 800302c:	08003018 	stmdaeq	r0, {r3, r4, ip, sp}

08003030 <_TEVAL>:
 8003030:	56452705 	strbpl	r2, [r5], -r5, lsl #14
 8003034:	bf004c41 	svclt	0x00004c41

08003038 <TEVAL>:
 8003038:	f847 6d04 	str.w	r6, [r7, #-4]!
 800303c:	f104 0634 	add.w	r6, r4, #52	; 0x34
 8003040:	f7ff bb98 	b.w	8002774 <INEXT>
 8003044:	08003030 	stmdaeq	r0, {r4, r5, ip, sp}

08003048 <_HLD>:
 8003048:	444c4803 	strbmi	r4, [ip], #-2051	; 0xfffff7fd

0800304c <HLD>:
 800304c:	f847 6d04 	str.w	r6, [r7, #-4]!
 8003050:	f104 0638 	add.w	r6, r4, #56	; 0x38
 8003054:	f7ff bb8e 	b.w	8002774 <INEXT>
 8003058:	08003048 	stmdaeq	r0, {r3, r6, ip, sp}

0800305c <_CNTXT>:
 800305c:	4e4f4307 	cdpmi	3, 4, cr4, cr15, cr7, {0}
 8003060:	54584554 	ldrbpl	r4, [r8], #-1364	; 0xfffffaac

08003064 <CNTXT>:
 8003064:	f847 6d04 	str.w	r6, [r7, #-4]!
 8003068:	f104 063c 	add.w	r6, r4, #60	; 0x3c
 800306c:	f7ff bb82 	b.w	8002774 <INEXT>
 8003070:	0800305c 	stmdaeq	r0, {r2, r3, r4, r6, ip, sp}

08003074 <_CPP>:
 8003074:	00504302 	subseq	r4, r0, r2, lsl #6

08003078 <CPP>:
 8003078:	f847 6d04 	str.w	r6, [r7, #-4]!
 800307c:	f104 0644 	add.w	r6, r4, #68	; 0x44
 8003080:	f7ff bb78 	b.w	8002774 <INEXT>
 8003084:	08003074 	stmdaeq	r0, {r2, r4, r5, r6, ip, sp}

08003088 <_FCP>:
 8003088:	50434603 	subpl	r4, r3, r3, lsl #12

0800308c <FCP>:
 800308c:	f847 6d04 	str.w	r6, [r7, #-4]!
 8003090:	f104 0640 	add.w	r6, r4, #64	; 0x40
 8003094:	f7ff bb6e 	b.w	8002774 <INEXT>
 8003098:	08003088 	stmdaeq	r0, {r3, r7, ip, sp}

0800309c <_LAST>:
 800309c:	53414c04 	movtpl	r4, #7172	; 0x1c04
 80030a0:	bf000054 	svclt	0x00000054

080030a4 <LAST>:
 80030a4:	f847 6d04 	str.w	r6, [r7, #-4]!
 80030a8:	f104 0648 	add.w	r6, r4, #72	; 0x48
 80030ac:	f7ff bb62 	b.w	8002774 <INEXT>
 80030b0:	0800309c 	stmdaeq	r0, {r2, r3, r4, r7, ip, sp}

080030b4 <_USER_BEGIN>:
 80030b4:	4553550a 	ldrbmi	r5, [r3, #-1290]	; 0xfffffaf6
 80030b8:	45422d52 	strbmi	r2, [r2, #-3410]	; 0xfffff2ae
 80030bc:	004e4947 	subeq	r4, lr, r7, asr #18

080030c0 <USER_BEGIN>:
 80030c0:	f847 6d04 	str.w	r6, [r7, #-4]!
 80030c4:	f8df 6004 	ldr.w	r6, [pc, #4]	; 80030cc <USR_BGN_ADR>
 80030c8:	f7ff bb54 	b.w	8002774 <INEXT>

080030cc <USR_BGN_ADR>:
 80030cc:	20000512 	andcs	r0, r0, r2, lsl r5
 80030d0:	080030b4 	stmdaeq	r0, {r2, r4, r5, r7, ip, sp}

080030d4 <_USER_END>:
 80030d4:	45535508 	ldrbmi	r5, [r3, #-1288]	; 0xfffffaf8
 80030d8:	4e452d52 	mcrmi	13, 2, r2, cr5, cr2, {2}
 80030dc:	bf000044 	svclt	0x00000044

080030e0 <USER_END>:
 80030e0:	f847 6d04 	str.w	r6, [r7, #-4]!
 80030e4:	f8df 6004 	ldr.w	r6, [pc, #4]	; 80030ec <USER_END_ADR>
 80030e8:	f7ff bb44 	b.w	8002774 <INEXT>

080030ec <USER_END_ADR>:
 80030ec:	2001807c 	andcs	r8, r1, ip, ror r0
 80030f0:	080030d4 	stmdaeq	r0, {r2, r4, r6, r7, ip, sp}

080030f4 <_WITHI>:
 80030f4:	54495706 	strbpl	r5, [r9], #-1798	; 0xfffff8fa
 80030f8:	004e4948 	subeq	r4, lr, r8, asr #18

080030fc <WITHI>:
 80030fc:	4750      	bx	sl
 80030fe:	bf00      	nop
 8003100:	08002af9 	stmdaeq	r0, {r0, r3, r4, r5, r6, r7, r9, fp, sp}
 8003104:	08002ba9 	stmdaeq	r0, {r0, r3, r5, r7, r8, r9, fp, sp}
 8003108:	08002a51 	stmdaeq	r0, {r0, r4, r6, r9, fp, sp}
 800310c:	08002ba9 	stmdaeq	r0, {r0, r3, r5, r7, r8, r9, fp, sp}
 8003110:	08002a0d 	stmdaeq	r0, {r0, r2, r3, r9, fp, sp}
 8003114:	08002e59 	stmdaeq	r0, {r0, r3, r4, r6, r9, sl, fp, sp}
 8003118:	0800277b 	stmdaeq	r0, {r0, r1, r3, r4, r5, r6, r8, r9, sl, sp}
 800311c:	080030f4 	stmdaeq	r0, {r2, r4, r5, r6, r7, ip, sp}

08003120 <_UMMOD>:
 8003120:	2f4d5506 	svccs	0x004d5506
 8003124:	00444f4d 	subeq	r4, r4, sp, asr #30

08003128 <UMMOD>:
 8003128:	f04f 0301 	mov.w	r3, #1
 800312c:	f857 5b04 	ldr.w	r5, [r7], #4
 8003130:	683a      	ldr	r2, [r7, #0]

08003132 <UMMOD0>:
 8003132:	1892      	adds	r2, r2, r2
 8003134:	416d      	adcs	r5, r5
 8003136:	d304      	bcc.n	8003142 <UMMOD1>
 8003138:	eba5 0506 	sub.w	r5, r5, r6
 800313c:	f102 0201 	add.w	r2, r2, #1
 8003140:	e004      	b.n	800314c <UMMOD2>

08003142 <UMMOD1>:
 8003142:	1bad      	subs	r5, r5, r6
 8003144:	bf28      	it	cs
 8003146:	3201      	addcs	r2, #1
 8003148:	d200      	bcs.n	800314c <UMMOD2>
 800314a:	4435      	add	r5, r6

0800314c <UMMOD2>:
 800314c:	18db      	adds	r3, r3, r3
 800314e:	d3f0      	bcc.n	8003132 <UMMOD0>
 8003150:	4616      	mov	r6, r2
 8003152:	603d      	str	r5, [r7, #0]
 8003154:	f7ff bb0e 	b.w	8002774 <INEXT>
 8003158:	08003120 	stmdaeq	r0, {r5, r8, ip, sp}

0800315c <_MSMOD>:
 800315c:	4d2f4d05 	stcmi	13, cr4, [pc, #-20]!	; 8003150 <UMMOD2+0x4>
 8003160:	bf00444f 	svclt	0x0000444f

08003164 <MSMOD>:
 8003164:	4750      	bx	sl
 8003166:	bf00      	nop
 8003168:	08002ad5 	stmdaeq	r0, {r0, r2, r4, r6, r7, r9, fp, sp}
 800316c:	08002b09 	stmdaeq	r0, {r0, r3, r8, r9, fp, sp}
 8003170:	08002ad5 	stmdaeq	r0, {r0, r2, r4, r6, r7, r9, fp, sp}
 8003174:	08002a51 	stmdaeq	r0, {r0, r4, r6, r9, fp, sp}
 8003178:	0800297b 	stmdaeq	r0, {r0, r1, r3, r4, r5, r6, r8, fp, sp}
 800317c:	08003190 	stmdaeq	r0, {r4, r7, r8, ip, sp}
 8003180:	08002db9 	stmdaeq	r0, {r0, r3, r4, r5, r7, r8, sl, fp, sp}
 8003184:	08002a51 	stmdaeq	r0, {r0, r4, r6, r9, fp, sp}
 8003188:	08002f41 	stmdaeq	r0, {r0, r6, r8, r9, sl, fp, sp}
 800318c:	08002a0d 	stmdaeq	r0, {r0, r2, r3, r9, fp, sp}

08003190 <MMOD1>:
 8003190:	08002a51 	stmdaeq	r0, {r0, r4, r6, r9, fp, sp}
 8003194:	08002ad5 	stmdaeq	r0, {r0, r2, r4, r6, r7, r9, fp, sp}
 8003198:	08002b09 	stmdaeq	r0, {r0, r3, r8, r9, fp, sp}
 800319c:	0800297b 	stmdaeq	r0, {r0, r1, r3, r4, r5, r6, r8, fp, sp}
 80031a0:	080031ac 	stmdaeq	r0, {r2, r3, r5, r7, r8, ip, sp}
 80031a4:	08002a3d 	stmdaeq	r0, {r0, r2, r3, r4, r5, r9, fp, sp}
 80031a8:	08002b99 	stmdaeq	r0, {r0, r3, r4, r7, r8, r9, fp, sp}

080031ac <MMOD2>:
 80031ac:	08002a0d 	stmdaeq	r0, {r0, r2, r3, r9, fp, sp}
 80031b0:	08003129 	stmdaeq	r0, {r0, r3, r5, r8, ip, sp}
 80031b4:	08002a0d 	stmdaeq	r0, {r0, r2, r3, r9, fp, sp}
 80031b8:	0800297b 	stmdaeq	r0, {r0, r1, r3, r4, r5, r6, r8, fp, sp}
 80031bc:	080031cc 	stmdaeq	r0, {r2, r3, r6, r7, r8, ip, sp}
 80031c0:	08002ae5 	stmdaeq	r0, {r0, r2, r5, r6, r7, r9, fp, sp}
 80031c4:	08002db9 	stmdaeq	r0, {r0, r3, r4, r5, r7, r8, sl, fp, sp}
 80031c8:	08002ae5 	stmdaeq	r0, {r0, r2, r5, r6, r7, r9, fp, sp}

080031cc <MMOD3>:
 80031cc:	0800277b 	stmdaeq	r0, {r0, r1, r3, r4, r5, r6, r8, r9, sl, sp}
 80031d0:	0800315c 	stmdaeq	r0, {r2, r3, r4, r6, r8, ip, sp}

080031d4 <_STOD>:
 80031d4:	443e5303 	ldrtmi	r5, [lr], #-771	; 0xfffffcfd

080031d8 <STOD>:
 80031d8:	f847 6d04 	str.w	r6, [r7, #-4]!
 80031dc:	ea4f 76e6 	mov.w	r6, r6, asr #31
 80031e0:	f7ff bac8 	b.w	8002774 <INEXT>
 80031e4:	080031d4 	stmdaeq	r0, {r2, r4, r6, r7, r8, ip, sp}

080031e8 <_D2STAR>:
 80031e8:	2a324403 	bcs	8c941fc <OPTKEY1+0xb017c1>

080031ec <D2STAR>:
 80031ec:	6838      	ldr	r0, [r7, #0]
 80031ee:	0040      	lsls	r0, r0, #1
 80031f0:	6038      	str	r0, [r7, #0]
 80031f2:	ea4f 0646 	mov.w	r6, r6, lsl #1
 80031f6:	f146 0600 	adc.w	r6, r6, #0
 80031fa:	f7ff babb 	b.w	8002774 <INEXT>
 80031fe:	080031e8 	stmdaeq	r0, {r3, r5, r6, r7, r8, ip, sp}

08003202 <_D2SL>:
 8003202:	2f324403 	svccs	0x00324403
 8003206:	bf00      	nop

08003208 <D2SL>:
 8003208:	6838      	ldr	r0, [r7, #0]
 800320a:	1076      	asrs	r6, r6, #1
 800320c:	ea4f 0030 	mov.w	r0, r0, rrx
 8003210:	6038      	str	r0, [r7, #0]
 8003212:	f7ff baaf 	b.w	8002774 <INEXT>
 8003216:	08003202 	stmdaeq	r0, {r1, r9, ip, sp}

0800321a <_DSLMOD>:
 800321a:	4d2f4405 	cfstrsmi	mvf4, [pc, #-20]!	; 800320c <D2SL+0x4>
 800321e:	 	ldmdavs	sp!, {r0, r1, r2, r3, r6, sl, lr}

08003220 <DSLMOD>:
 8003220:	683d      	ldr	r5, [r7, #0]
 8003222:	6878      	ldr	r0, [r7, #4]
 8003224:	f04f 0220 	mov.w	r2, #32
 8003228:	ea81 0101 	eor.w	r1, r1, r1
 800322c:	b925      	cbnz	r5, 8003238 <DSLMOD+0x18>
 800322e:	ea82 0202 	eor.w	r2, r2, r2
 8003232:	4605      	mov	r5, r0
 8003234:	ea80 0000 	eor.w	r0, r0, r0
 8003238:	b14a      	cbz	r2, 800324e <DSLMOD+0x2e>
 800323a:	f015 4f00 	tst.w	r5, #2147483648	; 0x80000000
 800323e:	d106      	bne.n	800324e <DSLMOD+0x2e>
 8003240:	1849      	adds	r1, r1, r1
 8003242:	4140      	adcs	r0, r0
 8003244:	eb45 0505 	adc.w	r5, r5, r5
 8003248:	f1a2 0201 	sub.w	r2, r2, #1
 800324c:	e7f4      	b.n	8003238 <DSLMOD+0x18>
 800324e:	fbb5 f3f6 	udiv	r3, r5, r6
 8003252:	ea41 0103 	orr.w	r1, r1, r3
 8003256:	fb06 f303 	mul.w	r3, r6, r3
 800325a:	eba5 0503 	sub.w	r5, r5, r3
 800325e:	b102      	cbz	r2, 8003262 <DSLMOD+0x42>
 8003260:	e7ea      	b.n	8003238 <DSLMOD+0x18>
 8003262:	607d      	str	r5, [r7, #4]
 8003264:	6039      	str	r1, [r7, #0]
 8003266:	4606      	mov	r6, r0
 8003268:	f7ff ba84 	b.w	8002774 <INEXT>
 800326c:	0800321a 	stmdaeq	r0, {r1, r3, r4, r9, ip, sp}

08003270 <_DSLASH>:
 8003270:	002f4402 	eoreq	r4, pc, r2, lsl #8

08003274 <DSLASH>:
 8003274:	4750      	bx	sl
 8003276:	bf00      	nop
 8003278:	08002ad5 	stmdaeq	r0, {r0, r2, r4, r6, r7, r9, fp, sp}
 800327c:	0800293b 	stmdaeq	r0, {r0, r1, r3, r4, r5, r8, fp, sp}
 8003280:	00000001 	andeq	r0, r0, r1
 8003284:	08002b71 	stmdaeq	r0, {r0, r4, r5, r6, r8, r9, fp, sp}
 8003288:	08002a51 	stmdaeq	r0, {r0, r4, r6, r9, fp, sp}
 800328c:	08003221 	stmdaeq	r0, {r0, r5, r9, ip, sp}
 8003290:	08002cbd 	stmdaeq	r0, {r0, r2, r3, r4, r5, r7, sl, fp, sp}
 8003294:	08002a0d 	stmdaeq	r0, {r0, r2, r3, r9, fp, sp}
 8003298:	08002ea1 	stmdaeq	r0, {r0, r5, r7, r9, sl, fp, sp}
 800329c:	0800297b 	stmdaeq	r0, {r0, r1, r3, r4, r5, r6, r8, fp, sp}
 80032a0:	080032b4 	stmdaeq	r0, {r2, r4, r5, r7, r9, ip, sp}
 80032a4:	0800293b 	stmdaeq	r0, {r0, r1, r3, r4, r5, r8, fp, sp}
 80032a8:	00000001 	andeq	r0, r0, r1
 80032ac:	080031d9 	stmdaeq	r0, {r0, r3, r4, r6, r7, r8, ip, sp}
 80032b0:	08002d21 	stmdaeq	r0, {r0, r5, r8, sl, fp, sp}
 80032b4:	0800277b 	stmdaeq	r0, {r0, r1, r3, r4, r5, r6, r8, r9, sl, sp}
 80032b8:	08003270 	stmdaeq	r0, {r4, r5, r6, r9, ip, sp}

080032bc <_DSTAR>:
 80032bc:	002a4402 	eoreq	r4, sl, r2, lsl #8

080032c0 <DSTAR>:
 80032c0:	f857 0b04 	ldr.w	r0, [r7], #4
 80032c4:	6839      	ldr	r1, [r7, #0]
 80032c6:	6038      	str	r0, [r7, #0]
 80032c8:	ea83 0303 	eor.w	r3, r3, r3
 80032cc:	f010 4f00 	tst.w	r0, #2147483648	; 0x80000000
 80032d0:	d002      	beq.n	80032d8 <DSTAR+0x18>
 80032d2:	1a59      	subs	r1, r3, r1
 80032d4:	eb63 0000 	sbc.w	r0, r3, r0
 80032d8:	fb81 2106 	smull	r2, r1, r1, r6
 80032dc:	fb00 f606 	mul.w	r6, r0, r6
 80032e0:	440e      	add	r6, r1
 80032e2:	6838      	ldr	r0, [r7, #0]
 80032e4:	f010 4f00 	tst.w	r0, #2147483648	; 0x80000000
 80032e8:	d002      	beq.n	80032f0 <DSTAR+0x30>
 80032ea:	1a9a      	subs	r2, r3, r2
 80032ec:	eb63 0606 	sbc.w	r6, r3, r6
 80032f0:	603a      	str	r2, [r7, #0]
 80032f2:	f7ff ba3f 	b.w	8002774 <INEXT>
 80032f6:	080032bc 	stmdaeq	r0, {r2, r3, r4, r5, r7, r9, ip, sp}

080032fa <_SLMOD>:
 80032fa:	4f4d2f04 	svcmi	0x004d2f04
 80032fe:	 	ldrbmi	r0, [r0, -r4, asr #32]

08003300 <SLMOD>:
 8003300:	4750      	bx	sl
 8003302:	bf00      	nop
 8003304:	08002af9 	stmdaeq	r0, {r0, r3, r4, r5, r6, r7, r9, fp, sp}
 8003308:	08002b09 	stmdaeq	r0, {r0, r3, r8, r9, fp, sp}
 800330c:	08002ae5 	stmdaeq	r0, {r0, r2, r5, r6, r7, r9, fp, sp}
 8003310:	08003165 	stmdaeq	r0, {r0, r2, r5, r6, r8, ip, sp}
 8003314:	0800277b 	stmdaeq	r0, {r0, r1, r3, r4, r5, r6, r8, r9, sl, sp}
 8003318:	080032fa 	stmdaeq	r0, {r1, r3, r4, r5, r6, r7, r9, ip, sp}

0800331c <_MODD>:
 800331c:	444f4d03 	strbmi	r4, [pc], #-3331	; 8003324 <MODD+0x4>

08003320 <MODD>:
 8003320:	4750      	bx	sl
 8003322:	bf00      	nop
 8003324:	08003301 	stmdaeq	r0, {r0, r8, r9, ip, sp}
 8003328:	08002ac5 	stmdaeq	r0, {r0, r2, r6, r7, r9, fp, sp}
 800332c:	0800277b 	stmdaeq	r0, {r0, r1, r3, r4, r5, r6, r8, r9, sl, sp}
 8003330:	0800331c 	stmdaeq	r0, {r2, r3, r4, r8, r9, ip, sp}

08003334 <_SLASH>:
 8003334:	bf002f01 	svclt	0x00002f01

08003338 <SLASH>:
 8003338:	4750      	bx	sl
 800333a:	bf00      	nop
 800333c:	08003301 	stmdaeq	r0, {r0, r8, r9, ip, sp}
 8003340:	08002ae5 	stmdaeq	r0, {r0, r2, r5, r6, r7, r9, fp, sp}
 8003344:	08002ac5 	stmdaeq	r0, {r0, r2, r6, r7, r9, fp, sp}
 8003348:	0800277b 	stmdaeq	r0, {r0, r1, r3, r4, r5, r6, r8, r9, sl, sp}
 800334c:	08003334 	stmdaeq	r0, {r2, r4, r5, r8, r9, ip, sp}

08003350 <_SSMOD>:
 8003350:	4d2f2a05 	vstmdbmi	pc!, {s4-s8}
 8003354:	bf00444f 	svclt	0x0000444f

08003358 <SSMOD>:
 8003358:	4750      	bx	sl
 800335a:	bf00      	nop
 800335c:	08002a51 	stmdaeq	r0, {r0, r4, r6, r9, fp, sp}
 8003360:	08002be1 	stmdaeq	r0, {r0, r5, r6, r7, r8, r9, fp, sp}
 8003364:	08002a0d 	stmdaeq	r0, {r0, r2, r3, r9, fp, sp}
 8003368:	08003165 	stmdaeq	r0, {r0, r2, r5, r6, r8, ip, sp}
 800336c:	0800277b 	stmdaeq	r0, {r0, r1, r3, r4, r5, r6, r8, r9, sl, sp}
 8003370:	08003350 	stmdaeq	r0, {r4, r6, r8, r9, ip, sp}

08003374 <_STASL>:
 8003374:	002f2a02 	eoreq	r2, pc, r2, lsl #20

08003378 <STASL>:
 8003378:	4750      	bx	sl
 800337a:	bf00      	nop
 800337c:	08003359 	stmdaeq	r0, {r0, r3, r4, r6, r8, r9, ip, sp}
 8003380:	08002ae5 	stmdaeq	r0, {r0, r2, r5, r6, r7, r9, fp, sp}
 8003384:	08002ac5 	stmdaeq	r0, {r0, r2, r6, r7, r9, fp, sp}
 8003388:	0800277b 	stmdaeq	r0, {r0, r1, r3, r4, r5, r6, r8, r9, sl, sp}
 800338c:	08003374 	stmdaeq	r0, {r2, r4, r5, r6, r8, r9, ip, sp}

08003390 <_ALGND>:
 8003390:	494c4107 	stmdbmi	ip, {r0, r1, r2, r8, lr}^
 8003394:	44454e47 	strbmi	r4, [r5], #-3655	; 0xfffff1b9

08003398 <ALGND>:
 8003398:	f106 0603 	add.w	r6, r6, #3
 800339c:	f06f 0503 	mvn.w	r5, #3
 80033a0:	ea06 0605 	and.w	r6, r6, r5
 80033a4:	f7ff b9e6 	b.w	8002774 <INEXT>
 80033a8:	08003390 	stmdaeq	r0, {r4, r7, r8, r9, ip, sp}

080033ac <_TCHAR>:
 80033ac:	48433e05 	stmdami	r3, {r0, r2, r9, sl, fp, ip, sp}^
 80033b0:	bf005241 	svclt	0x00005241

080033b4 <TCHAR>:
 80033b4:	4750      	bx	sl
 80033b6:	bf00      	nop
 80033b8:	0800293b 	stmdaeq	r0, {r0, r1, r3, r4, r5, r8, fp, sp}
 80033bc:	0000007f 	andeq	r0, r0, pc, ror r0
 80033c0:	08002b19 	stmdaeq	r0, {r0, r3, r4, r8, r9, fp, sp}
 80033c4:	08002ad5 	stmdaeq	r0, {r0, r2, r4, r6, r7, r9, fp, sp}
 80033c8:	08002c55 	stmdaeq	r0, {r0, r2, r4, r6, sl, fp, sp}
 80033cc:	0800293b 	stmdaeq	r0, {r0, r1, r3, r4, r5, r8, fp, sp}
 80033d0:	0000007f 	andeq	r0, r0, pc, ror r0
 80033d4:	080030fd 	stmdaeq	r0, {r0, r2, r3, r4, r5, r6, r7, ip, sp}
 80033d8:	08002da5 	stmdaeq	r0, {r0, r2, r5, r7, r8, sl, fp, sp}
 80033dc:	0800297b 	stmdaeq	r0, {r0, r1, r3, r4, r5, r6, r8, fp, sp}
 80033e0:	080033f0 	stmdaeq	r0, {r4, r5, r6, r7, r8, r9, ip, sp}
 80033e4:	08002ac5 	stmdaeq	r0, {r0, r2, r6, r7, r9, fp, sp}
 80033e8:	0800293b 	stmdaeq	r0, {r0, r1, r3, r4, r5, r8, fp, sp}
 80033ec:	0000005f 	andeq	r0, r0, pc, asr r0

080033f0 <TCHA1>:
 80033f0:	0800277b 	stmdaeq	r0, {r0, r1, r3, r4, r5, r6, r8, r9, sl, sp}
 80033f4:	080033ac 	stmdaeq	r0, {r2, r3, r5, r7, r8, r9, ip, sp}

080033f8 <_DEPTH>:
 80033f8:	50454405 	subpl	r4, r5, r5, lsl #8
 80033fc:	bf004854 	svclt	0x00004854

08003400 <DEPTH>:
 8003400:	f64f 6280 	movw	r2, #65152	; 0xfe80
 8003404:	f2c2 0201 	movt	r2, #8193	; 0x2001
 8003408:	eba2 0207 	sub.w	r2, r2, r7
 800340c:	f847 6d04 	str.w	r6, [r7, #-4]!
 8003410:	ea4f 06a2 	mov.w	r6, r2, asr #2
 8003414:	f7ff b9ae 	b.w	8002774 <INEXT>
 8003418:	080033f8 	stmdaeq	r0, {r3, r4, r5, r6, r7, r8, r9, ip, sp}

0800341c <_PICK>:
 800341c:	43495004 	movtmi	r5, #36868	; 0x9004
 8003420:	bf00004b 	svclt	0x0000004b

08003424 <PICK>:
 8003424:	4750      	bx	sl
 8003426:	bf00      	nop
 8003428:	08002bf5 	stmdaeq	r0, {r0, r2, r4, r5, r6, r7, r8, r9, fp, sp}
 800342c:	08002c69 	stmdaeq	r0, {r0, r3, r5, r6, sl, fp, sp}
 8003430:	08002aa1 	stmdaeq	r0, {r0, r5, r7, r9, fp, sp}
 8003434:	08002b99 	stmdaeq	r0, {r0, r3, r4, r7, r8, r9, fp, sp}
 8003438:	080029c1 	stmdaeq	r0, {r0, r6, r7, r8, fp, sp}
 800343c:	0800277b 	stmdaeq	r0, {r0, r1, r3, r4, r5, r6, r8, r9, sl, sp}
 8003440:	0800341c 	stmdaeq	r0, {r2, r3, r4, sl, ip, sp}

08003444 <_HERE>:
 8003444:	52454804 	subpl	r4, r5, #4, 16	; 0x40000
 8003448:	bf000045 	svclt	0x00000045

0800344c <HERE>:
 800344c:	4750      	bx	sl
 800344e:	bf00      	nop
 8003450:	08003079 	stmdaeq	r0, {r0, r3, r4, r5, r6, ip, sp}
 8003454:	080029c1 	stmdaeq	r0, {r0, r6, r7, r8, fp, sp}
 8003458:	0800277b 	stmdaeq	r0, {r0, r1, r3, r4, r5, r6, r8, r9, sl, sp}
 800345c:	08003444 	stmdaeq	r0, {r2, r6, sl, ip, sp}

08003460 <_PAD>:
 8003460:	44415003 	strbmi	r5, [r1], #-3

08003464 <PAD>:
 8003464:	4750      	bx	sl
 8003466:	bf00      	nop
 8003468:	0800344d 	stmdaeq	r0, {r0, r2, r3, r6, sl, ip, sp}
 800346c:	0800293b 	stmdaeq	r0, {r0, r1, r3, r4, r5, r8, fp, sp}
 8003470:	00000050 	andeq	r0, r0, r0, asr r0
 8003474:	08002b99 	stmdaeq	r0, {r0, r3, r4, r7, r8, r9, fp, sp}
 8003478:	0800277b 	stmdaeq	r0, {r0, r1, r3, r4, r5, r6, r8, r9, sl, sp}
 800347c:	08003460 	stmdaeq	r0, {r5, r6, sl, ip, sp}

08003480 <_TIB>:
 8003480:	42495403 	submi	r5, r9, #50331648	; 0x3000000

08003484 <TIB>:
 8003484:	f847 6d04 	str.w	r6, [r7, #-4]!
 8003488:	6b26      	ldr	r6, [r4, #48]	; 0x30
 800348a:	f7ff b973 	b.w	8002774 <INEXT>
 800348e:	08003480 	stmdaeq	r0, {r7, sl, ip, sp}

08003492 <_ATEXE>:
 8003492:	58454008 	stmdapl	r5, {r3, lr}^
 8003496:	54554345 	ldrbpl	r4, [r5], #-837	; 0xfffffcbb
 800349a:	 	eorseq	r0, r5, r5, asr #32

0800349c <ATEXE>:
 800349c:	0035      	movs	r5, r6
 800349e:	f857 6b04 	ldr.w	r6, [r7], #4
 80034a2:	682d      	ldr	r5, [r5, #0]
 80034a4:	f045 0501 	orr.w	r5, r5, #1
 80034a8:	bf18      	it	ne
 80034aa:	4728      	bxne	r5
 80034ac:	f7ff b962 	b.w	8002774 <INEXT>
 80034b0:	08003492 	stmdaeq	r0, {r1, r4, r7, sl, ip, sp}

080034b4 <_CMOVE>:
 80034b4:	4f4d4305 	svcmi	0x004d4305
 80034b8:	bf004556 	svclt	0x00004556

080034bc <CMOVE>:
 80034bc:	f857 2b04 	ldr.w	r2, [r7], #4
 80034c0:	f857 3b04 	ldr.w	r3, [r7], #4
 80034c4:	e003      	b.n	80034ce <CMOV1>

080034c6 <CMOV0>:
 80034c6:	f813 5b01 	ldrb.w	r5, [r3], #1
 80034ca:	f802 5b01 	strb.w	r5, [r2], #1

080034ce <CMOV1>:
 80034ce:	0036      	movs	r6, r6
 80034d0:	d002      	beq.n	80034d8 <CMOV2>
 80034d2:	f1a6 0601 	sub.w	r6, r6, #1
 80034d6:	e7f6      	b.n	80034c6 <CMOV0>

080034d8 <CMOV2>:
 80034d8:	f857 6b04 	ldr.w	r6, [r7], #4
 80034dc:	f7ff b94a 	b.w	8002774 <INEXT>
 80034e0:	080034b4 	stmdaeq	r0, {r2, r4, r5, r7, sl, ip, sp}

080034e4 <_MOVE>:
 80034e4:	564f4d04 	strbpl	r4, [pc], -r4, lsl #26
 80034e8:	bf000045 	svclt	0x00000045

080034ec <MOVE>:
 80034ec:	f04f 0004 	mov.w	r0, #4
 80034f0:	f106 0603 	add.w	r6, r6, #3
 80034f4:	f026 0603 	bic.w	r6, r6, #3
 80034f8:	f857 1b04 	ldr.w	r1, [r7], #4
 80034fc:	f857 2b04 	ldr.w	r2, [r7], #4
 8003500:	428a      	cmp	r2, r1
 8003502:	d508      	bpl.n	8003516 <MOVE1>
 8003504:	f06f 0003 	mvn.w	r0, #3
 8003508:	4431      	add	r1, r6
 800350a:	4432      	add	r2, r6
 800350c:	e001      	b.n	8003512 <MOVE3>

0800350e <MOVE0>:
 800350e:	6815      	ldr	r5, [r2, #0]
 8003510:	600d      	str	r5, [r1, #0]

08003512 <MOVE3>:
 8003512:	4401      	add	r1, r0
 8003514:	4402      	add	r2, r0

08003516 <MOVE1>:
 8003516:	0036      	movs	r6, r6
 8003518:	d002      	beq.n	8003520 <MOVE2>
 800351a:	f1a6 0604 	sub.w	r6, r6, #4
 800351e:	e7f6      	b.n	800350e <MOVE0>

08003520 <MOVE2>:
 8003520:	f857 6b04 	ldr.w	r6, [r7], #4
 8003524:	f7ff b926 	b.w	8002774 <INEXT>
 8003528:	080034e4 	stmdaeq	r0, {r2, r5, r6, r7, sl, ip, sp}

0800352c <_FILL>:
 800352c:	4c494604 	mcrrmi	6, 0, r4, r9, cr4
 8003530:	bf00004c 	svclt	0x0000004c

08003534 <FILL>:
 8003534:	cf03      	ldmia	r7!, {r0, r1}
 8003536:	0000      	movs	r0, r0
 8003538:	d003      	beq.n	8003542 <FILL2>

0800353a <FILL1>:
 800353a:	f801 6b01 	strb.w	r6, [r1], #1
 800353e:	3801      	subs	r0, #1
 8003540:	d1fb      	bne.n	800353a <FILL1>

08003542 <FILL2>:
 8003542:	f857 6b04 	ldr.w	r6, [r7], #4
 8003546:	f7ff b915 	b.w	8002774 <INEXT>
 800354a:	0800352c 	stmdaeq	r0, {r2, r3, r5, r8, sl, ip, sp}

0800354e <_PACKS>:
 800354e:	43415005 	movtmi	r5, #4101	; 0x1005
 8003552:	 	ldrbmi	r2, [r0, -fp, asr #8]

08003554 <PACKS>:
 8003554:	4750      	bx	sl
 8003556:	bf00      	nop
 8003558:	08003399 	stmdaeq	r0, {r0, r3, r4, r7, r8, r9, ip, sp}
 800355c:	08002ad5 	stmdaeq	r0, {r0, r2, r4, r6, r7, r9, fp, sp}
 8003560:	08002a51 	stmdaeq	r0, {r0, r4, r6, r9, fp, sp}
 8003564:	08002af9 	stmdaeq	r0, {r0, r3, r4, r5, r6, r7, r9, fp, sp}
 8003568:	08002b99 	stmdaeq	r0, {r0, r3, r4, r7, r8, r9, fp, sp}
 800356c:	08002bf5 	stmdaeq	r0, {r0, r2, r4, r5, r6, r7, r8, r9, fp, sp}
 8003570:	0800293b 	stmdaeq	r0, {r0, r1, r3, r4, r5, r8, fp, sp}
 8003574:	fffffffc 			; <UNDEFINED> instruction: 0xfffffffc
 8003578:	08002b19 	stmdaeq	r0, {r0, r3, r4, r8, r9, fp, sp}
 800357c:	0800293b 	stmdaeq	r0, {r0, r1, r3, r4, r5, r8, fp, sp}
 8003580:	00000000 	andeq	r0, r0, r0
 8003584:	08002ae5 	stmdaeq	r0, {r0, r2, r5, r6, r7, r9, fp, sp}
 8003588:	080029ad 	stmdaeq	r0, {r0, r2, r3, r5, r7, r8, fp, sp}
 800358c:	08002a3d 	stmdaeq	r0, {r0, r2, r3, r4, r5, r9, fp, sp}
 8003590:	08002d0d 	stmdaeq	r0, {r0, r2, r3, r8, sl, fp, sp}
 8003594:	080029cd 	stmdaeq	r0, {r0, r2, r3, r6, r7, r8, fp, sp}
 8003598:	08002bf5 	stmdaeq	r0, {r0, r2, r4, r5, r6, r7, r8, r9, fp, sp}
 800359c:	08002ae5 	stmdaeq	r0, {r0, r2, r5, r6, r7, r9, fp, sp}
 80035a0:	080034bd 	stmdaeq	r0, {r0, r2, r3, r4, r5, r7, sl, ip, sp}
 80035a4:	08002a0d 	stmdaeq	r0, {r0, r2, r3, r9, fp, sp}
 80035a8:	0800277b 	stmdaeq	r0, {r0, r1, r3, r4, r5, r6, r8, r9, sl, sp}
 80035ac:	0800354e 	stmdaeq	r0, {r1, r2, r3, r6, r8, sl, ip, sp}

080035b0 <_DIGIT>:
 80035b0:	47494405 	strbmi	r4, [r9, -r5, lsl #8]
 80035b4:	bf005449 	svclt	0x00005449

080035b8 <DIGIT>:
 80035b8:	4750      	bx	sl
 80035ba:	bf00      	nop
 80035bc:	0800293b 	stmdaeq	r0, {r0, r1, r3, r4, r5, r8, fp, sp}
 80035c0:	00000009 	andeq	r0, r0, r9
 80035c4:	08002af9 	stmdaeq	r0, {r0, r3, r4, r5, r6, r7, r9, fp, sp}
 80035c8:	08002e71 	stmdaeq	r0, {r0, r4, r5, r6, r9, sl, fp, sp}
 80035cc:	0800293b 	stmdaeq	r0, {r0, r1, r3, r4, r5, r8, fp, sp}
 80035d0:	00000007 	andeq	r0, r0, r7
 80035d4:	08002b19 	stmdaeq	r0, {r0, r3, r4, r8, r9, fp, sp}
 80035d8:	08002b99 	stmdaeq	r0, {r0, r3, r4, r7, r8, r9, fp, sp}
 80035dc:	0800293b 	stmdaeq	r0, {r0, r1, r3, r4, r5, r8, fp, sp}
 80035e0:	00000030 	andeq	r0, r0, r0, lsr r0
 80035e4:	08002b99 	stmdaeq	r0, {r0, r3, r4, r7, r8, r9, fp, sp}
 80035e8:	0800277b 	stmdaeq	r0, {r0, r1, r3, r4, r5, r6, r8, r9, sl, sp}
 80035ec:	080035b0 	stmdaeq	r0, {r4, r5, r7, r8, sl, ip, sp}

080035f0 <_EXTRC>:
 80035f0:	54584507 	ldrbpl	r4, [r8], #-1287	; 0xfffffaf9
 80035f4:	54434152 	strbpl	r4, [r3], #-338	; 0xfffffeae

080035f8 <EXTRC>:
 80035f8:	4750      	bx	sl
 80035fa:	bf00      	nop
 80035fc:	08003221 	stmdaeq	r0, {r0, r5, r9, ip, sp}
 8003600:	08002cbd 	stmdaeq	r0, {r0, r2, r3, r4, r5, r7, sl, fp, sp}
 8003604:	080035b9 	stmdaeq	r0, {r0, r3, r4, r5, r7, r8, sl, ip, sp}
 8003608:	0800277b 	stmdaeq	r0, {r0, r1, r3, r4, r5, r6, r8, r9, sl, sp}
 800360c:	080035f0 	stmdaeq	r0, {r4, r5, r6, r7, r8, sl, ip, sp}

08003610 <_BDIGS>:
 8003610:	00233c02 	eoreq	r3, r3, r2, lsl #24

08003614 <BDIGS>:
 8003614:	4750      	bx	sl
 8003616:	bf00      	nop
 8003618:	08003465 	stmdaeq	r0, {r0, r2, r5, r6, sl, ip, sp}
 800361c:	0800304d 	stmdaeq	r0, {r0, r2, r3, r6, ip, sp}
 8003620:	080029ad 	stmdaeq	r0, {r0, r2, r3, r5, r7, r8, fp, sp}
 8003624:	0800277b 	stmdaeq	r0, {r0, r1, r3, r4, r5, r6, r8, r9, sl, sp}
 8003628:	08003610 	stmdaeq	r0, {r4, r9, sl, ip, sp}

0800362c <_HOLD>:
 800362c:	4c4f4804 	mcrrmi	8, 0, r4, pc, cr4
 8003630:	bf000044 	svclt	0x00000044

08003634 <HOLD>:
 8003634:	4750      	bx	sl
 8003636:	bf00      	nop
 8003638:	0800304d 	stmdaeq	r0, {r0, r2, r3, r6, ip, sp}
 800363c:	080029c1 	stmdaeq	r0, {r0, r6, r7, r8, fp, sp}
 8003640:	08002c05 	stmdaeq	r0, {r0, r2, sl, fp, sp}
 8003644:	08002ad5 	stmdaeq	r0, {r0, r2, r4, r6, r7, r9, fp, sp}
 8003648:	0800304d 	stmdaeq	r0, {r0, r2, r3, r6, ip, sp}
 800364c:	080029ad 	stmdaeq	r0, {r0, r2, r3, r5, r7, r8, fp, sp}
 8003650:	080029cd 	stmdaeq	r0, {r0, r2, r3, r6, r7, r8, fp, sp}
 8003654:	0800277b 	stmdaeq	r0, {r0, r1, r3, r4, r5, r6, r8, r9, sl, sp}
 8003658:	0800362c 	stmdaeq	r0, {r2, r3, r5, r9, sl, ip, sp}

0800365c <_DIG>:
 800365c:	bf002301 	svclt	0x00002301

08003660 <DIG>:
 8003660:	4750      	bx	sl
 8003662:	bf00      	nop
 8003664:	08002fd1 	stmdaeq	r0, {r0, r4, r6, r7, r8, r9, sl, fp, sp}
 8003668:	080029c1 	stmdaeq	r0, {r0, r6, r7, r8, fp, sp}
 800366c:	080035f9 	stmdaeq	r0, {r0, r3, r4, r5, r6, r7, r8, sl, ip, sp}
 8003670:	08003635 	stmdaeq	r0, {r0, r2, r4, r5, r9, sl, ip, sp}
 8003674:	0800277b 	stmdaeq	r0, {r0, r1, r3, r4, r5, r6, r8, r9, sl, sp}
 8003678:	0800365c 	stmdaeq	r0, {r2, r3, r4, r6, r9, sl, ip, sp}

0800367c <_DIGS>:
 800367c:	00532302 	subseq	r2, r3, r2, lsl #6

08003680 <DIGS>:
 8003680:	4750      	bx	sl
 8003682:	bf00      	nop

08003684 <DIGS1>:
 8003684:	08003661 	stmdaeq	r0, {r0, r5, r6, r9, sl, ip, sp}
 8003688:	08002d0d 	stmdaeq	r0, {r0, r2, r3, r8, sl, fp, sp}
 800368c:	08002b2d 	stmdaeq	r0, {r0, r2, r3, r5, r8, r9, fp, sp}
 8003690:	0800297b 	stmdaeq	r0, {r0, r1, r3, r4, r5, r6, r8, fp, sp}
 8003694:	080036a0 	stmdaeq	r0, {r5, r7, r9, sl, ip, sp}
 8003698:	0800298f 	stmdaeq	r0, {r0, r1, r2, r3, r7, r8, fp, sp}
 800369c:	08003684 	stmdaeq	r0, {r2, r7, r9, sl, ip, sp}

080036a0 <DIGS2>:
 80036a0:	08002ac5 	stmdaeq	r0, {r0, r2, r6, r7, r9, fp, sp}
 80036a4:	0800277b 	stmdaeq	r0, {r0, r1, r3, r4, r5, r6, r8, r9, sl, sp}
 80036a8:	0800367c 	stmdaeq	r0, {r2, r3, r4, r5, r6, r9, sl, ip, sp}

080036ac <_SIGN>:
 80036ac:	47495304 	strbmi	r5, [r9, -r4, lsl #6]
 80036b0:	bf00004e 	svclt	0x0000004e

080036b4 <SIGN>:
 80036b4:	4750      	bx	sl
 80036b6:	bf00      	nop
 80036b8:	08002b09 	stmdaeq	r0, {r0, r3, r8, r9, fp, sp}
 80036bc:	0800297b 	stmdaeq	r0, {r0, r1, r3, r4, r5, r6, r8, fp, sp}
 80036c0:	080036d0 	stmdaeq	r0, {r4, r6, r7, r9, sl, ip, sp}
 80036c4:	0800293b 	stmdaeq	r0, {r0, r1, r3, r4, r5, r8, fp, sp}
 80036c8:	0000002d 	andeq	r0, r0, sp, lsr #32
 80036cc:	08003635 	stmdaeq	r0, {r0, r2, r4, r5, r9, sl, ip, sp}

080036d0 <SIGN1>:
 80036d0:	0800277b 	stmdaeq	r0, {r0, r1, r3, r4, r5, r6, r8, r9, sl, sp}
 80036d4:	080036ac 	stmdaeq	r0, {r2, r3, r5, r7, r9, sl, ip, sp}

080036d8 <_EDIGS>:
 80036d8:	003e2302 	eorseq	r2, lr, r2, lsl #6

080036dc <EDIGS>:
 80036dc:	4750      	bx	sl
 80036de:	bf00      	nop
 80036e0:	08002ac5 	stmdaeq	r0, {r0, r2, r6, r7, r9, fp, sp}
 80036e4:	0800304d 	stmdaeq	r0, {r0, r2, r3, r6, ip, sp}
 80036e8:	080029c1 	stmdaeq	r0, {r0, r6, r7, r8, fp, sp}
 80036ec:	08003465 	stmdaeq	r0, {r0, r2, r5, r6, sl, ip, sp}
 80036f0:	08002af9 	stmdaeq	r0, {r0, r3, r4, r5, r6, r7, r9, fp, sp}
 80036f4:	08002ba9 	stmdaeq	r0, {r0, r3, r5, r7, r8, r9, fp, sp}
 80036f8:	0800277b 	stmdaeq	r0, {r0, r1, r3, r4, r5, r6, r8, r9, sl, sp}
 80036fc:	080036d8 	stmdaeq	r0, {r3, r4, r6, r7, r9, sl, ip, sp}

08003700 <_ITOA>:
 8003700:	413e4903 	teqmi	lr, r3, lsl #18

08003704 <ITOA>:
 8003704:	4750      	bx	sl
 8003706:	bf00      	nop
 8003708:	080031d9 	stmdaeq	r0, {r0, r3, r4, r6, r7, r8, ip, sp}
 800370c:	08002ad5 	stmdaeq	r0, {r0, r2, r4, r6, r7, r9, fp, sp}
 8003710:	08002a51 	stmdaeq	r0, {r0, r4, r6, r9, fp, sp}
 8003714:	08002d41 	stmdaeq	r0, {r0, r6, r8, sl, fp, sp}
 8003718:	08003615 	stmdaeq	r0, {r0, r2, r4, r9, sl, ip, sp}
 800371c:	08003681 	stmdaeq	r0, {r0, r7, r9, sl, ip, sp}
 8003720:	08002a0d 	stmdaeq	r0, {r0, r2, r3, r9, fp, sp}
 8003724:	080036b5 	stmdaeq	r0, {r0, r2, r4, r5, r7, r9, sl, ip, sp}
 8003728:	080036dd 	stmdaeq	r0, {r0, r2, r3, r4, r6, r7, r9, sl, ip, sp}
 800372c:	0800277b 	stmdaeq	r0, {r0, r1, r3, r4, r5, r6, r8, r9, sl, sp}
 8003730:	08003700 	stmdaeq	r0, {r8, r9, sl, ip, sp}

08003734 <_HEX>:
 8003734:	58454803 	stmdapl	r5, {r0, r1, fp, lr}^

08003738 <HEX>:
 8003738:	4750      	bx	sl
 800373a:	bf00      	nop
 800373c:	0800293b 	stmdaeq	r0, {r0, r1, r3, r4, r5, r8, fp, sp}
 8003740:	00000010 	andeq	r0, r0, r0, lsl r0
 8003744:	08002fd1 	stmdaeq	r0, {r0, r4, r6, r7, r8, r9, sl, fp, sp}
 8003748:	080029ad 	stmdaeq	r0, {r0, r2, r3, r5, r7, r8, fp, sp}
 800374c:	0800277b 	stmdaeq	r0, {r0, r1, r3, r4, r5, r6, r8, r9, sl, sp}
 8003750:	08003734 	stmdaeq	r0, {r2, r4, r5, r8, r9, sl, ip, sp}

08003754 <_BIN>:
 8003754:	4e494203 	cdpmi	2, 4, cr4, cr9, cr3, {0}

08003758 <BIN>:
 8003758:	4750      	bx	sl
 800375a:	bf00      	nop
 800375c:	0800293b 	stmdaeq	r0, {r0, r1, r3, r4, r5, r8, fp, sp}
 8003760:	00000002 	andeq	r0, r0, r2
 8003764:	08002fd1 	stmdaeq	r0, {r0, r4, r6, r7, r8, r9, sl, fp, sp}
 8003768:	080029ad 	stmdaeq	r0, {r0, r2, r3, r5, r7, r8, fp, sp}
 800376c:	0800277b 	stmdaeq	r0, {r0, r1, r3, r4, r5, r6, r8, r9, sl, sp}
 8003770:	08003754 	stmdaeq	r0, {r2, r4, r6, r8, r9, sl, ip, sp}

08003774 <_DECIM>:
 8003774:	43454407 	movtmi	r4, #21511	; 0x5407
 8003778:	4c414d49 	mcrrmi	13, 4, r4, r1, cr9

0800377c <DECIM>:
 800377c:	4750      	bx	sl
 800377e:	bf00      	nop
 8003780:	0800293b 	stmdaeq	r0, {r0, r1, r3, r4, r5, r8, fp, sp}
 8003784:	0000000a 	andeq	r0, r0, sl
 8003788:	08002fd1 	stmdaeq	r0, {r0, r4, r6, r7, r8, r9, sl, fp, sp}
 800378c:	080029ad 	stmdaeq	r0, {r0, r2, r3, r5, r7, r8, fp, sp}
 8003790:	0800277b 	stmdaeq	r0, {r0, r1, r3, r4, r5, r6, r8, r9, sl, sp}
 8003794:	08003774 	stmdaeq	r0, {r2, r4, r5, r6, r8, r9, sl, ip, sp}

08003798 <_DIGTQ>:
 8003798:	47494406 	strbmi	r4, [r9, -r6, lsl #8]
 800379c:	003f5449 	eorseq	r5, pc, r9, asr #8

080037a0 <DIGTQ>:
 80037a0:	4750      	bx	sl
 80037a2:	bf00      	nop
 80037a4:	08002a51 	stmdaeq	r0, {r0, r4, r6, r9, fp, sp}
 80037a8:	0800293b 	stmdaeq	r0, {r0, r1, r3, r4, r5, r8, fp, sp}
 80037ac:	00000030 	andeq	r0, r0, r0, lsr r0
 80037b0:	08002ba9 	stmdaeq	r0, {r0, r3, r5, r7, r8, r9, fp, sp}
 80037b4:	0800293b 	stmdaeq	r0, {r0, r1, r3, r4, r5, r8, fp, sp}
 80037b8:	00000009 	andeq	r0, r0, r9
 80037bc:	08002af9 	stmdaeq	r0, {r0, r3, r4, r5, r6, r7, r9, fp, sp}
 80037c0:	08002e71 	stmdaeq	r0, {r0, r4, r5, r6, r9, sl, fp, sp}
 80037c4:	0800297b 	stmdaeq	r0, {r0, r1, r3, r4, r5, r6, r8, fp, sp}
 80037c8:	080037ec 	stmdaeq	r0, {r2, r3, r5, r6, r7, r8, r9, sl, ip, sp}
 80037cc:	0800293b 	stmdaeq	r0, {r0, r1, r3, r4, r5, r8, fp, sp}
 80037d0:	00000007 	andeq	r0, r0, r7
 80037d4:	08002ba9 	stmdaeq	r0, {r0, r3, r5, r7, r8, r9, fp, sp}
 80037d8:	08002ad5 	stmdaeq	r0, {r0, r2, r4, r6, r7, r9, fp, sp}
 80037dc:	0800293b 	stmdaeq	r0, {r0, r1, r3, r4, r5, r8, fp, sp}
 80037e0:	0000000a 	andeq	r0, r0, sl
 80037e4:	08002e71 	stmdaeq	r0, {r0, r4, r5, r6, r9, sl, fp, sp}
 80037e8:	08002b2d 	stmdaeq	r0, {r0, r2, r3, r5, r8, r9, fp, sp}

080037ec <DGTQ1>:
 80037ec:	08002ad5 	stmdaeq	r0, {r0, r2, r4, r6, r7, r9, fp, sp}
 80037f0:	08002a0d 	stmdaeq	r0, {r0, r2, r3, r9, fp, sp}
 80037f4:	08002e59 	stmdaeq	r0, {r0, r3, r4, r6, r9, sl, fp, sp}
 80037f8:	0800277b 	stmdaeq	r0, {r0, r1, r3, r4, r5, r6, r8, r9, sl, sp}

080037fc <PARSE_DIGITS>:
 80037fc:	4750      	bx	sl
 80037fe:	bf00      	nop
 8003800:	08002fd1 	stmdaeq	r0, {r0, r4, r6, r7, r8, r9, sl, fp, sp}
 8003804:	080029c1 	stmdaeq	r0, {r0, r6, r7, r8, fp, sp}
 8003808:	08002a51 	stmdaeq	r0, {r0, r4, r6, r9, fp, sp}
 800380c:	08002f29 	stmdaeq	r0, {r0, r3, r5, r8, r9, sl, fp, sp}
 8003810:	08002a3d 	stmdaeq	r0, {r0, r2, r3, r4, r5, r9, fp, sp}
 8003814:	080037a1 	stmdaeq	r0, {r0, r5, r7, r8, r9, sl, ip, sp}
 8003818:	0800297b 	stmdaeq	r0, {r0, r1, r3, r4, r5, r6, r8, fp, sp}
 800381c:	08003848 	stmdaeq	r0, {r3, r6, fp, ip, sp}
 8003820:	08002cbd 	stmdaeq	r0, {r0, r2, r3, r4, r5, r7, sl, fp, sp}
 8003824:	08002a3d 	stmdaeq	r0, {r0, r2, r3, r4, r5, r9, fp, sp}
 8003828:	08002bb9 	stmdaeq	r0, {r0, r3, r4, r5, r7, r8, r9, fp, sp}
 800382c:	08002b99 	stmdaeq	r0, {r0, r3, r4, r7, r8, r9, fp, sp}
 8003830:	08002ae5 	stmdaeq	r0, {r0, r2, r5, r6, r7, r9, fp, sp}
 8003834:	08002cbd 	stmdaeq	r0, {r0, r2, r3, r4, r5, r7, sl, fp, sp}
 8003838:	08002bf5 	stmdaeq	r0, {r0, r2, r4, r5, r6, r7, r8, r9, fp, sp}
 800383c:	08002cd1 	stmdaeq	r0, {r0, r4, r6, r7, sl, fp, sp}
 8003840:	0800298f 	stmdaeq	r0, {r0, r1, r2, r3, r7, r8, fp, sp}
 8003844:	0800380c 	stmdaeq	r0, {r2, r3, fp, ip, sp}
 8003848:	08002ac5 	stmdaeq	r0, {r0, r2, r6, r7, r9, fp, sp}
 800384c:	08002c05 	stmdaeq	r0, {r0, r2, sl, fp, sp}
 8003850:	08002a0d 	stmdaeq	r0, {r0, r2, r3, r9, fp, sp}
 8003854:	08002ac5 	stmdaeq	r0, {r0, r2, r6, r7, r9, fp, sp}
 8003858:	0800277b 	stmdaeq	r0, {r0, r1, r3, r4, r5, r6, r8, r9, sl, sp}

0800385c <CHARQ>:
 800385c:	6838      	ldr	r0, [r7, #0]
 800385e:	f810 1b01 	ldrb.w	r1, [r0], #1
 8003862:	4632      	mov	r2, r6
 8003864:	ea86 0606 	eor.w	r6, r6, r6
 8003868:	4291      	cmp	r1, r2
 800386a:	d102      	bne.n	8003872 <CHARQ+0x16>
 800386c:	6038      	str	r0, [r7, #0]
 800386e:	ea6f 0606 	mvn.w	r6, r6
 8003872:	f7fe bf7f 	b.w	8002774 <INEXT>

08003876 <NEGQ>:
 8003876:	4750      	bx	sl
 8003878:	bf00      	nop
 800387a:	0800293b 	stmdaeq	r0, {r0, r1, r3, r4, r5, r8, fp, sp}
 800387e:	0000002d 	andeq	r0, r0, sp, lsr #32
 8003882:	0800385d 	stmdaeq	r0, {r0, r2, r3, r4, r6, fp, ip, sp}
 8003886:	08002ad5 	stmdaeq	r0, {r0, r2, r4, r6, r7, r9, fp, sp}
 800388a:	0800297b 	stmdaeq	r0, {r0, r1, r3, r4, r5, r6, r8, fp, sp}
 800388e:	0800389a 	stmdaeq	r0, {r1, r3, r4, r7, fp, ip, sp}
 8003892:	0800298f 	stmdaeq	r0, {r0, r1, r2, r3, r7, r8, fp, sp}
 8003896:	080038b2 	stmdaeq	r0, {r1, r4, r5, r7, fp, ip, sp}
 800389a:	08002ae5 	stmdaeq	r0, {r0, r2, r5, r6, r7, r9, fp, sp}
 800389e:	0800293b 	stmdaeq	r0, {r0, r1, r3, r4, r5, r8, fp, sp}
 80038a2:	0000002b 	andeq	r0, r0, fp, lsr #32
 80038a6:	0800385d 	stmdaeq	r0, {r0, r2, r3, r4, r6, fp, ip, sp}
 80038aa:	08002ac5 	stmdaeq	r0, {r0, r2, r6, r7, r9, fp, sp}
 80038ae:	08002ae5 	stmdaeq	r0, {r0, r2, r5, r6, r7, r9, fp, sp}
 80038b2:	0800277b 	stmdaeq	r0, {r0, r1, r3, r4, r5, r6, r8, r9, sl, sp}
 80038b6:	08003798 	stmdaeq	r0, {r3, r4, r7, r8, r9, sl, ip, sp}

080038ba <_INTQ>:
 80038ba:	544e4904 	strbpl	r4, [lr], #-2308	; 0xfffff6fc
 80038be:	 	smmlarmi	r0, pc, r0, r0	; <UNPREDICTABLE>

080038c0 <INTQ>:
 80038c0:	4750      	bx	sl
 80038c2:	bf00      	nop
 80038c4:	08002fd1 	stmdaeq	r0, {r0, r4, r6, r7, r8, r9, sl, fp, sp}
 80038c8:	080029c1 	stmdaeq	r0, {r0, r6, r7, r8, fp, sp}
 80038cc:	08002a51 	stmdaeq	r0, {r0, r4, r6, r9, fp, sp}
 80038d0:	0800293b 	stmdaeq	r0, {r0, r1, r3, r4, r5, r8, fp, sp}
 80038d4:	00000000 	andeq	r0, r0, r0
 80038d8:	08002af9 	stmdaeq	r0, {r0, r3, r4, r5, r6, r7, r9, fp, sp}
 80038dc:	08002f29 	stmdaeq	r0, {r0, r3, r5, r8, r9, sl, fp, sp}
 80038e0:	08002ae5 	stmdaeq	r0, {r0, r2, r5, r6, r7, r9, fp, sp}
 80038e4:	0800293b 	stmdaeq	r0, {r0, r1, r3, r4, r5, r8, fp, sp}
 80038e8:	00000024 	andeq	r0, r0, r4, lsr #32
 80038ec:	0800385d 	stmdaeq	r0, {r0, r2, r3, r4, r6, fp, ip, sp}
 80038f0:	0800297b 	stmdaeq	r0, {r0, r1, r3, r4, r5, r6, r8, fp, sp}
 80038f4:	08003904 	stmdaeq	r0, {r2, r8, fp, ip, sp}
 80038f8:	08003739 	stmdaeq	r0, {r0, r3, r4, r5, r8, r9, sl, ip, sp}
 80038fc:	0800298f 	stmdaeq	r0, {r0, r1, r2, r3, r7, r8, fp, sp}
 8003900:	0800391c 	stmdaeq	r0, {r2, r3, r4, r8, fp, ip, sp}
 8003904:	0800293b 	stmdaeq	r0, {r0, r1, r3, r4, r5, r8, fp, sp}
 8003908:	00000025 	andeq	r0, r0, r5, lsr #32
 800390c:	0800385d 	stmdaeq	r0, {r0, r2, r3, r4, r6, fp, ip, sp}
 8003910:	0800297b 	stmdaeq	r0, {r0, r1, r3, r4, r5, r6, r8, fp, sp}
 8003914:	08003928 	stmdaeq	r0, {r3, r5, r8, fp, ip, sp}
 8003918:	08003759 	stmdaeq	r0, {r0, r3, r4, r6, r8, r9, sl, ip, sp}
 800391c:	08002ae5 	stmdaeq	r0, {r0, r2, r5, r6, r7, r9, fp, sp}
 8003920:	08002c05 	stmdaeq	r0, {r0, r2, sl, fp, sp}
 8003924:	08002ae5 	stmdaeq	r0, {r0, r2, r5, r6, r7, r9, fp, sp}
 8003928:	08002ad5 	stmdaeq	r0, {r0, r2, r4, r6, r7, r9, fp, sp}
 800392c:	08003877 	stmdaeq	r0, {r0, r1, r2, r4, r5, r6, fp, ip, sp}
 8003930:	08002a51 	stmdaeq	r0, {r0, r4, r6, r9, fp, sp}
 8003934:	08002ad5 	stmdaeq	r0, {r0, r2, r4, r6, r7, r9, fp, sp}
 8003938:	08002cbd 	stmdaeq	r0, {r0, r2, r3, r4, r5, r7, sl, fp, sp}
 800393c:	08002ba9 	stmdaeq	r0, {r0, r3, r5, r7, r8, r9, fp, sp}
 8003940:	0800297b 	stmdaeq	r0, {r0, r1, r3, r4, r5, r6, r8, fp, sp}
 8003944:	08003954 	stmdaeq	r0, {r2, r4, r6, r8, fp, ip, sp}
 8003948:	08002ae5 	stmdaeq	r0, {r0, r2, r5, r6, r7, r9, fp, sp}
 800394c:	08002c05 	stmdaeq	r0, {r0, r2, sl, fp, sp}
 8003950:	08002ae5 	stmdaeq	r0, {r0, r2, r5, r6, r7, r9, fp, sp}
 8003954:	08002ae5 	stmdaeq	r0, {r0, r2, r5, r6, r7, r9, fp, sp}
 8003958:	08002a51 	stmdaeq	r0, {r0, r4, r6, r9, fp, sp}
 800395c:	0800293b 	stmdaeq	r0, {r0, r1, r3, r4, r5, r8, fp, sp}
 8003960:	00000000 	andeq	r0, r0, r0
 8003964:	08002ad5 	stmdaeq	r0, {r0, r2, r4, r6, r7, r9, fp, sp}
 8003968:	08002cbd 	stmdaeq	r0, {r0, r2, r3, r4, r5, r7, sl, fp, sp}
 800396c:	080037fd 	stmdaeq	r0, {r0, r2, r3, r4, r5, r6, r7, r8, r9, sl, ip, sp}
 8003970:	08002ac5 	stmdaeq	r0, {r0, r2, r6, r7, r9, fp, sp}
 8003974:	08002ae5 	stmdaeq	r0, {r0, r2, r5, r6, r7, r9, fp, sp}
 8003978:	08002a0d 	stmdaeq	r0, {r0, r2, r3, r9, fp, sp}
 800397c:	08002e21 	stmdaeq	r0, {r0, r5, r9, sl, fp, sp}
 8003980:	0800297b 	stmdaeq	r0, {r0, r1, r3, r4, r5, r6, r8, fp, sp}
 8003984:	080039b0 	stmdaeq	r0, {r4, r5, r7, r8, fp, ip, sp}
 8003988:	08002a0d 	stmdaeq	r0, {r0, r2, r3, r9, fp, sp}
 800398c:	0800297b 	stmdaeq	r0, {r0, r1, r3, r4, r5, r6, r8, fp, sp}
 8003990:	08003998 	stmdaeq	r0, {r3, r4, r7, r8, fp, ip, sp}
 8003994:	08002db9 	stmdaeq	r0, {r0, r3, r4, r5, r7, r8, sl, fp, sp}
 8003998:	08002cd1 	stmdaeq	r0, {r0, r4, r6, r7, sl, fp, sp}
 800399c:	08002ce5 	stmdaeq	r0, {r0, r2, r5, r6, r7, sl, fp, sp}
 80039a0:	0800293b 	stmdaeq	r0, {r0, r1, r3, r4, r5, r8, fp, sp}
 80039a4:	ffffffff 			; <UNDEFINED> instruction: 0xffffffff
 80039a8:	0800298f 	stmdaeq	r0, {r0, r1, r2, r3, r7, r8, fp, sp}
 80039ac:	080039b8 	stmdaeq	r0, {r3, r4, r5, r7, r8, fp, ip, sp}
 80039b0:	08002a0d 	stmdaeq	r0, {r0, r2, r3, r9, fp, sp}
 80039b4:	08002ce5 	stmdaeq	r0, {r0, r2, r5, r6, r7, sl, fp, sp}
 80039b8:	08002a0d 	stmdaeq	r0, {r0, r2, r3, r9, fp, sp}
 80039bc:	08002fd1 	stmdaeq	r0, {r0, r4, r6, r7, r8, r9, sl, fp, sp}
 80039c0:	080029ad 	stmdaeq	r0, {r0, r2, r3, r5, r7, r8, fp, sp}
 80039c4:	0800277b 	stmdaeq	r0, {r0, r1, r3, r4, r5, r6, r8, r9, sl, sp}
 80039c8:	080038ba 	stmdaeq	r0, {r1, r3, r4, r5, r7, fp, ip, sp}

080039cc <_SPACE>:
 80039cc:	41505305 	cmpmi	r0, r5, lsl #6
 80039d0:	bf004543 	svclt	0x00004543

080039d4 <SPACE>:
 80039d4:	4750      	bx	sl
 80039d6:	bf00      	nop
 80039d8:	08002c55 	stmdaeq	r0, {r0, r2, r4, r6, sl, fp, sp}
 80039dc:	08002845 	stmdaeq	r0, {r0, r2, r6, fp, sp}
 80039e0:	0800277b 	stmdaeq	r0, {r0, r1, r3, r4, r5, r6, r8, r9, sl, sp}
 80039e4:	080039cc 	stmdaeq	r0, {r2, r3, r6, r7, r8, fp, ip, sp}

080039e8 <_SPACS>:
 80039e8:	41505306 	cmpmi	r0, r6, lsl #6
 80039ec:	00534543 	subseq	r4, r3, r3, asr #10

080039f0 <SPACS>:
 80039f0:	4750      	bx	sl
 80039f2:	bf00      	nop
 80039f4:	0800293b 	stmdaeq	r0, {r0, r1, r3, r4, r5, r8, fp, sp}
 80039f8:	00000000 	andeq	r0, r0, r0
 80039fc:	08002eb9 	stmdaeq	r0, {r0, r3, r4, r5, r7, r9, sl, fp, sp}
 8003a00:	08002a51 	stmdaeq	r0, {r0, r4, r6, r9, fp, sp}
 8003a04:	0800298f 	stmdaeq	r0, {r0, r1, r2, r3, r7, r8, fp, sp}
 8003a08:	08003a10 	stmdaeq	r0, {r4, r9, fp, ip, sp}

08003a0c <CHAR1>:
 8003a0c:	080039d5 	stmdaeq	r0, {r0, r2, r4, r6, r7, r8, fp, ip, sp}

08003a10 <CHAR2>:
 8003a10:	0800295d 	stmdaeq	r0, {r0, r2, r3, r4, r6, r8, fp, sp}
 8003a14:	08003a0c 	stmdaeq	r0, {r2, r3, r9, fp, ip, sp}
 8003a18:	0800277b 	stmdaeq	r0, {r0, r1, r3, r4, r5, r6, r8, r9, sl, sp}
 8003a1c:	080039e8 	stmdaeq	r0, {r3, r5, r6, r7, r8, fp, ip, sp}

08003a20 <_TYPEE>:
 8003a20:	50595404 	subspl	r5, r9, r4, lsl #8
 8003a24:	bf000045 	svclt	0x00000045

08003a28 <TYPEE>:
 8003a28:	4750      	bx	sl
 8003a2a:	bf00      	nop
 8003a2c:	08002a51 	stmdaeq	r0, {r0, r4, r6, r9, fp, sp}
 8003a30:	0800298f 	stmdaeq	r0, {r0, r1, r2, r3, r7, r8, fp, sp}
 8003a34:	08003a44 	stmdaeq	r0, {r2, r6, r9, fp, ip, sp}

08003a38 <TYPE1>:
 8003a38:	08002f29 	stmdaeq	r0, {r0, r3, r5, r8, r9, sl, fp, sp}
 8003a3c:	080033b5 	stmdaeq	r0, {r0, r2, r4, r5, r7, r8, r9, ip, sp}
 8003a40:	08002845 	stmdaeq	r0, {r0, r2, r6, fp, sp}

08003a44 <TYPE2>:
 8003a44:	0800295d 	stmdaeq	r0, {r0, r2, r3, r4, r6, r8, fp, sp}
 8003a48:	08003a38 	stmdaeq	r0, {r3, r4, r5, r9, fp, ip, sp}
 8003a4c:	08002ac5 	stmdaeq	r0, {r0, r2, r6, r7, r9, fp, sp}
 8003a50:	0800277b 	stmdaeq	r0, {r0, r1, r3, r4, r5, r6, r8, r9, sl, sp}
 8003a54:	08003a20 	stmdaeq	r0, {r5, r9, fp, ip, sp}

08003a58 <_CR>:
 8003a58:	00524302 	subseq	r4, r2, r2, lsl #6

08003a5c <CR>:
 8003a5c:	4750      	bx	sl
 8003a5e:	bf00      	nop
 8003a60:	0800293b 	stmdaeq	r0, {r0, r1, r3, r4, r5, r8, fp, sp}
 8003a64:	0000000d 	andeq	r0, r0, sp
 8003a68:	08002845 	stmdaeq	r0, {r0, r2, r6, fp, sp}
 8003a6c:	0800293b 	stmdaeq	r0, {r0, r1, r3, r4, r5, r8, fp, sp}
 8003a70:	0000000a 	andeq	r0, r0, sl
 8003a74:	08002845 	stmdaeq	r0, {r0, r2, r6, fp, sp}
 8003a78:	0800277b 	stmdaeq	r0, {r0, r1, r3, r4, r5, r6, r8, r9, sl, sp}

08003a7c <DOSTR>:
 8003a7c:	4750      	bx	sl
 8003a7e:	bf00      	nop
 8003a80:	08002a0d 	stmdaeq	r0, {r0, r2, r3, r9, fp, sp}
 8003a84:	08002a0d 	stmdaeq	r0, {r0, r2, r3, r9, fp, sp}
 8003a88:	08002ad5 	stmdaeq	r0, {r0, r2, r4, r6, r7, r9, fp, sp}
 8003a8c:	08002f29 	stmdaeq	r0, {r0, r3, r5, r8, r9, sl, fp, sp}
 8003a90:	08002b99 	stmdaeq	r0, {r0, r3, r4, r7, r8, r9, fp, sp}
 8003a94:	08003399 	stmdaeq	r0, {r0, r3, r4, r7, r8, r9, ip, sp}
 8003a98:	08002a51 	stmdaeq	r0, {r0, r4, r6, r9, fp, sp}
 8003a9c:	08002ae5 	stmdaeq	r0, {r0, r2, r5, r6, r7, r9, fp, sp}
 8003aa0:	08002a51 	stmdaeq	r0, {r0, r4, r6, r9, fp, sp}
 8003aa4:	0800277b 	stmdaeq	r0, {r0, r1, r3, r4, r5, r6, r8, r9, sl, sp}

08003aa8 <STRQP>:
 8003aa8:	4750      	bx	sl
 8003aaa:	bf00      	nop
 8003aac:	08003a7d 	stmdaeq	r0, {r0, r2, r3, r4, r5, r6, r9, fp, ip, sp}
 8003ab0:	0800277b 	stmdaeq	r0, {r0, r1, r3, r4, r5, r6, r8, r9, sl, sp}

08003ab4 <DOTST>:
 8003ab4:	4750      	bx	sl
 8003ab6:	bf00      	nop
 8003ab8:	08002f29 	stmdaeq	r0, {r0, r3, r5, r8, r9, sl, fp, sp}
 8003abc:	08003a29 	stmdaeq	r0, {r0, r3, r5, r9, fp, ip, sp}
 8003ac0:	0800277b 	stmdaeq	r0, {r0, r1, r3, r4, r5, r6, r8, r9, sl, sp}

08003ac4 <DOTQP>:
 8003ac4:	4750      	bx	sl
 8003ac6:	bf00      	nop
 8003ac8:	08003a7d 	stmdaeq	r0, {r0, r2, r3, r4, r5, r6, r9, fp, ip, sp}
 8003acc:	08003ab5 	stmdaeq	r0, {r0, r2, r4, r5, r7, r9, fp, ip, sp}
 8003ad0:	0800277b 	stmdaeq	r0, {r0, r1, r3, r4, r5, r6, r8, r9, sl, sp}
 8003ad4:	08003a58 	stmdaeq	r0, {r3, r4, r6, r9, fp, ip, sp}

08003ad8 <_DOTR>:
 8003ad8:	00522e02 	subseq	r2, r2, r2, lsl #28

08003adc <DOTR>:
 8003adc:	4750      	bx	sl
 8003ade:	bf00      	nop
 8003ae0:	08002a51 	stmdaeq	r0, {r0, r4, r6, r9, fp, sp}
 8003ae4:	08003705 	stmdaeq	r0, {r0, r2, r8, r9, sl, ip, sp}
 8003ae8:	08002a0d 	stmdaeq	r0, {r0, r2, r3, r9, fp, sp}
 8003aec:	08002af9 	stmdaeq	r0, {r0, r3, r4, r5, r6, r7, r9, fp, sp}
 8003af0:	08002ba9 	stmdaeq	r0, {r0, r3, r5, r7, r8, r9, fp, sp}
 8003af4:	080039f1 	stmdaeq	r0, {r0, r4, r5, r6, r7, r8, fp, ip, sp}
 8003af8:	08003a29 	stmdaeq	r0, {r0, r3, r5, r9, fp, ip, sp}
 8003afc:	0800277b 	stmdaeq	r0, {r0, r1, r3, r4, r5, r6, r8, r9, sl, sp}
 8003b00:	08003ad8 	stmdaeq	r0, {r3, r4, r6, r7, r9, fp, ip, sp}

08003b04 <_UDOTR>:
 8003b04:	522e5503 	eorpl	r5, lr, #12582912	; 0xc00000

08003b08 <UDOTR>:
 8003b08:	4750      	bx	sl
 8003b0a:	bf00      	nop
 8003b0c:	08002ae5 	stmdaeq	r0, {r0, r2, r5, r6, r7, r9, fp, sp}
 8003b10:	080031d9 	stmdaeq	r0, {r0, r3, r4, r6, r7, r8, ip, sp}
 8003b14:	08002cbd 	stmdaeq	r0, {r0, r2, r3, r4, r5, r7, sl, fp, sp}
 8003b18:	08002a51 	stmdaeq	r0, {r0, r4, r6, r9, fp, sp}
 8003b1c:	08003615 	stmdaeq	r0, {r0, r2, r4, r9, sl, ip, sp}
 8003b20:	08003681 	stmdaeq	r0, {r0, r7, r9, sl, ip, sp}
 8003b24:	080036dd 	stmdaeq	r0, {r0, r2, r3, r4, r6, r7, r9, sl, ip, sp}
 8003b28:	08002a0d 	stmdaeq	r0, {r0, r2, r3, r9, fp, sp}
 8003b2c:	08002af9 	stmdaeq	r0, {r0, r3, r4, r5, r6, r7, r9, fp, sp}
 8003b30:	08002ba9 	stmdaeq	r0, {r0, r3, r5, r7, r8, r9, fp, sp}
 8003b34:	080039f1 	stmdaeq	r0, {r0, r4, r5, r6, r7, r8, fp, ip, sp}
 8003b38:	08003a29 	stmdaeq	r0, {r0, r3, r5, r9, fp, ip, sp}
 8003b3c:	0800277b 	stmdaeq	r0, {r0, r1, r3, r4, r5, r6, r8, r9, sl, sp}
 8003b40:	08003b04 	stmdaeq	r0, {r2, r8, r9, fp, ip, sp}

08003b44 <_UDOT>:
 8003b44:	002e5502 	eoreq	r5, lr, r2, lsl #10

08003b48 <UDOT>:
 8003b48:	4750      	bx	sl
 8003b4a:	bf00      	nop
 8003b4c:	080031d9 	stmdaeq	r0, {r0, r3, r4, r6, r7, r8, ip, sp}
 8003b50:	08003615 	stmdaeq	r0, {r0, r2, r4, r9, sl, ip, sp}
 8003b54:	08003681 	stmdaeq	r0, {r0, r7, r9, sl, ip, sp}
 8003b58:	080036dd 	stmdaeq	r0, {r0, r2, r3, r4, r6, r7, r9, sl, ip, sp}
 8003b5c:	080039d5 	stmdaeq	r0, {r0, r2, r4, r6, r7, r8, fp, ip, sp}
 8003b60:	08003a29 	stmdaeq	r0, {r0, r3, r5, r9, fp, ip, sp}
 8003b64:	0800277b 	stmdaeq	r0, {r0, r1, r3, r4, r5, r6, r8, r9, sl, sp}
 8003b68:	08003b44 	stmdaeq	r0, {r2, r6, r8, r9, fp, ip, sp}

08003b6c <_DOT>:
 8003b6c:	bf002e01 	svclt	0x00002e01

08003b70 <DOT>:
 8003b70:	4750      	bx	sl
 8003b72:	bf00      	nop
 8003b74:	08002fd1 	stmdaeq	r0, {r0, r4, r6, r7, r8, r9, sl, fp, sp}
 8003b78:	080029c1 	stmdaeq	r0, {r0, r6, r7, r8, fp, sp}
 8003b7c:	0800293b 	stmdaeq	r0, {r0, r1, r3, r4, r5, r8, fp, sp}
 8003b80:	0000000a 	andeq	r0, r0, sl
 8003b84:	08002b41 	stmdaeq	r0, {r0, r6, r8, r9, fp, sp}
 8003b88:	0800297b 	stmdaeq	r0, {r0, r1, r3, r4, r5, r6, r8, fp, sp}
 8003b8c:	08003b98 	stmdaeq	r0, {r3, r4, r7, r8, r9, fp, ip, sp}
 8003b90:	08003b49 	stmdaeq	r0, {r0, r3, r6, r8, r9, fp, ip, sp}
 8003b94:	0800277b 	stmdaeq	r0, {r0, r1, r3, r4, r5, r6, r8, r9, sl, sp}

08003b98 <DOT1>:
 8003b98:	08003705 	stmdaeq	r0, {r0, r2, r8, r9, sl, ip, sp}
 8003b9c:	080039d5 	stmdaeq	r0, {r0, r2, r4, r6, r7, r8, fp, ip, sp}
 8003ba0:	08003a29 	stmdaeq	r0, {r0, r3, r5, r9, fp, ip, sp}
 8003ba4:	0800277b 	stmdaeq	r0, {r0, r1, r3, r4, r5, r6, r8, r9, sl, sp}
 8003ba8:	08003b6c 	stmdaeq	r0, {r2, r3, r5, r6, r8, r9, fp, ip, sp}

08003bac <_DDOT>:
 8003bac:	002e4402 	eoreq	r4, lr, r2, lsl #8

08003bb0 <DDOT>:
 8003bb0:	4750      	bx	sl
 8003bb2:	bf00      	nop
 8003bb4:	08002ad5 	stmdaeq	r0, {r0, r2, r4, r6, r7, r9, fp, sp}
 8003bb8:	08002a51 	stmdaeq	r0, {r0, r4, r6, r9, fp, sp}
 8003bbc:	08002d41 	stmdaeq	r0, {r0, r6, r8, sl, fp, sp}
 8003bc0:	08003615 	stmdaeq	r0, {r0, r2, r4, r9, sl, ip, sp}
 8003bc4:	08003681 	stmdaeq	r0, {r0, r7, r9, sl, ip, sp}
 8003bc8:	08002a0d 	stmdaeq	r0, {r0, r2, r3, r9, fp, sp}
 8003bcc:	080036b5 	stmdaeq	r0, {r0, r2, r4, r5, r7, r9, sl, ip, sp}
 8003bd0:	080036dd 	stmdaeq	r0, {r0, r2, r3, r4, r6, r7, r9, sl, ip, sp}
 8003bd4:	080039d5 	stmdaeq	r0, {r0, r2, r4, r6, r7, r8, fp, ip, sp}
 8003bd8:	08003a29 	stmdaeq	r0, {r0, r3, r5, r9, fp, ip, sp}
 8003bdc:	0800277b 	stmdaeq	r0, {r0, r1, r3, r4, r5, r6, r8, r9, sl, sp}
 8003be0:	08003bac 	stmdaeq	r0, {r2, r3, r5, r7, r8, r9, fp, ip, sp}

08003be4 <_HDOT>:
 8003be4:	002e4802 	eoreq	r4, lr, r2, lsl #16

08003be8 <HDOT>:
 8003be8:	4750      	bx	sl
 8003bea:	bf00      	nop
 8003bec:	08002fd1 	stmdaeq	r0, {r0, r4, r6, r7, r8, r9, sl, fp, sp}
 8003bf0:	080029c1 	stmdaeq	r0, {r0, r6, r7, r8, fp, sp}
 8003bf4:	08002ae5 	stmdaeq	r0, {r0, r2, r5, r6, r7, r9, fp, sp}
 8003bf8:	08003739 	stmdaeq	r0, {r0, r3, r4, r5, r8, r9, sl, ip, sp}
 8003bfc:	0800293b 	stmdaeq	r0, {r0, r1, r3, r4, r5, r8, fp, sp}
 8003c00:	00000000 	andeq	r0, r0, r0
 8003c04:	08003615 	stmdaeq	r0, {r0, r2, r4, r9, sl, ip, sp}
 8003c08:	08003681 	stmdaeq	r0, {r0, r7, r9, sl, ip, sp}
 8003c0c:	080036dd 	stmdaeq	r0, {r0, r2, r3, r4, r6, r7, r9, sl, ip, sp}
 8003c10:	080039d5 	stmdaeq	r0, {r0, r2, r4, r6, r7, r8, fp, ip, sp}
 8003c14:	0800293b 	stmdaeq	r0, {r0, r1, r3, r4, r5, r8, fp, sp}
 8003c18:	00000024 	andeq	r0, r0, r4, lsr #32
 8003c1c:	08002845 	stmdaeq	r0, {r0, r2, r6, fp, sp}
 8003c20:	08003a29 	stmdaeq	r0, {r0, r3, r5, r9, fp, ip, sp}
 8003c24:	08002fd1 	stmdaeq	r0, {r0, r4, r6, r7, r8, r9, sl, fp, sp}
 8003c28:	080029ad 	stmdaeq	r0, {r0, r2, r3, r5, r7, r8, fp, sp}
 8003c2c:	0800277b 	stmdaeq	r0, {r0, r1, r3, r4, r5, r6, r8, r9, sl, sp}
 8003c30:	08003be4 	stmdaeq	r0, {r2, r5, r6, r7, r8, r9, fp, ip, sp}

08003c34 <_QUEST>:
 8003c34:	bf003f01 	svclt	0x00003f01

08003c38 <QUEST>:
 8003c38:	4750      	bx	sl
 8003c3a:	bf00      	nop
 8003c3c:	080029c1 	stmdaeq	r0, {r0, r6, r7, r8, fp, sp}
 8003c40:	08003b71 	stmdaeq	r0, {r0, r4, r5, r6, r8, r9, fp, ip, sp}
 8003c44:	0800277b 	stmdaeq	r0, {r0, r1, r3, r4, r5, r6, r8, r9, sl, sp}

08003c48 <PARS>:
 8003c48:	4750      	bx	sl
 8003c4a:	bf00      	nop
 8003c4c:	08002fdd 	stmdaeq	r0, {r0, r2, r3, r4, r6, r7, r8, r9, sl, fp, sp}
 8003c50:	080029ad 	stmdaeq	r0, {r0, r2, r3, r5, r7, r8, fp, sp}
 8003c54:	08002af9 	stmdaeq	r0, {r0, r3, r4, r5, r6, r7, r9, fp, sp}
 8003c58:	08002a51 	stmdaeq	r0, {r0, r4, r6, r9, fp, sp}
 8003c5c:	08002ad5 	stmdaeq	r0, {r0, r2, r4, r6, r7, r9, fp, sp}
 8003c60:	0800297b 	stmdaeq	r0, {r0, r1, r3, r4, r5, r6, r8, fp, sp}
 8003c64:	08003d5c 	stmdaeq	r0, {r2, r3, r4, r6, r8, sl, fp, ip, sp}
 8003c68:	08002c05 	stmdaeq	r0, {r0, r2, sl, fp, sp}
 8003c6c:	08002fdd 	stmdaeq	r0, {r0, r2, r3, r4, r6, r7, r8, r9, sl, fp, sp}
 8003c70:	080029c1 	stmdaeq	r0, {r0, r6, r7, r8, fp, sp}
 8003c74:	08002c55 	stmdaeq	r0, {r0, r2, r4, r6, sl, fp, sp}
 8003c78:	08002e21 	stmdaeq	r0, {r0, r5, r9, sl, fp, sp}
 8003c7c:	0800297b 	stmdaeq	r0, {r0, r1, r3, r4, r5, r6, r8, fp, sp}
 8003c80:	08003cd0 	stmdaeq	r0, {r4, r6, r7, sl, fp, ip, sp}
 8003c84:	08002a51 	stmdaeq	r0, {r0, r4, r6, r9, fp, sp}

08003c88 <PARS1>:
 8003c88:	08002c55 	stmdaeq	r0, {r0, r2, r4, r6, sl, fp, sp}
 8003c8c:	08002af9 	stmdaeq	r0, {r0, r3, r4, r5, r6, r7, r9, fp, sp}
 8003c90:	080029e1 	stmdaeq	r0, {r0, r5, r6, r7, r8, fp, sp}
 8003c94:	08002ba9 	stmdaeq	r0, {r0, r3, r5, r7, r8, r9, fp, sp}
 8003c98:	08002b09 	stmdaeq	r0, {r0, r3, r8, r9, fp, sp}
 8003c9c:	08002da5 	stmdaeq	r0, {r0, r2, r5, r7, r8, sl, fp, sp}
 8003ca0:	0800297b 	stmdaeq	r0, {r0, r1, r3, r4, r5, r6, r8, fp, sp}
 8003ca4:	08003ccc 	stmdaeq	r0, {r2, r3, r6, r7, sl, fp, ip, sp}
 8003ca8:	08002bf5 	stmdaeq	r0, {r0, r2, r4, r5, r6, r7, r8, r9, fp, sp}
 8003cac:	0800295d 	stmdaeq	r0, {r0, r2, r3, r4, r6, r8, fp, sp}
 8003cb0:	08003c88 	stmdaeq	r0, {r3, r7, sl, fp, ip, sp}
 8003cb4:	08002a0d 	stmdaeq	r0, {r0, r2, r3, r9, fp, sp}
 8003cb8:	08002ac5 	stmdaeq	r0, {r0, r2, r6, r7, r9, fp, sp}
 8003cbc:	0800293b 	stmdaeq	r0, {r0, r1, r3, r4, r5, r8, fp, sp}
 8003cc0:	00000000 	andeq	r0, r0, r0
 8003cc4:	08002ad5 	stmdaeq	r0, {r0, r2, r4, r6, r7, r9, fp, sp}
 8003cc8:	0800277b 	stmdaeq	r0, {r0, r1, r3, r4, r5, r6, r8, r9, sl, sp}

08003ccc <PARS2>:
 8003ccc:	08002a0d 	stmdaeq	r0, {r0, r2, r3, r9, fp, sp}

08003cd0 <PARS3>:
 8003cd0:	08002af9 	stmdaeq	r0, {r0, r3, r4, r5, r6, r7, r9, fp, sp}
 8003cd4:	08002ae5 	stmdaeq	r0, {r0, r2, r5, r6, r7, r9, fp, sp}
 8003cd8:	08002a51 	stmdaeq	r0, {r0, r4, r6, r9, fp, sp}

08003cdc <PARS4>:
 8003cdc:	08002fdd 	stmdaeq	r0, {r0, r2, r3, r4, r6, r7, r8, r9, sl, fp, sp}
 8003ce0:	080029c1 	stmdaeq	r0, {r0, r6, r7, r8, fp, sp}
 8003ce4:	08002af9 	stmdaeq	r0, {r0, r3, r4, r5, r6, r7, r9, fp, sp}
 8003ce8:	080029e1 	stmdaeq	r0, {r0, r5, r6, r7, r8, fp, sp}
 8003cec:	08002ba9 	stmdaeq	r0, {r0, r3, r5, r7, r8, r9, fp, sp}
 8003cf0:	08002fdd 	stmdaeq	r0, {r0, r2, r3, r4, r6, r7, r8, r9, sl, fp, sp}
 8003cf4:	080029c1 	stmdaeq	r0, {r0, r6, r7, r8, fp, sp}
 8003cf8:	08002c55 	stmdaeq	r0, {r0, r2, r4, r6, sl, fp, sp}
 8003cfc:	08002e21 	stmdaeq	r0, {r0, r5, r9, sl, fp, sp}
 8003d00:	0800297b 	stmdaeq	r0, {r0, r1, r3, r4, r5, r6, r8, fp, sp}
 8003d04:	08003d0c 	stmdaeq	r0, {r2, r3, r8, sl, fp, ip, sp}
 8003d08:	08002b09 	stmdaeq	r0, {r0, r3, r8, r9, fp, sp}

08003d0c <PARS5>:
 8003d0c:	0800297b 	stmdaeq	r0, {r0, r1, r3, r4, r5, r6, r8, fp, sp}
 8003d10:	08003d30 	stmdaeq	r0, {r4, r5, r8, sl, fp, ip, sp}
 8003d14:	08002bf5 	stmdaeq	r0, {r0, r2, r4, r5, r6, r7, r8, r9, fp, sp}
 8003d18:	0800295d 	stmdaeq	r0, {r0, r2, r3, r4, r6, r8, fp, sp}
 8003d1c:	08003cdc 	stmdaeq	r0, {r2, r3, r4, r6, r7, sl, fp, ip, sp}
 8003d20:	08002ad5 	stmdaeq	r0, {r0, r2, r4, r6, r7, r9, fp, sp}
 8003d24:	08002a51 	stmdaeq	r0, {r0, r4, r6, r9, fp, sp}
 8003d28:	0800298f 	stmdaeq	r0, {r0, r1, r2, r3, r7, r8, fp, sp}
 8003d2c:	08003d44 	stmdaeq	r0, {r2, r6, r8, sl, fp, ip, sp}

08003d30 <PARS6>:
 8003d30:	08002a0d 	stmdaeq	r0, {r0, r2, r3, r9, fp, sp}
 8003d34:	08002ac5 	stmdaeq	r0, {r0, r2, r6, r7, r9, fp, sp}
 8003d38:	08002ad5 	stmdaeq	r0, {r0, r2, r4, r6, r7, r9, fp, sp}
 8003d3c:	08002bf5 	stmdaeq	r0, {r0, r2, r4, r5, r6, r7, r8, r9, fp, sp}
 8003d40:	08002a51 	stmdaeq	r0, {r0, r4, r6, r9, fp, sp}

08003d44 <PARS7>:
 8003d44:	08002af9 	stmdaeq	r0, {r0, r3, r4, r5, r6, r7, r9, fp, sp}
 8003d48:	08002ba9 	stmdaeq	r0, {r0, r3, r5, r7, r8, r9, fp, sp}
 8003d4c:	08002a0d 	stmdaeq	r0, {r0, r2, r3, r9, fp, sp}
 8003d50:	08002a0d 	stmdaeq	r0, {r0, r2, r3, r9, fp, sp}
 8003d54:	08002ba9 	stmdaeq	r0, {r0, r3, r5, r7, r8, r9, fp, sp}
 8003d58:	0800277b 	stmdaeq	r0, {r0, r1, r3, r4, r5, r6, r8, r9, sl, sp}

08003d5c <PARS8>:
 8003d5c:	08002af9 	stmdaeq	r0, {r0, r3, r4, r5, r6, r7, r9, fp, sp}
 8003d60:	08002a0d 	stmdaeq	r0, {r0, r2, r3, r9, fp, sp}
 8003d64:	08002ba9 	stmdaeq	r0, {r0, r3, r5, r7, r8, r9, fp, sp}
 8003d68:	0800277b 	stmdaeq	r0, {r0, r1, r3, r4, r5, r6, r8, r9, sl, sp}
 8003d6c:	08003c34 	stmdaeq	r0, {r2, r4, r5, sl, fp, ip, sp}

08003d70 <_PARSE>:
 8003d70:	52415005 	subpl	r5, r1, #5
 8003d74:	bf004553 	svclt	0x00004553

08003d78 <PARSE>:
 8003d78:	4750      	bx	sl
 8003d7a:	bf00      	nop
 8003d7c:	08002a51 	stmdaeq	r0, {r0, r4, r6, r9, fp, sp}
 8003d80:	08003485 	stmdaeq	r0, {r0, r2, r7, sl, ip, sp}
 8003d84:	08003009 	stmdaeq	r0, {r0, r3, ip, sp}
 8003d88:	080029c1 	stmdaeq	r0, {r0, r6, r7, r8, fp, sp}
 8003d8c:	08002b99 	stmdaeq	r0, {r0, r3, r4, r7, r8, r9, fp, sp}
 8003d90:	08003021 	stmdaeq	r0, {r0, r5, ip, sp}
 8003d94:	080029c1 	stmdaeq	r0, {r0, r6, r7, r8, fp, sp}
 8003d98:	08003009 	stmdaeq	r0, {r0, r3, ip, sp}
 8003d9c:	080029c1 	stmdaeq	r0, {r0, r6, r7, r8, fp, sp}
 8003da0:	08002ba9 	stmdaeq	r0, {r0, r3, r5, r7, r8, r9, fp, sp}
 8003da4:	08002a0d 	stmdaeq	r0, {r0, r2, r3, r9, fp, sp}
 8003da8:	08003c49 	stmdaeq	r0, {r0, r3, r6, sl, fp, ip, sp}
 8003dac:	08003009 	stmdaeq	r0, {r0, r3, ip, sp}
 8003db0:	08002ee1 	stmdaeq	r0, {r0, r5, r6, r7, r9, sl, fp, sp}
 8003db4:	0800277b 	stmdaeq	r0, {r0, r1, r3, r4, r5, r6, r8, r9, sl, sp}
 8003db8:	08003d70 	stmdaeq	r0, {r4, r5, r6, r8, sl, fp, ip, sp}

08003dbc <_DOTPR>:
 8003dbc:	00282e02 	eoreq	r2, r8, r2, lsl #28

08003dc0 <DOTPR>:
 8003dc0:	4750      	bx	sl
 8003dc2:	bf00      	nop
 8003dc4:	0800293b 	stmdaeq	r0, {r0, r1, r3, r4, r5, r8, fp, sp}
 8003dc8:	00000029 	andeq	r0, r0, r9, lsr #32
 8003dcc:	08003d79 	stmdaeq	r0, {r0, r3, r4, r5, r6, r8, sl, fp, ip, sp}
 8003dd0:	08003a29 	stmdaeq	r0, {r0, r3, r5, r9, fp, ip, sp}
 8003dd4:	0800277b 	stmdaeq	r0, {r0, r1, r3, r4, r5, r6, r8, r9, sl, sp}
 8003dd8:	08003dbc 	stmdaeq	r0, {r2, r3, r4, r5, r7, r8, sl, fp, ip, sp}

08003ddc <_PAREN>:
 8003ddc:	bf002881 	svclt	0x00002881

08003de0 <PAREN>:
 8003de0:	4750      	bx	sl
 8003de2:	bf00      	nop
 8003de4:	0800293b 	stmdaeq	r0, {r0, r1, r3, r4, r5, r8, fp, sp}
 8003de8:	00000029 	andeq	r0, r0, r9, lsr #32
 8003dec:	08003d79 	stmdaeq	r0, {r0, r3, r4, r5, r6, r8, sl, fp, ip, sp}
 8003df0:	08002ce5 	stmdaeq	r0, {r0, r2, r5, r6, r7, sl, fp, sp}
 8003df4:	0800277b 	stmdaeq	r0, {r0, r1, r3, r4, r5, r6, r8, r9, sl, sp}
 8003df8:	08003ddc 	stmdaeq	r0, {r2, r3, r4, r6, r7, r8, sl, fp, ip, sp}

08003dfc <_BKSLA>:
 8003dfc:	bf005c81 	svclt	0x00005c81

08003e00 <BKSLA>:
 8003e00:	4750      	bx	sl
 8003e02:	bf00      	nop
 8003e04:	08003021 	stmdaeq	r0, {r0, r5, ip, sp}
 8003e08:	080029c1 	stmdaeq	r0, {r0, r6, r7, r8, fp, sp}
 8003e0c:	08003009 	stmdaeq	r0, {r0, r3, ip, sp}
 8003e10:	080029ad 	stmdaeq	r0, {r0, r2, r3, r5, r7, r8, fp, sp}
 8003e14:	0800277b 	stmdaeq	r0, {r0, r1, r3, r4, r5, r6, r8, r9, sl, sp}
 8003e18:	08003dfc 	stmdaeq	r0, {r2, r3, r4, r5, r6, r7, r8, sl, fp, ip, sp}

08003e1c <_CHAR>:
 8003e1c:	41484304 	cmpmi	r8, r4, lsl #6
 8003e20:	bf000052 	svclt	0x00000052

08003e24 <CHAR>:
 8003e24:	4750      	bx	sl
 8003e26:	bf00      	nop
 8003e28:	08002c55 	stmdaeq	r0, {r0, r2, r4, r6, sl, fp, sp}
 8003e2c:	08003d79 	stmdaeq	r0, {r0, r3, r4, r5, r6, r8, sl, fp, ip, sp}
 8003e30:	08002ac5 	stmdaeq	r0, {r0, r2, r6, r7, r9, fp, sp}
 8003e34:	080029e1 	stmdaeq	r0, {r0, r5, r6, r7, r8, fp, sp}
 8003e38:	0800277b 	stmdaeq	r0, {r0, r1, r3, r4, r5, r6, r8, r9, sl, sp}
 8003e3c:	08003e1c 	stmdaeq	r0, {r2, r3, r4, r9, sl, fp, ip, sp}

08003e40 <_IMCHAR>:
 8003e40:	48435bc6 	stmdami	r3, {r1, r2, r6, r7, r8, r9, fp, ip, lr}^
 8003e44:	005d5241 	subseq	r5, sp, r1, asr #4

08003e48 <IMCHAR>:
 8003e48:	4750      	bx	sl
 8003e4a:	bf00      	nop
 8003e4c:	08003e25 	stmdaeq	r0, {r0, r2, r5, r9, sl, fp, ip, sp}
 8003e50:	08004571 	stmdaeq	r0, {r0, r4, r5, r6, r8, sl, lr}
 8003e54:	0800277b 	stmdaeq	r0, {r0, r1, r3, r4, r5, r6, r8, r9, sl, sp}
 8003e58:	08003e40 	stmdaeq	r0, {r6, r9, sl, fp, ip, sp}

08003e5c <_WORDD>:
 8003e5c:	524f5704 	subpl	r5, pc, #4, 14	; 0x100000
 8003e60:	bf000044 	svclt	0x00000044

08003e64 <WORDD>:
 8003e64:	4750      	bx	sl
 8003e66:	bf00      	nop
 8003e68:	08003d79 	stmdaeq	r0, {r0, r3, r4, r5, r6, r8, sl, fp, ip, sp}
 8003e6c:	0800344d 	stmdaeq	r0, {r0, r2, r3, r6, sl, ip, sp}
 8003e70:	08002c35 	stmdaeq	r0, {r0, r2, r4, r5, sl, fp, sp}
 8003e74:	08003555 	stmdaeq	r0, {r0, r2, r4, r6, r8, sl, ip, sp}
 8003e78:	0800277b 	stmdaeq	r0, {r0, r1, r3, r4, r5, r6, r8, r9, sl, sp}
 8003e7c:	08003e5c 	stmdaeq	r0, {r2, r3, r4, r6, r9, sl, fp, ip, sp}

08003e80 <_TOKEN>:
 8003e80:	4b4f5405 	blmi	93d8e9c <OPTKEY1+0x1246461>
 8003e84:	bf004e45 	svclt	0x00004e45

08003e88 <TOKEN>:
 8003e88:	4750      	bx	sl
 8003e8a:	bf00      	nop
 8003e8c:	08002c55 	stmdaeq	r0, {r0, r2, r4, r6, sl, fp, sp}
 8003e90:	08003e65 	stmdaeq	r0, {r0, r2, r5, r6, r9, sl, fp, ip, sp}
 8003e94:	0800407d 	stmdaeq	r0, {r0, r2, r3, r4, r5, r6, lr}
 8003e98:	0800277b 	stmdaeq	r0, {r0, r1, r3, r4, r5, r6, r8, r9, sl, sp}
 8003e9c:	08003e80 	stmdaeq	r0, {r7, r9, sl, fp, ip, sp}

08003ea0 <_NAMET>:
 8003ea0:	4d414e05 	stclmi	14, cr4, [r1, #-20]	; 0xffffffec
 8003ea4:	bf003e45 	svclt	0x00003e45

08003ea8 <NAMET>:
 8003ea8:	4750      	bx	sl
 8003eaa:	bf00      	nop
 8003eac:	08002f29 	stmdaeq	r0, {r0, r3, r5, r8, r9, sl, fp, sp}
 8003eb0:	0800293b 	stmdaeq	r0, {r0, r1, r3, r4, r5, r8, fp, sp}
 8003eb4:	0000001f 	andeq	r0, r0, pc, lsl r0
 8003eb8:	08002b19 	stmdaeq	r0, {r0, r3, r4, r8, r9, fp, sp}
 8003ebc:	08002b99 	stmdaeq	r0, {r0, r3, r4, r7, r8, r9, fp, sp}
 8003ec0:	08003399 	stmdaeq	r0, {r0, r3, r4, r7, r8, r9, ip, sp}
 8003ec4:	0800277b 	stmdaeq	r0, {r0, r1, r3, r4, r5, r6, r8, r9, sl, sp}
 8003ec8:	08003ea0 	stmdaeq	r0, {r5, r7, r9, sl, fp, ip, sp}

08003ecc <_SAMEQ>:
 8003ecc:	4d415305 	stclmi	3, cr5, [r1, #-20]	; 0xffffffec
 8003ed0:	bf003f45 	svclt	0x00003f45

08003ed4 <SAMEQ>:
 8003ed4:	4750      	bx	sl
 8003ed6:	bf00      	nop
 8003ed8:	08002a51 	stmdaeq	r0, {r0, r4, r6, r9, fp, sp}
 8003edc:	0800298f 	stmdaeq	r0, {r0, r1, r2, r3, r7, r8, fp, sp}
 8003ee0:	08003f20 	stmdaeq	r0, {r5, r8, r9, sl, fp, ip, sp}

08003ee4 <SAME1>:
 8003ee4:	08002af9 	stmdaeq	r0, {r0, r3, r4, r5, r6, r7, r9, fp, sp}
 8003ee8:	08002a3d 	stmdaeq	r0, {r0, r2, r3, r4, r5, r9, fp, sp}
 8003eec:	08002b99 	stmdaeq	r0, {r0, r3, r4, r7, r8, r9, fp, sp}
 8003ef0:	080029e1 	stmdaeq	r0, {r0, r5, r6, r7, r8, fp, sp}
 8003ef4:	08002af9 	stmdaeq	r0, {r0, r3, r4, r5, r6, r7, r9, fp, sp}
 8003ef8:	08002a3d 	stmdaeq	r0, {r0, r2, r3, r4, r5, r9, fp, sp}
 8003efc:	08002b99 	stmdaeq	r0, {r0, r3, r4, r7, r8, r9, fp, sp}
 8003f00:	080029e1 	stmdaeq	r0, {r0, r5, r6, r7, r8, fp, sp}
 8003f04:	08002ba9 	stmdaeq	r0, {r0, r3, r5, r7, r8, r9, fp, sp}
 8003f08:	08002ca9 	stmdaeq	r0, {r0, r3, r5, r7, sl, fp, sp}
 8003f0c:	0800297b 	stmdaeq	r0, {r0, r1, r3, r4, r5, r6, r8, fp, sp}
 8003f10:	08003f20 	stmdaeq	r0, {r5, r8, r9, sl, fp, ip, sp}
 8003f14:	08002a0d 	stmdaeq	r0, {r0, r2, r3, r9, fp, sp}
 8003f18:	08002ac5 	stmdaeq	r0, {r0, r2, r6, r7, r9, fp, sp}
 8003f1c:	0800277b 	stmdaeq	r0, {r0, r1, r3, r4, r5, r6, r8, r9, sl, sp}

08003f20 <SAME2>:
 8003f20:	0800295d 	stmdaeq	r0, {r0, r2, r3, r4, r6, r8, fp, sp}
 8003f24:	08003ee4 	stmdaeq	r0, {r2, r5, r6, r7, r9, sl, fp, ip, sp}
 8003f28:	0800293b 	stmdaeq	r0, {r0, r1, r3, r4, r5, r8, fp, sp}
 8003f2c:	00000000 	andeq	r0, r0, r0
 8003f30:	0800277b 	stmdaeq	r0, {r0, r1, r3, r4, r5, r6, r8, r9, sl, sp}

08003f34 <FIND>:
 8003f34:	4750      	bx	sl
 8003f36:	bf00      	nop
 8003f38:	08002ae5 	stmdaeq	r0, {r0, r2, r5, r6, r7, r9, fp, sp}
 8003f3c:	08002f29 	stmdaeq	r0, {r0, r3, r5, r8, r9, sl, fp, sp}
 8003f40:	08002ad5 	stmdaeq	r0, {r0, r2, r4, r6, r7, r9, fp, sp}
 8003f44:	08002fdd 	stmdaeq	r0, {r0, r2, r3, r4, r6, r7, r8, r9, sl, fp, sp}
 8003f48:	080029ad 	stmdaeq	r0, {r0, r2, r3, r5, r7, r8, fp, sp}
 8003f4c:	08002a51 	stmdaeq	r0, {r0, r4, r6, r9, fp, sp}
 8003f50:	08002ae5 	stmdaeq	r0, {r0, r2, r5, r6, r7, r9, fp, sp}

08003f54 <FIND1>:
 8003f54:	08002ad5 	stmdaeq	r0, {r0, r2, r4, r6, r7, r9, fp, sp}
 8003f58:	0800297b 	stmdaeq	r0, {r0, r1, r3, r4, r5, r6, r8, fp, sp}
 8003f5c:	08003fac 	stmdaeq	r0, {r2, r3, r5, r7, r8, r9, sl, fp, ip, sp}
 8003f60:	08002ad5 	stmdaeq	r0, {r0, r2, r4, r6, r7, r9, fp, sp}
 8003f64:	080029e1 	stmdaeq	r0, {r0, r5, r6, r7, r8, fp, sp}
 8003f68:	0800293b 	stmdaeq	r0, {r0, r1, r3, r4, r5, r8, fp, sp}
 8003f6c:	ffffff1f 			; <UNDEFINED> instruction: 0xffffff1f
 8003f70:	08002b19 	stmdaeq	r0, {r0, r3, r4, r8, r9, fp, sp}
 8003f74:	08002a3d 	stmdaeq	r0, {r0, r2, r3, r4, r5, r9, fp, sp}
 8003f78:	08002b41 	stmdaeq	r0, {r0, r6, r8, r9, fp, sp}
 8003f7c:	0800297b 	stmdaeq	r0, {r0, r1, r3, r4, r5, r6, r8, fp, sp}
 8003f80:	08003f94 	stmdaeq	r0, {r2, r4, r7, r8, r9, sl, fp, ip, sp}
 8003f84:	08002c45 	stmdaeq	r0, {r0, r2, r6, sl, fp, sp}
 8003f88:	080029c1 	stmdaeq	r0, {r0, r6, r7, r8, fp, sp}
 8003f8c:	0800298f 	stmdaeq	r0, {r0, r1, r2, r3, r7, r8, fp, sp}
 8003f90:	08003f54 	stmdaeq	r0, {r2, r4, r6, r8, r9, sl, fp, ip, sp}

08003f94 <FIND2>:
 8003f94:	08002bf5 	stmdaeq	r0, {r0, r2, r4, r5, r6, r7, r8, r9, fp, sp}
 8003f98:	08002fdd 	stmdaeq	r0, {r0, r2, r3, r4, r6, r7, r8, r9, sl, fp, sp}
 8003f9c:	080029c1 	stmdaeq	r0, {r0, r6, r7, r8, fp, sp}
 8003fa0:	08003ed5 	stmdaeq	r0, {r0, r2, r4, r6, r7, r9, sl, fp, ip, sp}

08003fa4 <FIND3>:
 8003fa4:	0800298f 	stmdaeq	r0, {r0, r1, r2, r3, r7, r8, fp, sp}
 8003fa8:	08003fc4 	stmdaeq	r0, {r2, r6, r7, r8, r9, sl, fp, ip, sp}

08003fac <FIND6>:
 8003fac:	08002a0d 	stmdaeq	r0, {r0, r2, r3, r9, fp, sp}
 8003fb0:	08002ac5 	stmdaeq	r0, {r0, r2, r6, r7, r9, fp, sp}
 8003fb4:	08002ae5 	stmdaeq	r0, {r0, r2, r5, r6, r7, r9, fp, sp}
 8003fb8:	08002c05 	stmdaeq	r0, {r0, r2, sl, fp, sp}
 8003fbc:	08002ae5 	stmdaeq	r0, {r0, r2, r5, r6, r7, r9, fp, sp}
 8003fc0:	0800277b 	stmdaeq	r0, {r0, r1, r3, r4, r5, r6, r8, r9, sl, sp}

08003fc4 <FIND4>:
 8003fc4:	0800297b 	stmdaeq	r0, {r0, r1, r3, r4, r5, r6, r8, fp, sp}
 8003fc8:	08003fe0 	stmdaeq	r0, {r5, r6, r7, r8, r9, sl, fp, ip, sp}
 8003fcc:	08002c05 	stmdaeq	r0, {r0, r2, sl, fp, sp}
 8003fd0:	08002c45 	stmdaeq	r0, {r0, r2, r6, sl, fp, sp}
 8003fd4:	080029c1 	stmdaeq	r0, {r0, r6, r7, r8, fp, sp}
 8003fd8:	0800298f 	stmdaeq	r0, {r0, r1, r2, r3, r7, r8, fp, sp}
 8003fdc:	08003f54 	stmdaeq	r0, {r2, r4, r6, r8, r9, sl, fp, ip, sp}

08003fe0 <FIND5>:
 8003fe0:	08002a0d 	stmdaeq	r0, {r0, r2, r3, r9, fp, sp}
 8003fe4:	08002ac5 	stmdaeq	r0, {r0, r2, r6, r7, r9, fp, sp}
 8003fe8:	08002ae5 	stmdaeq	r0, {r0, r2, r5, r6, r7, r9, fp, sp}
 8003fec:	08002ac5 	stmdaeq	r0, {r0, r2, r6, r7, r9, fp, sp}
 8003ff0:	08002c05 	stmdaeq	r0, {r0, r2, sl, fp, sp}
 8003ff4:	08002ad5 	stmdaeq	r0, {r0, r2, r4, r6, r7, r9, fp, sp}
 8003ff8:	08003ea9 	stmdaeq	r0, {r0, r3, r5, r7, r9, sl, fp, ip, sp}
 8003ffc:	08002ae5 	stmdaeq	r0, {r0, r2, r5, r6, r7, r9, fp, sp}
 8004000:	0800277b 	stmdaeq	r0, {r0, r1, r3, r4, r5, r6, r8, r9, sl, sp}
 8004004:	08003ecc 	stmdaeq	r0, {r2, r3, r6, r7, r9, sl, fp, ip, sp}

08004008 <_NAMEQ>:
 8004008:	4d414e05 	stclmi	14, cr4, [r1, #-20]	; 0xffffffec
 800400c:	bf003f45 	svclt	0x00003f45

08004010 <NAMEQ>:
 8004010:	4750      	bx	sl
 8004012:	bf00      	nop
 8004014:	08003065 	stmdaeq	r0, {r0, r2, r5, r6, ip, sp}
 8004018:	080029c1 	stmdaeq	r0, {r0, r6, r7, r8, fp, sp}
 800401c:	08003f35 	stmdaeq	r0, {r0, r2, r4, r5, r8, r9, sl, fp, ip, sp}
 8004020:	0800277b 	stmdaeq	r0, {r0, r1, r3, r4, r5, r6, r8, r9, sl, sp}
 8004024:	08004008 	stmdaeq	r0, {r3, lr}

08004028 <_ASCIZ>:
 8004028:	43534105 	cmpmi	r3, #1073741825	; 0x40000001
 800402c:	bf005a49 	svclt	0x00005a49

08004030 <ASCIZ>:
 8004030:	4750      	bx	sl
 8004032:	bf00      	nop
 8004034:	08002f29 	stmdaeq	r0, {r0, r3, r5, r8, r9, sl, fp, sp}
 8004038:	08002ad5 	stmdaeq	r0, {r0, r2, r4, r6, r7, r9, fp, sp}
 800403c:	08002a51 	stmdaeq	r0, {r0, r4, r6, r9, fp, sp}
 8004040:	08003465 	stmdaeq	r0, {r0, r2, r5, r6, sl, ip, sp}
 8004044:	08002ae5 	stmdaeq	r0, {r0, r2, r5, r6, r7, r9, fp, sp}
 8004048:	080034ed 	stmdaeq	r0, {r0, r2, r3, r5, r6, r7, sl, ip, sp}
 800404c:	08003465 	stmdaeq	r0, {r0, r2, r5, r6, sl, ip, sp}
 8004050:	08002a0d 	stmdaeq	r0, {r0, r2, r3, r9, fp, sp}
 8004054:	08002b99 	stmdaeq	r0, {r0, r3, r4, r7, r8, r9, fp, sp}
 8004058:	0800293b 	stmdaeq	r0, {r0, r1, r3, r4, r5, r8, fp, sp}
 800405c:	00000000 	andeq	r0, r0, r0
 8004060:	08002ae5 	stmdaeq	r0, {r0, r2, r5, r6, r7, r9, fp, sp}
 8004064:	080029cd 	stmdaeq	r0, {r0, r2, r3, r6, r7, r8, fp, sp}
 8004068:	08003465 	stmdaeq	r0, {r0, r2, r5, r6, sl, ip, sp}
 800406c:	0800277b 	stmdaeq	r0, {r0, r1, r3, r4, r5, r6, r8, r9, sl, sp}
 8004070:	08004028 	stmdaeq	r0, {r3, r5, lr}

08004074 <_UPPER>:
 8004074:	50505505 	subspl	r5, r0, r5, lsl #10
 8004078:	bf005245 	svclt	0x00005245

0800407c <UPPER>:
 800407c:	4750      	bx	sl
 800407e:	bf00      	nop
 8004080:	08002ad5 	stmdaeq	r0, {r0, r2, r4, r6, r7, r9, fp, sp}
 8004084:	08002a51 	stmdaeq	r0, {r0, r4, r6, r9, fp, sp}
 8004088:	08002f29 	stmdaeq	r0, {r0, r3, r5, r8, r9, sl, fp, sp}
 800408c:	0800293b 	stmdaeq	r0, {r0, r1, r3, r4, r5, r8, fp, sp}
 8004090:	0000001f 	andeq	r0, r0, pc, lsl r0
 8004094:	08002b19 	stmdaeq	r0, {r0, r3, r4, r8, r9, fp, sp}
 8004098:	08002a51 	stmdaeq	r0, {r0, r4, r6, r9, fp, sp}
 800409c:	0800298f 	stmdaeq	r0, {r0, r1, r2, r3, r7, r8, fp, sp}
 80040a0:	080040f0 	stmdaeq	r0, {r4, r5, r6, r7, lr}
 80040a4:	08002ad5 	stmdaeq	r0, {r0, r2, r4, r6, r7, r9, fp, sp}
 80040a8:	08002f29 	stmdaeq	r0, {r0, r3, r5, r8, r9, sl, fp, sp}
 80040ac:	08002ad5 	stmdaeq	r0, {r0, r2, r4, r6, r7, r9, fp, sp}
 80040b0:	0800293b 	stmdaeq	r0, {r0, r1, r3, r4, r5, r8, fp, sp}
 80040b4:	00000060 	andeq	r0, r0, r0, rrx
 80040b8:	08002ea1 	stmdaeq	r0, {r0, r5, r7, r9, sl, fp, sp}
 80040bc:	0800297b 	stmdaeq	r0, {r0, r1, r3, r4, r5, r6, r8, fp, sp}
 80040c0:	080040e8 	stmdaeq	r0, {r3, r5, r6, r7, lr}
 80040c4:	08002ad5 	stmdaeq	r0, {r0, r2, r4, r6, r7, r9, fp, sp}
 80040c8:	0800293b 	stmdaeq	r0, {r0, r1, r3, r4, r5, r8, fp, sp}
 80040cc:	0000007b 	andeq	r0, r0, fp, ror r0
 80040d0:	08002e71 	stmdaeq	r0, {r0, r4, r5, r6, r9, sl, fp, sp}
 80040d4:	0800297b 	stmdaeq	r0, {r0, r1, r3, r4, r5, r6, r8, fp, sp}
 80040d8:	080040e8 	stmdaeq	r0, {r3, r5, r6, r7, lr}
 80040dc:	0800293b 	stmdaeq	r0, {r0, r1, r3, r4, r5, r8, fp, sp}
 80040e0:	0000005f 	andeq	r0, r0, pc, asr r0
 80040e4:	08002b19 	stmdaeq	r0, {r0, r3, r4, r8, r9, fp, sp}
 80040e8:	08002cbd 	stmdaeq	r0, {r0, r2, r3, r4, r5, r7, sl, fp, sp}
 80040ec:	080029cd 	stmdaeq	r0, {r0, r2, r3, r6, r7, r8, fp, sp}
 80040f0:	0800295d 	stmdaeq	r0, {r0, r2, r3, r4, r6, r8, fp, sp}
 80040f4:	080040a4 	stmdaeq	r0, {r2, r5, r7, lr}
 80040f8:	08002ac5 	stmdaeq	r0, {r0, r2, r6, r7, r9, fp, sp}
 80040fc:	08002a0d 	stmdaeq	r0, {r0, r2, r3, r9, fp, sp}
 8004100:	0800277b 	stmdaeq	r0, {r0, r1, r3, r4, r5, r6, r8, r9, sl, sp}

08004104 <BKSP>:
 8004104:	4750      	bx	sl
 8004106:	bf00      	nop
 8004108:	08002a51 	stmdaeq	r0, {r0, r4, r6, r9, fp, sp}
 800410c:	08002af9 	stmdaeq	r0, {r0, r3, r4, r5, r6, r7, r9, fp, sp}
 8004110:	08002a0d 	stmdaeq	r0, {r0, r2, r3, r9, fp, sp}
 8004114:	08002ae5 	stmdaeq	r0, {r0, r2, r5, r6, r7, r9, fp, sp}
 8004118:	08002af9 	stmdaeq	r0, {r0, r3, r4, r5, r6, r7, r9, fp, sp}
 800411c:	08002b41 	stmdaeq	r0, {r0, r6, r8, r9, fp, sp}
 8004120:	0800297b 	stmdaeq	r0, {r0, r1, r3, r4, r5, r6, r8, fp, sp}
 8004124:	0800414c 	stmdaeq	r0, {r2, r3, r6, r8, lr}
 8004128:	0800293b 	stmdaeq	r0, {r0, r1, r3, r4, r5, r8, fp, sp}
 800412c:	00000008 	andeq	r0, r0, r8
 8004130:	08002845 	stmdaeq	r0, {r0, r2, r6, fp, sp}
 8004134:	08002c05 	stmdaeq	r0, {r0, r2, sl, fp, sp}
 8004138:	08002c55 	stmdaeq	r0, {r0, r2, r4, r6, sl, fp, sp}
 800413c:	08002845 	stmdaeq	r0, {r0, r2, r6, fp, sp}
 8004140:	0800293b 	stmdaeq	r0, {r0, r1, r3, r4, r5, r8, fp, sp}
 8004144:	00000008 	andeq	r0, r0, r8
 8004148:	08002845 	stmdaeq	r0, {r0, r2, r6, fp, sp}

0800414c <BACK1>:
 800414c:	0800277b 	stmdaeq	r0, {r0, r1, r3, r4, r5, r6, r8, r9, sl, sp}

08004150 <TAP>:
 8004150:	4750      	bx	sl
 8004152:	bf00      	nop
 8004154:	08002ad5 	stmdaeq	r0, {r0, r2, r4, r6, r7, r9, fp, sp}
 8004158:	08002845 	stmdaeq	r0, {r0, r2, r6, fp, sp}
 800415c:	08002af9 	stmdaeq	r0, {r0, r3, r4, r5, r6, r7, r9, fp, sp}
 8004160:	080029cd 	stmdaeq	r0, {r0, r2, r3, r6, r7, r8, fp, sp}
 8004164:	08002bf5 	stmdaeq	r0, {r0, r2, r4, r5, r6, r7, r8, r9, fp, sp}
 8004168:	0800277b 	stmdaeq	r0, {r0, r1, r3, r4, r5, r6, r8, r9, sl, sp}

0800416c <KTAP>:
 800416c:	4750      	bx	sl
 800416e:	bf00      	nop
 8004170:	08002ad5 	stmdaeq	r0, {r0, r2, r4, r6, r7, r9, fp, sp}
 8004174:	0800293b 	stmdaeq	r0, {r0, r1, r3, r4, r5, r8, fp, sp}
 8004178:	0000000d 	andeq	r0, r0, sp
 800417c:	08002b41 	stmdaeq	r0, {r0, r6, r8, r9, fp, sp}
 8004180:	0800297b 	stmdaeq	r0, {r0, r1, r3, r4, r5, r6, r8, fp, sp}
 8004184:	080041b0 	stmdaeq	r0, {r4, r5, r7, r8, lr}
 8004188:	0800293b 	stmdaeq	r0, {r0, r1, r3, r4, r5, r8, fp, sp}
 800418c:	00000008 	andeq	r0, r0, r8
 8004190:	08002b41 	stmdaeq	r0, {r0, r6, r8, r9, fp, sp}
 8004194:	0800297b 	stmdaeq	r0, {r0, r1, r3, r4, r5, r6, r8, fp, sp}
 8004198:	080041a8 	stmdaeq	r0, {r3, r5, r7, r8, lr}
 800419c:	08002c55 	stmdaeq	r0, {r0, r2, r4, r6, sl, fp, sp}
 80041a0:	08004151 	stmdaeq	r0, {r0, r4, r6, r8, lr}
 80041a4:	0800277b 	stmdaeq	r0, {r0, r1, r3, r4, r5, r6, r8, r9, sl, sp}

080041a8 <KTAP1>:
 80041a8:	08004105 	stmdaeq	r0, {r0, r2, r8, lr}
 80041ac:	0800277b 	stmdaeq	r0, {r0, r1, r3, r4, r5, r6, r8, r9, sl, sp}

080041b0 <KTAP2>:
 80041b0:	08002ac5 	stmdaeq	r0, {r0, r2, r6, r7, r9, fp, sp}
 80041b4:	08002ae5 	stmdaeq	r0, {r0, r2, r5, r6, r7, r9, fp, sp}
 80041b8:	08002ac5 	stmdaeq	r0, {r0, r2, r6, r7, r9, fp, sp}
 80041bc:	08002ad5 	stmdaeq	r0, {r0, r2, r4, r6, r7, r9, fp, sp}
 80041c0:	0800277b 	stmdaeq	r0, {r0, r1, r3, r4, r5, r6, r8, r9, sl, sp}
 80041c4:	08004074 	stmdaeq	r0, {r2, r4, r5, r6, lr}

080041c8 <_ACCEP>:
 80041c8:	43434106 	movtmi	r4, #12550	; 0x3106
 80041cc:	00545045 	subseq	r5, r4, r5, asr #32

080041d0 <ACCEP>:
 80041d0:	4750      	bx	sl
 80041d2:	bf00      	nop
 80041d4:	08002af9 	stmdaeq	r0, {r0, r3, r4, r5, r6, r7, r9, fp, sp}
 80041d8:	08002b99 	stmdaeq	r0, {r0, r3, r4, r7, r8, r9, fp, sp}
 80041dc:	08002af9 	stmdaeq	r0, {r0, r3, r4, r5, r6, r7, r9, fp, sp}

080041e0 <ACCP1>:
 80041e0:	08002d0d 	stmdaeq	r0, {r0, r2, r3, r8, sl, fp, sp}
 80041e4:	08002b41 	stmdaeq	r0, {r0, r6, r8, r9, fp, sp}
 80041e8:	0800297b 	stmdaeq	r0, {r0, r1, r3, r4, r5, r6, r8, fp, sp}
 80041ec:	08004228 	stmdaeq	r0, {r3, r5, r9, lr}
 80041f0:	08002821 	stmdaeq	r0, {r0, r5, fp, sp}
 80041f4:	08002ad5 	stmdaeq	r0, {r0, r2, r4, r6, r7, r9, fp, sp}
 80041f8:	08002c55 	stmdaeq	r0, {r0, r2, r4, r6, sl, fp, sp}
 80041fc:	0800293b 	stmdaeq	r0, {r0, r1, r3, r4, r5, r8, fp, sp}
 8004200:	0000007f 	andeq	r0, r0, pc, ror r0
 8004204:	080030fd 	stmdaeq	r0, {r0, r2, r3, r4, r5, r6, r7, ip, sp}
 8004208:	0800297b 	stmdaeq	r0, {r0, r1, r3, r4, r5, r6, r8, fp, sp}
 800420c:	0800421c 	stmdaeq	r0, {r2, r3, r4, r9, lr}
 8004210:	08004151 	stmdaeq	r0, {r0, r4, r6, r8, lr}
 8004214:	0800298f 	stmdaeq	r0, {r0, r1, r2, r3, r7, r8, fp, sp}
 8004218:	08004220 	stmdaeq	r0, {r5, r9, lr}

0800421c <ACCP2>:
 800421c:	0800416d 	stmdaeq	r0, {r0, r2, r3, r5, r6, r8, lr}

08004220 <ACCP3>:
 8004220:	0800298f 	stmdaeq	r0, {r0, r1, r2, r3, r7, r8, fp, sp}
 8004224:	080041e0 	stmdaeq	r0, {r5, r6, r7, r8, lr}

08004228 <ACCP4>:
 8004228:	08002ac5 	stmdaeq	r0, {r0, r2, r6, r7, r9, fp, sp}
 800422c:	08002af9 	stmdaeq	r0, {r0, r3, r4, r5, r6, r7, r9, fp, sp}
 8004230:	08002ba9 	stmdaeq	r0, {r0, r3, r5, r7, r8, r9, fp, sp}
 8004234:	0800277b 	stmdaeq	r0, {r0, r1, r3, r4, r5, r6, r8, r9, sl, sp}
 8004238:	080041c8 	stmdaeq	r0, {r3, r6, r7, r8, lr}

0800423c <_QUERY>:
 800423c:	45555105 	ldrbmi	r5, [r5, #-261]	; 0xfffffefb
 8004240:	bf005952 	svclt	0x00005952

08004244 <QUERY>:
 8004244:	4750      	bx	sl
 8004246:	bf00      	nop
 8004248:	08003485 	stmdaeq	r0, {r0, r2, r7, sl, ip, sp}
 800424c:	0800293b 	stmdaeq	r0, {r0, r1, r3, r4, r5, r8, fp, sp}
 8004250:	00000050 	andeq	r0, r0, r0, asr r0
 8004254:	080041d1 	stmdaeq	r0, {r0, r4, r6, r7, r8, lr}
 8004258:	08003021 	stmdaeq	r0, {r0, r5, ip, sp}
 800425c:	080029ad 	stmdaeq	r0, {r0, r2, r3, r5, r7, r8, fp, sp}
 8004260:	08002ac5 	stmdaeq	r0, {r0, r2, r6, r7, r9, fp, sp}
 8004264:	0800293b 	stmdaeq	r0, {r0, r1, r3, r4, r5, r8, fp, sp}
 8004268:	00000000 	andeq	r0, r0, r0
 800426c:	08003009 	stmdaeq	r0, {r0, r3, ip, sp}
 8004270:	080029ad 	stmdaeq	r0, {r0, r2, r3, r5, r7, r8, fp, sp}
 8004274:	0800277b 	stmdaeq	r0, {r0, r1, r3, r4, r5, r6, r8, r9, sl, sp}
 8004278:	0800423c 	stmdaeq	r0, {r2, r3, r4, r5, r9, lr}

0800427c <_ABORT>:
 800427c:	4f424105 	svcmi	0x00424105
 8004280:	bf005452 	svclt	0x00005452

08004284 <ABORT>:
 8004284:	4750      	bx	sl
 8004286:	bf00      	nop

08004288 <ABORT1>:
 8004288:	080039d5 	stmdaeq	r0, {r0, r2, r4, r6, r7, r8, fp, ip, sp}
 800428c:	08002f29 	stmdaeq	r0, {r0, r3, r5, r8, r9, sl, fp, sp}
 8004290:	08003a29 	stmdaeq	r0, {r0, r3, r5, r9, fp, ip, sp}
 8004294:	0800293b 	stmdaeq	r0, {r0, r1, r3, r4, r5, r8, fp, sp}
 8004298:	0000003f 	andeq	r0, r0, pc, lsr r0
 800429c:	08002845 	stmdaeq	r0, {r0, r2, r6, fp, sp}
 80042a0:	08003a5d 	stmdaeq	r0, {r0, r2, r3, r4, r6, r9, fp, ip, sp}
 80042a4:	0800440d 	stmdaeq	r0, {r0, r2, r3, sl, lr}
 80042a8:	0800298f 	stmdaeq	r0, {r0, r1, r2, r3, r7, r8, fp, sp}
 80042ac:	0800442c 	stmdaeq	r0, {r2, r3, r5, sl, lr}

080042b0 <ABORQ>:
 80042b0:	4750      	bx	sl
 80042b2:	bf00      	nop
 80042b4:	08003a7d 	stmdaeq	r0, {r0, r2, r3, r4, r5, r6, r9, fp, ip, sp}
 80042b8:	08002ae5 	stmdaeq	r0, {r0, r2, r5, r6, r7, r9, fp, sp}
 80042bc:	0800297b 	stmdaeq	r0, {r0, r1, r3, r4, r5, r6, r8, fp, sp}
 80042c0:	080042cc 	stmdaeq	r0, {r2, r3, r6, r7, r9, lr}
 80042c4:	0800298f 	stmdaeq	r0, {r0, r1, r2, r3, r7, r8, fp, sp}
 80042c8:	08004288 	stmdaeq	r0, {r3, r7, r9, lr}
 80042cc:	08002ac5 	stmdaeq	r0, {r0, r2, r6, r7, r9, fp, sp}
 80042d0:	0800277b 	stmdaeq	r0, {r0, r1, r3, r4, r5, r6, r8, r9, sl, sp}
 80042d4:	0800427c 	stmdaeq	r0, {r2, r3, r4, r5, r6, r9, lr}

080042d8 <_INTER>:
 80042d8:	4e49240a 	cdpmi	4, 4, cr2, cr9, cr10, {0}
 80042dc:	50524554 	subspl	r4, r2, r4, asr r5
 80042e0:	00544552 	subseq	r4, r4, r2, asr r5

080042e4 <INTER>:
 80042e4:	4750      	bx	sl
 80042e6:	bf00      	nop
 80042e8:	08004011 	stmdaeq	r0, {r0, r4, lr}
 80042ec:	08002ca9 	stmdaeq	r0, {r0, r3, r5, r7, sl, fp, sp}
 80042f0:	0800297b 	stmdaeq	r0, {r0, r1, r3, r4, r5, r6, r8, fp, sp}
 80042f4:	08004324 	stmdaeq	r0, {r2, r5, r8, r9, lr}
 80042f8:	080029c1 	stmdaeq	r0, {r0, r6, r7, r8, fp, sp}
 80042fc:	0800293b 	stmdaeq	r0, {r0, r1, r3, r4, r5, r8, fp, sp}
 8004300:	00000040 	andeq	r0, r0, r0, asr #32
 8004304:	08002b19 	stmdaeq	r0, {r0, r3, r4, r8, r9, fp, sp}
 8004308:	080042b1 	stmdaeq	r0, {r0, r4, r5, r7, r9, lr}
 800430c:	6f63200d 	svcvs	0x0063200d
 8004310:	6c69706d 	stclvs	0, cr7, [r9], #-436	; 0xfffffe4c
 8004314:	6e6f2065 	cdpvs	0, 6, cr2, cr15, cr5, {3}
 8004318:	bf00796c 	svclt	0x0000796c
 800431c:	08002951 	stmdaeq	r0, {r0, r4, r6, r8, fp, sp}
 8004320:	0800277b 	stmdaeq	r0, {r0, r1, r3, r4, r5, r6, r8, r9, sl, sp}

08004324 <INTE1>:
 8004324:	080022d9 	stmdaeq	r0, {r0, r3, r4, r6, r7, r9, sp}
 8004328:	0800297b 	stmdaeq	r0, {r0, r1, r3, r4, r5, r6, r8, fp, sp}
 800432c:	08004334 	stmdaeq	r0, {r2, r4, r5, r8, r9, lr}
 8004330:	0800277b 	stmdaeq	r0, {r0, r1, r3, r4, r5, r6, r8, r9, sl, sp}

08004334 <INTE2>:
 8004334:	08004285 	stmdaeq	r0, {r0, r2, r7, r9, lr}
 8004338:	080042d8 	stmdaeq	r0, {r3, r4, r6, r7, r9, lr}

0800433c <_LBRAC>:
 800433c:	bf005b81 	svclt	0x00005b81

08004340 <LBRAC>:
 8004340:	4750      	bx	sl
 8004342:	bf00      	nop
 8004344:	0800293b 	stmdaeq	r0, {r0, r1, r3, r4, r5, r8, fp, sp}
 8004348:	080042e4 	stmdaeq	r0, {r2, r5, r6, r7, r9, lr}
 800434c:	08003039 	stmdaeq	r0, {r0, r3, r4, r5, ip, sp}
 8004350:	080029ad 	stmdaeq	r0, {r0, r2, r3, r5, r7, r8, fp, sp}
 8004354:	0800277b 	stmdaeq	r0, {r0, r1, r3, r4, r5, r6, r8, r9, sl, sp}
 8004358:	0800433c 	stmdaeq	r0, {r2, r3, r4, r5, r8, r9, lr}

0800435c <_DOTOK>:
 800435c:	4b4f2e03 	blmi	93cfb70 <OPTKEY1+0x123d135>

08004360 <DOTOK>:
 8004360:	4750      	bx	sl
 8004362:	bf00      	nop
 8004364:	0800293b 	stmdaeq	r0, {r0, r1, r3, r4, r5, r8, fp, sp}
 8004368:	080042e4 	stmdaeq	r0, {r2, r5, r6, r7, r9, lr}
 800436c:	08003039 	stmdaeq	r0, {r0, r3, r4, r5, ip, sp}
 8004370:	080029c1 	stmdaeq	r0, {r0, r6, r7, r8, fp, sp}
 8004374:	08002e21 	stmdaeq	r0, {r0, r5, r9, sl, fp, sp}
 8004378:	0800297b 	stmdaeq	r0, {r0, r1, r3, r4, r5, r6, r8, fp, sp}
 800437c:	08004388 	stmdaeq	r0, {r3, r7, r8, r9, lr}
 8004380:	08003ac5 	stmdaeq	r0, {r0, r2, r6, r7, r9, fp, ip, sp}
 8004384:	6b6f2003 	blvs	9bcc398 <OPTKEY1+0x1a3995d>

08004388 <DOTO1>:
 8004388:	08003a5d 	stmdaeq	r0, {r0, r2, r3, r4, r6, r9, fp, ip, sp}
 800438c:	0800277b 	stmdaeq	r0, {r0, r1, r3, r4, r5, r6, r8, r9, sl, sp}
 8004390:	0800435c 	stmdaeq	r0, {r2, r3, r4, r6, r8, r9, lr}

08004394 <_QSTAC>:
 8004394:	54533f06 	ldrbpl	r3, [r3], #-3846	; 0xfffff0fa
 8004398:	004b4341 	subeq	r4, fp, r1, asr #6

0800439c <QSTAC>:
 800439c:	4750      	bx	sl
 800439e:	bf00      	nop
 80043a0:	08003401 	stmdaeq	r0, {r0, sl, ip, sp}
 80043a4:	08002b09 	stmdaeq	r0, {r0, r3, r8, r9, fp, sp}
 80043a8:	080042b1 	stmdaeq	r0, {r0, r4, r5, r7, r9, lr}
 80043ac:	646e7509 	strbtvs	r7, [lr], #-1289	; 0xfffffaf7
 80043b0:	6c667265 	sfmvs	f7, 2, [r6], #-404	; 0xfffffe6c
 80043b4:	bf00776f 	svclt	0x0000776f
 80043b8:	0800277b 	stmdaeq	r0, {r0, r1, r3, r4, r5, r6, r8, r9, sl, sp}
 80043bc:	08004394 	stmdaeq	r0, {r2, r4, r7, r8, r9, lr}

080043c0 <_EVAL>:
 80043c0:	41564504 	cmpmi	r6, r4, lsl #10
 80043c4:	bf00004c 	svclt	0x0000004c

080043c8 <EVAL>:
 80043c8:	4750      	bx	sl
 80043ca:	bf00      	nop

080043cc <EVAL1>:
 80043cc:	08003e89 	stmdaeq	r0, {r0, r3, r7, r9, sl, fp, ip, sp}
 80043d0:	08002ad5 	stmdaeq	r0, {r0, r2, r4, r6, r7, r9, fp, sp}
 80043d4:	080029e1 	stmdaeq	r0, {r0, r5, r6, r7, r8, fp, sp}
 80043d8:	0800297b 	stmdaeq	r0, {r0, r1, r3, r4, r5, r6, r8, fp, sp}
 80043dc:	080043f4 	stmdaeq	r0, {r2, r4, r5, r6, r7, r8, r9, lr}
 80043e0:	08003039 	stmdaeq	r0, {r0, r3, r4, r5, ip, sp}
 80043e4:	0800349d 	stmdaeq	r0, {r0, r2, r3, r4, r7, sl, ip, sp}
 80043e8:	0800439d 	stmdaeq	r0, {r0, r2, r3, r4, r7, r8, r9, lr}
 80043ec:	0800298f 	stmdaeq	r0, {r0, r1, r2, r3, r7, r8, fp, sp}
 80043f0:	080043cc 	stmdaeq	r0, {r2, r3, r6, r7, r8, r9, lr}

080043f4 <EVAL2>:
 80043f4:	08002ac5 	stmdaeq	r0, {r0, r2, r6, r7, r9, fp, sp}
 80043f8:	08004361 	stmdaeq	r0, {r0, r5, r6, r8, r9, lr}
 80043fc:	0800277b 	stmdaeq	r0, {r0, r1, r3, r4, r5, r6, r8, r9, sl, sp}
 8004400:	080043c0 	stmdaeq	r0, {r6, r7, r8, r9, lr}

08004404 <_PRESE>:
 8004404:	45525006 	ldrbmi	r5, [r2, #-6]
 8004408:	00544553 	subseq	r4, r4, r3, asr r5

0800440c <PRESE>:
 800440c:	4750      	bx	sl
 800440e:	bf00      	nop
 8004410:	0800293b 	stmdaeq	r0, {r0, r1, r3, r4, r5, r8, fp, sp}
 8004414:	2001fe80 	andcs	pc, r1, r0, lsl #29
 8004418:	08002a91 	stmdaeq	r0, {r0, r4, r7, r9, fp, sp}
 800441c:	0800277b 	stmdaeq	r0, {r0, r1, r3, r4, r5, r6, r8, r9, sl, sp}
 8004420:	08004404 	stmdaeq	r0, {r2, sl, lr}

08004424 <_QUIT>:
 8004424:	49555104 	ldmdbmi	r5, {r2, r8, ip, lr}^
 8004428:	bf000054 	svclt	0x00000054

0800442c <QUIT>:
 800442c:	0800293b 	stmdaeq	r0, {r0, r1, r3, r4, r5, r8, fp, sp}
 8004430:	2001ff00 	andcs	pc, r1, r0, lsl #30
 8004434:	08002a81 	stmdaeq	r0, {r0, r7, r9, fp, sp}

08004438 <QUIT1>:
 8004438:	08004341 	stmdaeq	r0, {r0, r6, r8, r9, lr}

0800443c <QUIT2>:
 800443c:	08004245 	stmdaeq	r0, {r0, r2, r6, r9, lr}
 8004440:	080043c9 	stmdaeq	r0, {r0, r3, r6, r7, r8, r9, lr}
 8004444:	0800298f 	stmdaeq	r0, {r0, r1, r2, r3, r7, r8, fp, sp}
 8004448:	0800443c 	stmdaeq	r0, {r2, r3, r4, r5, sl, lr}
 800444c:	08004424 	stmdaeq	r0, {r2, r5, sl, lr}

08004450 <_FORGET>:
 8004450:	524f4606 	subpl	r4, pc, #6291456	; 0x600000
 8004454:	00544547 	subseq	r4, r4, r7, asr #10

08004458 <FORGET>:
 8004458:	4750      	bx	sl
 800445a:	bf00      	nop
 800445c:	08003e89 	stmdaeq	r0, {r0, r3, r7, r9, sl, fp, ip, sp}
 8004460:	08002ad5 	stmdaeq	r0, {r0, r2, r4, r6, r7, r9, fp, sp}
 8004464:	0800297b 	stmdaeq	r0, {r0, r1, r3, r4, r5, r6, r8, fp, sp}
 8004468:	080044a0 	stmdaeq	r0, {r5, r7, sl, lr}
 800446c:	08004011 	stmdaeq	r0, {r0, r4, lr}
 8004470:	08002ca9 	stmdaeq	r0, {r0, r3, r5, r7, sl, fp, sp}
 8004474:	0800297b 	stmdaeq	r0, {r0, r1, r3, r4, r5, r6, r8, fp, sp}
 8004478:	0800449c 	stmdaeq	r0, {r2, r3, r4, r7, sl, lr}
 800447c:	08002c45 	stmdaeq	r0, {r0, r2, r6, sl, fp, sp}
 8004480:	08002ad5 	stmdaeq	r0, {r0, r2, r4, r6, r7, r9, fp, sp}
 8004484:	08003079 	stmdaeq	r0, {r0, r3, r4, r5, r6, ip, sp}
 8004488:	080029ad 	stmdaeq	r0, {r0, r2, r3, r5, r7, r8, fp, sp}
 800448c:	080029c1 	stmdaeq	r0, {r0, r6, r7, r8, fp, sp}
 8004490:	080030a5 	stmdaeq	r0, {r0, r2, r5, r7, ip, sp}
 8004494:	080029ad 	stmdaeq	r0, {r0, r2, r3, r5, r7, r8, fp, sp}
 8004498:	080049f5 	stmdaeq	r0, {r0, r2, r4, r5, r6, r7, r8, fp, lr}
 800449c:	08002ac5 	stmdaeq	r0, {r0, r2, r6, r7, r9, fp, sp}
 80044a0:	0800277b 	stmdaeq	r0, {r0, r1, r3, r4, r5, r6, r8, r9, sl, sp}
 80044a4:	08004450 	stmdaeq	r0, {r4, r6, sl, lr}

080044a8 <_TICK>:
 80044a8:	bf002701 	svclt	0x00002701

080044ac <TICK>:
 80044ac:	4750      	bx	sl
 80044ae:	bf00      	nop
 80044b0:	08003e89 	stmdaeq	r0, {r0, r3, r7, r9, sl, fp, ip, sp}
 80044b4:	08004011 	stmdaeq	r0, {r0, r4, lr}
 80044b8:	0800297b 	stmdaeq	r0, {r0, r1, r3, r4, r5, r6, r8, fp, sp}
 80044bc:	080044c4 	stmdaeq	r0, {r2, r6, r7, sl, lr}
 80044c0:	0800277b 	stmdaeq	r0, {r0, r1, r3, r4, r5, r6, r8, r9, sl, sp}

080044c4 <TICK1>:
 80044c4:	08004285 	stmdaeq	r0, {r0, r2, r7, r9, lr}
 80044c8:	080044a8 	stmdaeq	r0, {r3, r5, r7, sl, lr}

080044cc <_ALLOT>:
 80044cc:	4c4c4105 	stfmie	f4, [ip], {5}
 80044d0:	bf00544f 	svclt	0x0000544f

080044d4 <ALLOT>:
 80044d4:	4750      	bx	sl
 80044d6:	bf00      	nop
 80044d8:	08003079 	stmdaeq	r0, {r0, r3, r4, r5, r6, ip, sp}
 80044dc:	08002ee1 	stmdaeq	r0, {r0, r5, r6, r7, r9, sl, fp, sp}
 80044e0:	0800277b 	stmdaeq	r0, {r0, r1, r3, r4, r5, r6, r8, r9, sl, sp}
 80044e4:	080044cc 	stmdaeq	r0, {r2, r3, r6, r7, sl, lr}

080044e8 <_COMMA>:
 80044e8:	bf002c01 	svclt	0x00002c01

080044ec <COMMA>:
 80044ec:	4750      	bx	sl
 80044ee:	bf00      	nop
 80044f0:	0800344d 	stmdaeq	r0, {r0, r2, r3, r6, sl, ip, sp}
 80044f4:	08002ad5 	stmdaeq	r0, {r0, r2, r4, r6, r7, r9, fp, sp}
 80044f8:	08002c35 	stmdaeq	r0, {r0, r2, r4, r5, sl, fp, sp}
 80044fc:	08003079 	stmdaeq	r0, {r0, r3, r4, r5, r6, ip, sp}
 8004500:	080029ad 	stmdaeq	r0, {r0, r2, r3, r5, r7, r8, fp, sp}
 8004504:	080029ad 	stmdaeq	r0, {r0, r2, r3, r5, r7, r8, fp, sp}
 8004508:	0800277b 	stmdaeq	r0, {r0, r1, r3, r4, r5, r6, r8, r9, sl, sp}
 800450c:	080044e8 	stmdaeq	r0, {r3, r5, r6, r7, sl, lr}

08004510 <_BCOMP>:
 8004510:	4f435b89 	svcmi	0x00435b89
 8004514:	4c49504d 	mcrrmi	0, 4, r5, r9, cr13
 8004518:	bf005d45 	svclt	0x00005d45

0800451c <BCOMP>:
 800451c:	4750      	bx	sl
 800451e:	bf00      	nop
 8004520:	080044ad 	stmdaeq	r0, {r0, r2, r3, r5, r7, sl, lr}
 8004524:	080044ed 	stmdaeq	r0, {r0, r2, r3, r5, r6, r7, sl, lr}
 8004528:	0800277b 	stmdaeq	r0, {r0, r1, r3, r4, r5, r6, r8, r9, sl, sp}
 800452c:	08004510 	stmdaeq	r0, {r4, r8, sl, lr}

08004530 <_COMPI>:
 8004530:	4d4f4347 	stclmi	3, cr4, [pc, #-284]	; 800441c <PRESE+0x10>
 8004534:	454c4950 	strbmi	r4, [ip, #-2384]	; 0xfffff6b0

08004538 <COMPI>:
 8004538:	4750      	bx	sl
 800453a:	bf00      	nop
 800453c:	08002a0d 	stmdaeq	r0, {r0, r2, r3, r9, fp, sp}
 8004540:	08002ad5 	stmdaeq	r0, {r0, r2, r4, r6, r7, r9, fp, sp}
 8004544:	080029c1 	stmdaeq	r0, {r0, r6, r7, r8, fp, sp}
 8004548:	0800293b 	stmdaeq	r0, {r0, r1, r3, r4, r5, r8, fp, sp}
 800454c:	00000001 	andeq	r0, r0, r1
 8004550:	08002b2d 	stmdaeq	r0, {r0, r2, r3, r5, r8, r9, fp, sp}
 8004554:	080044ed 	stmdaeq	r0, {r0, r2, r3, r5, r6, r7, sl, lr}
 8004558:	08002c35 	stmdaeq	r0, {r0, r2, r4, r5, sl, fp, sp}
 800455c:	08002a51 	stmdaeq	r0, {r0, r4, r6, r9, fp, sp}
 8004560:	0800277b 	stmdaeq	r0, {r0, r1, r3, r4, r5, r6, r8, r9, sl, sp}
 8004564:	08004530 	stmdaeq	r0, {r4, r5, r8, sl, lr}

08004568 <_LITER>:
 8004568:	54494c87 	strbpl	r4, [r9], #-3207	; 0xfffff379
 800456c:	4c415245 	sfmmi	f5, 2, [r1], {69}	; 0x45

08004570 <LITER>:
 8004570:	4750      	bx	sl
 8004572:	bf00      	nop
 8004574:	0800293b 	stmdaeq	r0, {r0, r1, r3, r4, r5, r8, fp, sp}
 8004578:	0800293a 	stmdaeq	r0, {r1, r3, r4, r5, r8, fp, sp}
 800457c:	08004a51 	stmdaeq	r0, {r0, r4, r6, r9, fp, lr}
 8004580:	080044ed 	stmdaeq	r0, {r0, r2, r3, r5, r6, r7, sl, lr}
 8004584:	0800277b 	stmdaeq	r0, {r0, r1, r3, r4, r5, r6, r8, r9, sl, sp}

08004588 <STRCQ>:
 8004588:	4750      	bx	sl
 800458a:	bf00      	nop
 800458c:	0800293b 	stmdaeq	r0, {r0, r1, r3, r4, r5, r8, fp, sp}
 8004590:	fffffffc 			; <UNDEFINED> instruction: 0xfffffffc
 8004594:	08003079 	stmdaeq	r0, {r0, r3, r4, r5, r6, ip, sp}
 8004598:	08002ee1 	stmdaeq	r0, {r0, r5, r6, r7, r9, sl, fp, sp}
 800459c:	0800293b 	stmdaeq	r0, {r0, r1, r3, r4, r5, r8, fp, sp}
 80045a0:	00000022 	andeq	r0, r0, r2, lsr #32
 80045a4:	08003e65 	stmdaeq	r0, {r0, r2, r5, r6, r9, sl, fp, ip, sp}
 80045a8:	08002f29 	stmdaeq	r0, {r0, r3, r5, r8, r9, sl, fp, sp}
 80045ac:	08002b99 	stmdaeq	r0, {r0, r3, r4, r7, r8, r9, fp, sp}
 80045b0:	08003399 	stmdaeq	r0, {r0, r3, r4, r7, r8, r9, ip, sp}
 80045b4:	08003079 	stmdaeq	r0, {r0, r3, r4, r5, r6, ip, sp}
 80045b8:	080029ad 	stmdaeq	r0, {r0, r2, r3, r5, r7, r8, fp, sp}
 80045bc:	0800277b 	stmdaeq	r0, {r0, r1, r3, r4, r5, r6, r8, r9, sl, sp}
 80045c0:	08004568 	stmdaeq	r0, {r3, r5, r6, r8, sl, lr}

080045c4 <_FOR>:
 80045c4:	524f46c3 	subpl	r4, pc, #204472320	; 0xc300000

080045c8 <FOR>:
 80045c8:	4750      	bx	sl
 80045ca:	bf00      	nop
 80045cc:	0800293b 	stmdaeq	r0, {r0, r1, r3, r4, r5, r8, fp, sp}
 80045d0:	08002a50 	stmdaeq	r0, {r4, r6, r9, fp, sp}
 80045d4:	08004a51 	stmdaeq	r0, {r0, r4, r6, r9, fp, lr}
 80045d8:	0800344d 	stmdaeq	r0, {r0, r2, r3, r6, sl, ip, sp}
 80045dc:	0800277b 	stmdaeq	r0, {r0, r1, r3, r4, r5, r6, r8, r9, sl, sp}
 80045e0:	080045c4 	stmdaeq	r0, {r2, r6, r7, r8, sl, lr}

080045e4 <_DO>:
 80045e4:	004f44c2 	subeq	r4, pc, r2, asr #9

080045e8 <DO>:
 80045e8:	4750      	bx	sl
 80045ea:	bf00      	nop
 80045ec:	0800293b 	stmdaeq	r0, {r0, r1, r3, r4, r5, r8, fp, sp}
 80045f0:	08002ae4 	stmdaeq	r0, {r2, r5, r6, r7, r9, fp, sp}
 80045f4:	08004a51 	stmdaeq	r0, {r0, r4, r6, r9, fp, lr}
 80045f8:	0800293b 	stmdaeq	r0, {r0, r1, r3, r4, r5, r8, fp, sp}
 80045fc:	08002a50 	stmdaeq	r0, {r4, r6, r9, fp, sp}
 8004600:	08004a51 	stmdaeq	r0, {r0, r4, r6, r9, fp, lr}
 8004604:	0800293b 	stmdaeq	r0, {r0, r1, r3, r4, r5, r8, fp, sp}
 8004608:	08002a50 	stmdaeq	r0, {r4, r6, r9, fp, sp}
 800460c:	08004a51 	stmdaeq	r0, {r0, r4, r6, r9, fp, lr}
 8004610:	0800344d 	stmdaeq	r0, {r0, r2, r3, r6, sl, ip, sp}
 8004614:	0800277b 	stmdaeq	r0, {r0, r1, r3, r4, r5, r6, r8, r9, sl, sp}

08004618 <DOPLOOP>:
 8004618:	e8b8 0003 	ldmia.w	r8!, {r0, r1}
 800461c:	4430      	add	r0, r6
 800461e:	e928 0003 	stmdb	r8!, {r0, r1}
 8004622:	4288      	cmp	r0, r1
 8004624:	d405      	bmi.n	8004632 <DOPLOOP+0x1a>
 8004626:	f108 0808 	add.w	r8, r8, #8
 800462a:	f10c 0c04 	add.w	ip, ip, #4
 800462e:	f7fe b8a1 	b.w	8002774 <INEXT>
 8004632:	f8dc c000 	ldr.w	ip, [ip]
 8004636:	f7fe b89d 	b.w	8002774 <INEXT>
 800463a:	080045e4 	stmdaeq	r0, {r2, r5, r6, r7, r8, sl, lr}

0800463e <_PLOOP>:
 800463e:	4f4c2bc5 	svcmi	0x004c2bc5
 8004642:	 	ldrbmi	r5, [r0, -pc, asr #32]

08004644 <PLOOP>:
 8004644:	4750      	bx	sl
 8004646:	bf00      	nop
 8004648:	0800293b 	stmdaeq	r0, {r0, r1, r3, r4, r5, r8, fp, sp}
 800464c:	08004618 	stmdaeq	r0, {r3, r4, r9, sl, lr}
 8004650:	08004a51 	stmdaeq	r0, {r0, r4, r6, r9, fp, lr}
 8004654:	080044ed 	stmdaeq	r0, {r0, r2, r3, r5, r6, r7, sl, lr}
 8004658:	0800277b 	stmdaeq	r0, {r0, r1, r3, r4, r5, r6, r8, r9, sl, sp}

0800465c <DOLOOP>:
 800465c:	f8d8 0000 	ldr.w	r0, [r8]
 8004660:	f100 0001 	add.w	r0, r0, #1
 8004664:	f8c8 0000 	str.w	r0, [r8]
 8004668:	f8d8 1004 	ldr.w	r1, [r8, #4]
 800466c:	4288      	cmp	r0, r1
 800466e:	d405      	bmi.n	800467c <DOLOOP+0x20>
 8004670:	f108 0808 	add.w	r8, r8, #8
 8004674:	f10c 0c04 	add.w	ip, ip, #4
 8004678:	f7fe b87c 	b.w	8002774 <INEXT>
 800467c:	f8dc c000 	ldr.w	ip, [ip]
 8004680:	f7fe b878 	b.w	8002774 <INEXT>
 8004684:	0800463e 	stmdaeq	r0, {r1, r2, r3, r4, r5, r9, sl, lr}

08004688 <_LOOP>:
 8004688:	4f4f4cc4 	svcmi	0x004f4cc4
 800468c:	bf000050 	svclt	0x00000050

08004690 <LOOP>:
 8004690:	4750      	bx	sl
 8004692:	bf00      	nop
 8004694:	0800293b 	stmdaeq	r0, {r0, r1, r3, r4, r5, r8, fp, sp}
 8004698:	0800465c 	stmdaeq	r0, {r2, r3, r4, r6, r9, sl, lr}
 800469c:	08004a51 	stmdaeq	r0, {r0, r4, r6, r9, fp, lr}
 80046a0:	080044ed 	stmdaeq	r0, {r0, r2, r3, r5, r6, r7, sl, lr}
 80046a4:	0800277b 	stmdaeq	r0, {r0, r1, r3, r4, r5, r6, r8, r9, sl, sp}
 80046a8:	08004688 	stmdaeq	r0, {r3, r7, r9, sl, lr}

080046ac <_BEGIN>:
 80046ac:	474542c5 	strbmi	r4, [r5, -r5, asr #5]
 80046b0:	bf004e49 	svclt	0x00004e49

080046b4 <BEGIN>:
 80046b4:	4750      	bx	sl
 80046b6:	bf00      	nop
 80046b8:	0800344d 	stmdaeq	r0, {r0, r2, r3, r6, sl, ip, sp}
 80046bc:	0800277b 	stmdaeq	r0, {r0, r1, r3, r4, r5, r6, r8, r9, sl, sp}
 80046c0:	080046ac 	stmdaeq	r0, {r2, r3, r5, r7, r9, sl, lr}

080046c4 <_FNEXT>:
 80046c4:	58454ec4 	stmdapl	r5, {r2, r6, r7, r9, sl, fp, lr}^
 80046c8:	bf000054 	svclt	0x00000054

080046cc <FNEXT>:
 80046cc:	4750      	bx	sl
 80046ce:	bf00      	nop
 80046d0:	0800293b 	stmdaeq	r0, {r0, r1, r3, r4, r5, r8, fp, sp}
 80046d4:	0800295c 	stmdaeq	r0, {r2, r3, r4, r6, r8, fp, sp}
 80046d8:	08004a51 	stmdaeq	r0, {r0, r4, r6, r9, fp, lr}
 80046dc:	080044ed 	stmdaeq	r0, {r0, r2, r3, r5, r6, r7, sl, lr}
 80046e0:	0800277b 	stmdaeq	r0, {r0, r1, r3, r4, r5, r6, r8, r9, sl, sp}
 80046e4:	080046c4 	stmdaeq	r0, {r2, r6, r7, r9, sl, lr}

080046e8 <_I>:
 80046e8:	bf004941 	svclt	0x00004941

080046ec <I>:
 80046ec:	f847 6d04 	str.w	r6, [r7, #-4]!
 80046f0:	f8d8 6000 	ldr.w	r6, [r8]
 80046f4:	f7fe b83e 	b.w	8002774 <INEXT>
 80046f8:	080046e8 	stmdaeq	r0, {r3, r5, r6, r7, r9, sl, lr}

080046fc <_J>:
 80046fc:	bf004a01 	svclt	0x00004a01

08004700 <J>:
 8004700:	f847 6d04 	str.w	r6, [r7, #-4]!
 8004704:	f8d8 6004 	ldr.w	r6, [r8, #4]
 8004708:	f7fe b834 	b.w	8002774 <INEXT>
 800470c:	080046fc 	stmdaeq	r0, {r2, r3, r4, r5, r6, r7, r9, sl, lr}

08004710 <_UNTIL>:
 8004710:	544e55c5 	strbpl	r5, [lr], #-1477	; 0xfffffa3b
 8004714:	bf004c49 	svclt	0x00004c49

08004718 <UNTIL>:
 8004718:	4750      	bx	sl
 800471a:	bf00      	nop
 800471c:	0800293b 	stmdaeq	r0, {r0, r1, r3, r4, r5, r8, fp, sp}
 8004720:	0800297a 	stmdaeq	r0, {r1, r3, r4, r5, r6, r8, fp, sp}
 8004724:	08004a51 	stmdaeq	r0, {r0, r4, r6, r9, fp, lr}
 8004728:	080044ed 	stmdaeq	r0, {r0, r2, r3, r5, r6, r7, sl, lr}
 800472c:	0800277b 	stmdaeq	r0, {r0, r1, r3, r4, r5, r6, r8, r9, sl, sp}
 8004730:	08004710 	stmdaeq	r0, {r4, r8, r9, sl, lr}

08004734 <_AGAIN>:
 8004734:	414741c5 	smlalbtmi	r4, r7, r5, r1
 8004738:	bf004e49 	svclt	0x00004e49

0800473c <AGAIN>:
 800473c:	4750      	bx	sl
 800473e:	bf00      	nop
 8004740:	0800293b 	stmdaeq	r0, {r0, r1, r3, r4, r5, r8, fp, sp}
 8004744:	0800298e 	stmdaeq	r0, {r1, r2, r3, r7, r8, fp, sp}
 8004748:	08004a51 	stmdaeq	r0, {r0, r4, r6, r9, fp, lr}
 800474c:	080044ed 	stmdaeq	r0, {r0, r2, r3, r5, r6, r7, sl, lr}
 8004750:	0800277b 	stmdaeq	r0, {r0, r1, r3, r4, r5, r6, r8, r9, sl, sp}
 8004754:	08004734 	stmdaeq	r0, {r2, r4, r5, r8, r9, sl, lr}

08004758 <_IFF>:
 8004758:	004649c2 	subeq	r4, r6, r2, asr #19

0800475c <IFF>:
 800475c:	4750      	bx	sl
 800475e:	bf00      	nop
 8004760:	0800293b 	stmdaeq	r0, {r0, r1, r3, r4, r5, r8, fp, sp}
 8004764:	0800297a 	stmdaeq	r0, {r1, r3, r4, r5, r6, r8, fp, sp}
 8004768:	08004a51 	stmdaeq	r0, {r0, r4, r6, r9, fp, lr}
 800476c:	0800344d 	stmdaeq	r0, {r0, r2, r3, r6, sl, ip, sp}
 8004770:	0800293b 	stmdaeq	r0, {r0, r1, r3, r4, r5, r8, fp, sp}
 8004774:	00000004 	andeq	r0, r0, r4
 8004778:	08003079 	stmdaeq	r0, {r0, r3, r4, r5, r6, ip, sp}
 800477c:	08002ee1 	stmdaeq	r0, {r0, r5, r6, r7, r9, sl, fp, sp}
 8004780:	0800277b 	stmdaeq	r0, {r0, r1, r3, r4, r5, r6, r8, r9, sl, sp}
 8004784:	08004758 	stmdaeq	r0, {r3, r4, r6, r8, r9, sl, lr}

08004788 <_AHEAD>:
 8004788:	454841c5 	strbmi	r4, [r8, #-453]	; 0xfffffe3b
 800478c:	bf004441 	svclt	0x00004441

08004790 <AHEAD>:
 8004790:	4750      	bx	sl
 8004792:	bf00      	nop
 8004794:	0800293b 	stmdaeq	r0, {r0, r1, r3, r4, r5, r8, fp, sp}
 8004798:	0800298e 	stmdaeq	r0, {r1, r2, r3, r7, r8, fp, sp}
 800479c:	08004a51 	stmdaeq	r0, {r0, r4, r6, r9, fp, lr}
 80047a0:	0800344d 	stmdaeq	r0, {r0, r2, r3, r6, sl, ip, sp}
 80047a4:	0800293b 	stmdaeq	r0, {r0, r1, r3, r4, r5, r8, fp, sp}
 80047a8:	00000004 	andeq	r0, r0, r4
 80047ac:	08003079 	stmdaeq	r0, {r0, r3, r4, r5, r6, ip, sp}
 80047b0:	08002ee1 	stmdaeq	r0, {r0, r5, r6, r7, r9, sl, fp, sp}
 80047b4:	0800277b 	stmdaeq	r0, {r0, r1, r3, r4, r5, r6, r8, r9, sl, sp}
 80047b8:	08004788 	stmdaeq	r0, {r3, r7, r8, r9, sl, lr}

080047bc <_REPEA>:
 80047bc:	504552c6 	subpl	r5, r5, r6, asr #5
 80047c0:	00544145 	subseq	r4, r4, r5, asr #2

080047c4 <REPEA>:
 80047c4:	4750      	bx	sl
 80047c6:	bf00      	nop
 80047c8:	0800473d 	stmdaeq	r0, {r0, r2, r3, r4, r5, r8, r9, sl, lr}
 80047cc:	0800344d 	stmdaeq	r0, {r0, r2, r3, r6, sl, ip, sp}
 80047d0:	08002ae5 	stmdaeq	r0, {r0, r2, r5, r6, r7, r9, fp, sp}
 80047d4:	080029ad 	stmdaeq	r0, {r0, r2, r3, r5, r7, r8, fp, sp}
 80047d8:	0800277b 	stmdaeq	r0, {r0, r1, r3, r4, r5, r6, r8, r9, sl, sp}
 80047dc:	080047bc 	stmdaeq	r0, {r2, r3, r4, r5, r7, r8, r9, sl, lr}

080047e0 <_THENN>:
 80047e0:	454854c4 	strbmi	r5, [r8, #-1220]	; 0xfffffb3c
 80047e4:	bf00004e 	svclt	0x0000004e

080047e8 <THENN>:
 80047e8:	4750      	bx	sl
 80047ea:	bf00      	nop
 80047ec:	0800344d 	stmdaeq	r0, {r0, r2, r3, r6, sl, ip, sp}
 80047f0:	08002ae5 	stmdaeq	r0, {r0, r2, r5, r6, r7, r9, fp, sp}
 80047f4:	080029ad 	stmdaeq	r0, {r0, r2, r3, r5, r7, r8, fp, sp}
 80047f8:	0800277b 	stmdaeq	r0, {r0, r1, r3, r4, r5, r6, r8, r9, sl, sp}
 80047fc:	080047e0 	stmdaeq	r0, {r5, r6, r7, r8, r9, sl, lr}

08004800 <_AFT>:
 8004800:	544641c3 	strbpl	r4, [r6], #-451	; 0xfffffe3d

08004804 <AFT>:
 8004804:	4750      	bx	sl
 8004806:	bf00      	nop
 8004808:	08002ac5 	stmdaeq	r0, {r0, r2, r6, r7, r9, fp, sp}
 800480c:	08004791 	stmdaeq	r0, {r0, r4, r7, r8, r9, sl, lr}
 8004810:	080046b5 	stmdaeq	r0, {r0, r2, r4, r5, r7, r9, sl, lr}
 8004814:	08002ae5 	stmdaeq	r0, {r0, r2, r5, r6, r7, r9, fp, sp}
 8004818:	0800277b 	stmdaeq	r0, {r0, r1, r3, r4, r5, r6, r8, r9, sl, sp}
 800481c:	08004800 	stmdaeq	r0, {fp, lr}

08004820 <_ELSEE>:
 8004820:	534c45c4 	movtpl	r4, #50628	; 0xc5c4
 8004824:	bf000045 	svclt	0x00000045

08004828 <ELSEE>:
 8004828:	4750      	bx	sl
 800482a:	bf00      	nop
 800482c:	08004791 	stmdaeq	r0, {r0, r4, r7, r8, r9, sl, lr}
 8004830:	08002ae5 	stmdaeq	r0, {r0, r2, r5, r6, r7, r9, fp, sp}
 8004834:	080047e9 	stmdaeq	r0, {r0, r3, r5, r6, r7, r8, r9, sl, lr}
 8004838:	0800277b 	stmdaeq	r0, {r0, r1, r3, r4, r5, r6, r8, r9, sl, sp}
 800483c:	08004820 	stmdaeq	r0, {r5, fp, lr}

08004840 <_WHILE>:
 8004840:	494857c5 	stmdbmi	r8, {r0, r2, r6, r7, r8, r9, sl, ip, lr}^
 8004844:	bf00454c 	svclt	0x0000454c

08004848 <WHILE>:
 8004848:	4750      	bx	sl
 800484a:	bf00      	nop
 800484c:	0800475d 	stmdaeq	r0, {r0, r2, r3, r4, r6, r8, r9, sl, lr}
 8004850:	08002ae5 	stmdaeq	r0, {r0, r2, r5, r6, r7, r9, fp, sp}
 8004854:	0800277b 	stmdaeq	r0, {r0, r1, r3, r4, r5, r6, r8, r9, sl, sp}
 8004858:	08004840 	stmdaeq	r0, {r6, fp, lr}

0800485c <_ABRTQ>:
 800485c:	4f424186 	svcmi	0x00424186
 8004860:	00225452 	eoreq	r5, r2, r2, asr r4

08004864 <ABRTQ>:
 8004864:	4750      	bx	sl
 8004866:	bf00      	nop
 8004868:	0800293b 	stmdaeq	r0, {r0, r1, r3, r4, r5, r8, fp, sp}
 800486c:	080042b0 	stmdaeq	r0, {r4, r5, r7, r9, lr}
 8004870:	08004a51 	stmdaeq	r0, {r0, r4, r6, r9, fp, lr}
 8004874:	08004589 	stmdaeq	r0, {r0, r3, r7, r8, sl, lr}
 8004878:	0800277b 	stmdaeq	r0, {r0, r1, r3, r4, r5, r6, r8, r9, sl, sp}
 800487c:	0800485c 	stmdaeq	r0, {r2, r3, r4, r6, fp, lr}

08004880 <_STRQ>:
 8004880:	002224c2 	eoreq	r2, r2, r2, asr #9

08004884 <STRQ>:
 8004884:	4750      	bx	sl
 8004886:	bf00      	nop
 8004888:	0800293b 	stmdaeq	r0, {r0, r1, r3, r4, r5, r8, fp, sp}
 800488c:	08003aa8 	stmdaeq	r0, {r3, r5, r7, r9, fp, ip, sp}
 8004890:	08004a51 	stmdaeq	r0, {r0, r4, r6, r9, fp, lr}
 8004894:	08004589 	stmdaeq	r0, {r0, r3, r7, r8, sl, lr}
 8004898:	0800277b 	stmdaeq	r0, {r0, r1, r3, r4, r5, r6, r8, r9, sl, sp}
 800489c:	08004880 	stmdaeq	r0, {r7, fp, lr}

080048a0 <_DOTQ>:
 80048a0:	00222ec2 	eoreq	r2, r2, r2, asr #29

080048a4 <DOTQ>:
 80048a4:	4750      	bx	sl
 80048a6:	bf00      	nop
 80048a8:	0800293b 	stmdaeq	r0, {r0, r1, r3, r4, r5, r8, fp, sp}
 80048ac:	08003ac4 	stmdaeq	r0, {r2, r6, r7, r9, fp, ip, sp}
 80048b0:	08004a51 	stmdaeq	r0, {r0, r4, r6, r9, fp, lr}
 80048b4:	08004589 	stmdaeq	r0, {r0, r3, r7, r8, sl, lr}
 80048b8:	0800277b 	stmdaeq	r0, {r0, r1, r3, r4, r5, r6, r8, r9, sl, sp}
 80048bc:	080048a0 	stmdaeq	r0, {r5, r7, fp, lr}

080048c0 <_UNIQU>:
 80048c0:	4e553f07 	cdpmi	15, 5, cr3, cr5, cr7, {0}
 80048c4:	45555149 	ldrbmi	r5, [r5, #-329]	; 0xfffffeb7

080048c8 <UNIQU>:
 80048c8:	4750      	bx	sl
 80048ca:	bf00      	nop
 80048cc:	08002ad5 	stmdaeq	r0, {r0, r2, r4, r6, r7, r9, fp, sp}
 80048d0:	08004011 	stmdaeq	r0, {r0, r4, lr}
 80048d4:	0800297b 	stmdaeq	r0, {r0, r1, r3, r4, r5, r6, r8, fp, sp}
 80048d8:	080048f4 	stmdaeq	r0, {r2, r4, r5, r6, r7, fp, lr}
 80048dc:	08003ac5 	stmdaeq	r0, {r0, r2, r6, r7, r9, fp, ip, sp}
 80048e0:	65722007 	ldrbvs	r2, [r2, #-7]!
 80048e4:	20666544 	rsbcs	r6, r6, r4, asr #10
 80048e8:	08002af9 	stmdaeq	r0, {r0, r3, r4, r5, r6, r7, r9, fp, sp}
 80048ec:	08002f29 	stmdaeq	r0, {r0, r3, r5, r8, r9, sl, fp, sp}
 80048f0:	08003a29 	stmdaeq	r0, {r0, r3, r5, r9, fp, ip, sp}

080048f4 <UNIQ1>:
 80048f4:	08002ac5 	stmdaeq	r0, {r0, r2, r6, r7, r9, fp, sp}
 80048f8:	0800277b 	stmdaeq	r0, {r0, r1, r3, r4, r5, r6, r8, r9, sl, sp}

080048fc <SNAME>:
 80048fc:	4750      	bx	sl
 80048fe:	bf00      	nop
 8004900:	08002ad5 	stmdaeq	r0, {r0, r2, r4, r6, r7, r9, fp, sp}
 8004904:	080029e1 	stmdaeq	r0, {r0, r5, r6, r7, r8, fp, sp}
 8004908:	0800297b 	stmdaeq	r0, {r0, r1, r3, r4, r5, r6, r8, fp, sp}
 800490c:	08004944 	stmdaeq	r0, {r2, r6, r8, fp, lr}
 8004910:	080048c9 	stmdaeq	r0, {r0, r3, r6, r7, fp, lr}
 8004914:	080030a5 	stmdaeq	r0, {r0, r2, r5, r7, ip, sp}
 8004918:	080029c1 	stmdaeq	r0, {r0, r6, r7, r8, fp, sp}
 800491c:	080044ed 	stmdaeq	r0, {r0, r2, r3, r5, r6, r7, sl, lr}
 8004920:	08002ad5 	stmdaeq	r0, {r0, r2, r4, r6, r7, r9, fp, sp}
 8004924:	080030a5 	stmdaeq	r0, {r0, r2, r5, r7, ip, sp}
 8004928:	080029ad 	stmdaeq	r0, {r0, r2, r3, r5, r7, r8, fp, sp}
 800492c:	08002f29 	stmdaeq	r0, {r0, r3, r5, r8, r9, sl, fp, sp}
 8004930:	08002b99 	stmdaeq	r0, {r0, r3, r4, r7, r8, r9, fp, sp}
 8004934:	08003399 	stmdaeq	r0, {r0, r3, r4, r7, r8, r9, ip, sp}
 8004938:	08003079 	stmdaeq	r0, {r0, r3, r4, r5, r6, ip, sp}
 800493c:	080029ad 	stmdaeq	r0, {r0, r2, r3, r5, r7, r8, fp, sp}
 8004940:	0800277b 	stmdaeq	r0, {r0, r1, r3, r4, r5, r6, r8, r9, sl, sp}

08004944 <SNAM1>:
 8004944:	08003aa9 	stmdaeq	r0, {r0, r3, r5, r7, r9, fp, ip, sp}
 8004948:	616e2007 	cmnvs	lr, r7
 800494c:	203f656d 	eorscs	r6, pc, sp, ror #10
 8004950:	08004285 	stmdaeq	r0, {r0, r2, r7, r9, lr}
 8004954:	080048c0 	stmdaeq	r0, {r6, r7, fp, lr}

08004958 <_SCOMP>:
 8004958:	4f432408 	svcmi	0x00432408
 800495c:	4c49504d 	mcrrmi	0, 4, r5, r9, cr13
 8004960:	bf000045 	svclt	0x00000045

08004964 <SCOMP>:
 8004964:	4750      	bx	sl
 8004966:	bf00      	nop
 8004968:	08004011 	stmdaeq	r0, {r0, r4, lr}
 800496c:	08002ca9 	stmdaeq	r0, {r0, r3, r5, r7, sl, fp, sp}
 8004970:	0800297b 	stmdaeq	r0, {r0, r1, r3, r4, r5, r6, r8, fp, sp}
 8004974:	080049a0 	stmdaeq	r0, {r5, r7, r8, fp, lr}
 8004978:	080029c1 	stmdaeq	r0, {r0, r6, r7, r8, fp, sp}
 800497c:	0800293b 	stmdaeq	r0, {r0, r1, r3, r4, r5, r8, fp, sp}
 8004980:	00000080 	andeq	r0, r0, r0, lsl #1
 8004984:	08002b19 	stmdaeq	r0, {r0, r3, r4, r8, r9, fp, sp}
 8004988:	0800297b 	stmdaeq	r0, {r0, r1, r3, r4, r5, r6, r8, fp, sp}
 800498c:	08004998 	stmdaeq	r0, {r3, r4, r7, r8, fp, lr}
 8004990:	08002951 	stmdaeq	r0, {r0, r4, r6, r8, fp, sp}
 8004994:	0800277b 	stmdaeq	r0, {r0, r1, r3, r4, r5, r6, r8, r9, sl, sp}

08004998 <SCOM1>:
 8004998:	08004a51 	stmdaeq	r0, {r0, r4, r6, r9, fp, lr}
 800499c:	0800277b 	stmdaeq	r0, {r0, r1, r3, r4, r5, r6, r8, r9, sl, sp}

080049a0 <SCOM2>:
 80049a0:	080022d9 	stmdaeq	r0, {r0, r3, r4, r6, r7, r9, sp}
 80049a4:	0800297b 	stmdaeq	r0, {r0, r1, r3, r4, r5, r6, r8, fp, sp}
 80049a8:	080049b4 	stmdaeq	r0, {r2, r4, r5, r7, r8, fp, lr}
 80049ac:	08004571 	stmdaeq	r0, {r0, r4, r5, r6, r8, sl, lr}
 80049b0:	0800277b 	stmdaeq	r0, {r0, r1, r3, r4, r5, r6, r8, r9, sl, sp}

080049b4 <SCOM3>:
 80049b4:	080049bd 	stmdaeq	r0, {r0, r2, r3, r4, r5, r7, r8, fp, lr}
 80049b8:	08004285 	stmdaeq	r0, {r0, r2, r7, r9, lr}

080049bc <COLON_ABORT>:
 80049bc:	4750      	bx	sl
 80049be:	bf00      	nop
 80049c0:	080030a5 	stmdaeq	r0, {r0, r2, r5, r7, ip, sp}
 80049c4:	080029c1 	stmdaeq	r0, {r0, r6, r7, r8, fp, sp}
 80049c8:	08002c45 	stmdaeq	r0, {r0, r2, r6, sl, fp, sp}
 80049cc:	08002ad5 	stmdaeq	r0, {r0, r2, r4, r6, r7, r9, fp, sp}
 80049d0:	08003079 	stmdaeq	r0, {r0, r3, r4, r5, r6, ip, sp}
 80049d4:	080029ad 	stmdaeq	r0, {r0, r2, r3, r5, r7, r8, fp, sp}
 80049d8:	080029c1 	stmdaeq	r0, {r0, r6, r7, r8, fp, sp}
 80049dc:	080030a5 	stmdaeq	r0, {r0, r2, r5, r7, ip, sp}
 80049e0:	080029ad 	stmdaeq	r0, {r0, r2, r3, r5, r7, r8, fp, sp}
 80049e4:	0800277b 	stmdaeq	r0, {r0, r1, r3, r4, r5, r6, r8, r9, sl, sp}
 80049e8:	08004958 	stmdaeq	r0, {r3, r4, r6, r8, fp, lr}

080049ec <_OVERT>:
 80049ec:	45564f05 	ldrbmi	r4, [r6, #-3845]	; 0xfffff0fb
 80049f0:	bf005452 	svclt	0x00005452

080049f4 <OVERT>:
 80049f4:	4750      	bx	sl
 80049f6:	bf00      	nop
 80049f8:	080030a5 	stmdaeq	r0, {r0, r2, r5, r7, ip, sp}
 80049fc:	080029c1 	stmdaeq	r0, {r0, r6, r7, r8, fp, sp}
 8004a00:	08003065 	stmdaeq	r0, {r0, r2, r5, r6, ip, sp}
 8004a04:	080029ad 	stmdaeq	r0, {r0, r2, r3, r5, r7, r8, fp, sp}
 8004a08:	0800277b 	stmdaeq	r0, {r0, r1, r3, r4, r5, r6, r8, r9, sl, sp}
 8004a0c:	080049ec 	stmdaeq	r0, {r2, r3, r5, r6, r7, r8, fp, lr}

08004a10 <_SEMIS>:
 8004a10:	bf003bc1 	svclt	0x00003bc1

08004a14 <SEMIS>:
 8004a14:	4750      	bx	sl
 8004a16:	bf00      	nop
 8004a18:	0800293b 	stmdaeq	r0, {r0, r1, r3, r4, r5, r8, fp, sp}
 8004a1c:	0800277a 	stmdaeq	r0, {r1, r3, r4, r5, r6, r8, r9, sl, sp}
 8004a20:	08004a51 	stmdaeq	r0, {r0, r4, r6, r9, fp, lr}
 8004a24:	08004341 	stmdaeq	r0, {r0, r6, r8, r9, lr}
 8004a28:	080049f5 	stmdaeq	r0, {r0, r2, r4, r5, r6, r7, r8, fp, lr}
 8004a2c:	0800277b 	stmdaeq	r0, {r0, r1, r3, r4, r5, r6, r8, r9, sl, sp}
 8004a30:	08004a10 	stmdaeq	r0, {r4, r9, fp, lr}

08004a34 <_RBRAC>:
 8004a34:	bf005d01 	svclt	0x00005d01

08004a38 <RBRAC>:
 8004a38:	4750      	bx	sl
 8004a3a:	bf00      	nop
 8004a3c:	0800293b 	stmdaeq	r0, {r0, r1, r3, r4, r5, r8, fp, sp}
 8004a40:	08004964 	stmdaeq	r0, {r2, r5, r6, r8, fp, lr}
 8004a44:	08003039 	stmdaeq	r0, {r0, r3, r4, r5, ip, sp}
 8004a48:	080029ad 	stmdaeq	r0, {r0, r2, r3, r5, r7, r8, fp, sp}
 8004a4c:	0800277b 	stmdaeq	r0, {r0, r1, r3, r4, r5, r6, r8, r9, sl, sp}

08004a50 <CALLC>:
 8004a50:	4750      	bx	sl
 8004a52:	bf00      	nop
 8004a54:	0800293b 	stmdaeq	r0, {r0, r1, r3, r4, r5, r8, fp, sp}
 8004a58:	00000001 	andeq	r0, r0, r1
 8004a5c:	08002b2d 	stmdaeq	r0, {r0, r2, r3, r5, r8, r9, fp, sp}
 8004a60:	080044ed 	stmdaeq	r0, {r0, r2, r3, r5, r6, r7, sl, lr}
 8004a64:	0800277b 	stmdaeq	r0, {r0, r1, r3, r4, r5, r6, r8, r9, sl, sp}
 8004a68:	08004a34 	stmdaeq	r0, {r2, r4, r5, r9, fp, lr}

08004a6c <_COLON>:
 8004a6c:	bf003a01 	svclt	0x00003a01

08004a70 <COLON>:
 8004a70:	4750      	bx	sl
 8004a72:	bf00      	nop
 8004a74:	08003e89 	stmdaeq	r0, {r0, r3, r7, r9, sl, fp, ip, sp}
 8004a78:	080048fd 	stmdaeq	r0, {r0, r2, r3, r4, r5, r6, r7, fp, lr}
 8004a7c:	08002785 	stmdaeq	r0, {r0, r2, r7, r8, r9, sl, sp}
 8004a80:	08004a39 	stmdaeq	r0, {r0, r3, r4, r5, r9, fp, lr}
 8004a84:	0800277b 	stmdaeq	r0, {r0, r1, r3, r4, r5, r6, r8, r9, sl, sp}
 8004a88:	08004a6c 	stmdaeq	r0, {r2, r3, r5, r6, r9, fp, lr}

08004a8c <_IMMED>:
 8004a8c:	4d4d4909 	vstrmi.16	s9, [sp, #-18]	; 0xffffffee	; <UNPREDICTABLE>
 8004a90:	41494445 	cmpmi	r9, r5, asr #8
 8004a94:	bf004554 	svclt	0x00004554

08004a98 <IMMED>:
 8004a98:	4750      	bx	sl
 8004a9a:	bf00      	nop
 8004a9c:	0800293b 	stmdaeq	r0, {r0, r1, r3, r4, r5, r8, fp, sp}
 8004aa0:	00000080 	andeq	r0, r0, r0, lsl #1
 8004aa4:	080030a5 	stmdaeq	r0, {r0, r2, r5, r7, ip, sp}
 8004aa8:	080029c1 	stmdaeq	r0, {r0, r6, r7, r8, fp, sp}
 8004aac:	080029c1 	stmdaeq	r0, {r0, r6, r7, r8, fp, sp}
 8004ab0:	08002b2d 	stmdaeq	r0, {r0, r2, r3, r5, r8, r9, fp, sp}
 8004ab4:	080030a5 	stmdaeq	r0, {r0, r2, r5, r7, ip, sp}
 8004ab8:	080029c1 	stmdaeq	r0, {r0, r6, r7, r8, fp, sp}
 8004abc:	080029ad 	stmdaeq	r0, {r0, r2, r3, r5, r7, r8, fp, sp}
 8004ac0:	0800277b 	stmdaeq	r0, {r0, r1, r3, r4, r5, r6, r8, r9, sl, sp}
 8004ac4:	08004a8c 	stmdaeq	r0, {r2, r3, r7, r9, fp, lr}

08004ac8 <_CONST>:
 8004ac8:	4e4f4308 	cdpmi	3, 4, cr4, cr15, cr8, {0}
 8004acc:	4e415453 	mcrmi	4, 2, r5, cr1, cr3, {2}
 8004ad0:	bf000054 	svclt	0x00000054

08004ad4 <CONST>:
 8004ad4:	4750      	bx	sl
 8004ad6:	bf00      	nop
 8004ad8:	08003e89 	stmdaeq	r0, {r0, r3, r7, r9, sl, fp, ip, sp}
 8004adc:	080048fd 	stmdaeq	r0, {r0, r2, r3, r4, r5, r6, r7, fp, lr}
 8004ae0:	080049f5 	stmdaeq	r0, {r0, r2, r4, r5, r6, r7, r8, fp, lr}
 8004ae4:	08002785 	stmdaeq	r0, {r0, r2, r7, r8, r9, sl, sp}
 8004ae8:	0800293b 	stmdaeq	r0, {r0, r1, r3, r4, r5, r8, fp, sp}
 8004aec:	08002f5c 	stmdaeq	r0, {r2, r3, r4, r6, r8, r9, sl, fp, sp}
 8004af0:	08004a51 	stmdaeq	r0, {r0, r4, r6, r9, fp, lr}
 8004af4:	080044ed 	stmdaeq	r0, {r0, r2, r3, r5, r6, r7, sl, lr}
 8004af8:	0800293b 	stmdaeq	r0, {r0, r1, r3, r4, r5, r8, fp, sp}
 8004afc:	0800277a 	stmdaeq	r0, {r1, r3, r4, r5, r6, r8, r9, sl, sp}
 8004b00:	08004a51 	stmdaeq	r0, {r0, r4, r6, r9, fp, lr}
 8004b04:	0800277b 	stmdaeq	r0, {r0, r1, r3, r4, r5, r6, r8, r9, sl, sp}

08004b08 <DODOES>:
 8004b08:	4750      	bx	sl
 8004b0a:	bf00      	nop
 8004b0c:	08002a0d 	stmdaeq	r0, {r0, r2, r3, r9, fp, sp}
 8004b10:	08002c35 	stmdaeq	r0, {r0, r2, r4, r5, sl, fp, sp}
 8004b14:	08002bf5 	stmdaeq	r0, {r0, r2, r4, r5, r6, r7, r8, r9, fp, sp}
 8004b18:	080030a5 	stmdaeq	r0, {r0, r2, r5, r7, ip, sp}
 8004b1c:	080029c1 	stmdaeq	r0, {r0, r6, r7, r8, fp, sp}
 8004b20:	08003ea9 	stmdaeq	r0, {r0, r3, r5, r7, r9, sl, fp, ip, sp}
 8004b24:	08002c35 	stmdaeq	r0, {r0, r2, r4, r5, sl, fp, sp}
 8004b28:	080029ad 	stmdaeq	r0, {r0, r2, r3, r5, r7, r8, fp, sp}
 8004b2c:	0800277b 	stmdaeq	r0, {r0, r1, r3, r4, r5, r6, r8, r9, sl, sp}
 8004b30:	08004ac8 	stmdaeq	r0, {r3, r6, r7, r9, fp, lr}

08004b34 <_DOES>:
 8004b34:	454f44c5 	strbmi	r4, [pc, #-1221]	; 8004677 <DOLOOP+0x1b>
 8004b38:	bf003e53 	svclt	0x00003e53

08004b3c <DOES>:
 8004b3c:	4750      	bx	sl
 8004b3e:	bf00      	nop
 8004b40:	0800293b 	stmdaeq	r0, {r0, r1, r3, r4, r5, r8, fp, sp}
 8004b44:	08004b08 	stmdaeq	r0, {r3, r8, r9, fp, lr}
 8004b48:	08004a51 	stmdaeq	r0, {r0, r4, r6, r9, fp, lr}
 8004b4c:	0800293b 	stmdaeq	r0, {r0, r1, r3, r4, r5, r8, fp, sp}
 8004b50:	0800277a 	stmdaeq	r0, {r1, r3, r4, r5, r6, r8, r9, sl, sp}
 8004b54:	08004a51 	stmdaeq	r0, {r0, r4, r6, r9, fp, lr}
 8004b58:	08002785 	stmdaeq	r0, {r0, r2, r7, r8, r9, sl, sp}
 8004b5c:	0800293b 	stmdaeq	r0, {r0, r1, r3, r4, r5, r8, fp, sp}
 8004b60:	08002a0c 	stmdaeq	r0, {r2, r3, r9, fp, sp}
 8004b64:	08004a51 	stmdaeq	r0, {r0, r4, r6, r9, fp, lr}
 8004b68:	0800277b 	stmdaeq	r0, {r0, r1, r3, r4, r5, r6, r8, r9, sl, sp}
 8004b6c:	08004b34 	stmdaeq	r0, {r2, r4, r5, r8, r9, fp, lr}

08004b70 <_DEFERAT>:
 8004b70:	46454406 	strbmi	r4, [r5], -r6, lsl #8
 8004b74:	00405245 	subeq	r5, r0, r5, asr #4

08004b78 <DEFERAT>:
 8004b78:	4750      	bx	sl
 8004b7a:	bf00      	nop
 8004b7c:	080044ad 	stmdaeq	r0, {r0, r2, r3, r5, r7, sl, lr}
 8004b80:	08002c35 	stmdaeq	r0, {r0, r2, r4, r5, sl, fp, sp}
 8004b84:	080029c1 	stmdaeq	r0, {r0, r6, r7, r8, fp, sp}
 8004b88:	08002c05 	stmdaeq	r0, {r0, r2, sl, fp, sp}
 8004b8c:	0800277b 	stmdaeq	r0, {r0, r1, r3, r4, r5, r6, r8, r9, sl, sp}
 8004b90:	08004b70 	stmdaeq	r0, {r4, r5, r6, r8, r9, fp, lr}

08004b94 <_DEFERSTO>:
 8004b94:	46454406 	strbmi	r4, [r5], -r6, lsl #8
 8004b98:	00215245 	eoreq	r5, r1, r5, asr #4

08004b9c <DEFERSTO>:
 8004b9c:	4750      	bx	sl
 8004b9e:	bf00      	nop
 8004ba0:	080044ad 	stmdaeq	r0, {r0, r2, r3, r5, r7, sl, lr}
 8004ba4:	08002bf5 	stmdaeq	r0, {r0, r2, r4, r5, r6, r7, r8, r9, fp, sp}
 8004ba8:	080044ad 	stmdaeq	r0, {r0, r2, r3, r5, r7, sl, lr}
 8004bac:	08002c35 	stmdaeq	r0, {r0, r2, r4, r5, sl, fp, sp}
 8004bb0:	080029ad 	stmdaeq	r0, {r0, r2, r3, r5, r7, r8, fp, sp}
 8004bb4:	0800277b 	stmdaeq	r0, {r0, r1, r3, r4, r5, r6, r8, r9, sl, sp}
 8004bb8:	08004b94 	stmdaeq	r0, {r2, r4, r7, r8, r9, fp, lr}

08004bbc <_DEFER>:
 8004bbc:	46454405 	strbmi	r4, [r5], -r5, lsl #8
 8004bc0:	bf005245 	svclt	0x00005245

08004bc4 <DEFER>:
 8004bc4:	4750      	bx	sl
 8004bc6:	bf00      	nop
 8004bc8:	08004c15 	stmdaeq	r0, {r0, r2, r4, sl, fp, lr}
 8004bcc:	0800293b 	stmdaeq	r0, {r0, r1, r3, r4, r5, r8, fp, sp}
 8004bd0:	0800277a 	stmdaeq	r0, {r1, r3, r4, r5, r6, r8, r9, sl, sp}
 8004bd4:	08004a51 	stmdaeq	r0, {r0, r4, r6, r9, fp, lr}
 8004bd8:	0800293b 	stmdaeq	r0, {r0, r1, r3, r4, r5, r8, fp, sp}
 8004bdc:	08004bfc 	stmdaeq	r0, {r2, r3, r4, r5, r6, r7, r8, r9, fp, lr}
 8004be0:	08002bf5 	stmdaeq	r0, {r0, r2, r4, r5, r6, r7, r8, r9, fp, sp}
 8004be4:	080030a5 	stmdaeq	r0, {r0, r2, r5, r7, ip, sp}
 8004be8:	080029c1 	stmdaeq	r0, {r0, r6, r7, r8, fp, sp}
 8004bec:	08003ea9 	stmdaeq	r0, {r0, r3, r5, r7, r9, sl, fp, ip, sp}
 8004bf0:	08002c35 	stmdaeq	r0, {r0, r2, r4, r5, sl, fp, sp}
 8004bf4:	080029ad 	stmdaeq	r0, {r0, r2, r3, r5, r7, r8, fp, sp}
 8004bf8:	0800277b 	stmdaeq	r0, {r0, r1, r3, r4, r5, r6, r8, r9, sl, sp}

08004bfc <DEFER_NOP>:
 8004bfc:	4750      	bx	sl
 8004bfe:	bf00      	nop
 8004c00:	08002939 	stmdaeq	r0, {r0, r3, r4, r5, r8, fp, sp}
 8004c04:	0800277b 	stmdaeq	r0, {r0, r1, r3, r4, r5, r6, r8, r9, sl, sp}
 8004c08:	08004bbc 	stmdaeq	r0, {r2, r3, r4, r5, r7, r8, r9, fp, lr}

08004c0c <_CREAT>:
 8004c0c:	45524306 	ldrbmi	r4, [r2, #-774]	; 0xfffffcfa
 8004c10:	00455441 	subeq	r5, r5, r1, asr #8

08004c14 <CREAT>:
 8004c14:	4750      	bx	sl
 8004c16:	bf00      	nop
 8004c18:	08003e89 	stmdaeq	r0, {r0, r3, r7, r9, sl, fp, ip, sp}
 8004c1c:	080048fd 	stmdaeq	r0, {r0, r2, r3, r4, r5, r6, r7, fp, lr}
 8004c20:	080049f5 	stmdaeq	r0, {r0, r2, r4, r5, r6, r7, r8, fp, lr}
 8004c24:	08002785 	stmdaeq	r0, {r0, r2, r7, r8, r9, sl, sp}
 8004c28:	0800293b 	stmdaeq	r0, {r0, r1, r3, r4, r5, r8, fp, sp}
 8004c2c:	08002f50 	stmdaeq	r0, {r4, r6, r8, r9, sl, fp, sp}
 8004c30:	08004a51 	stmdaeq	r0, {r0, r4, r6, r9, fp, lr}
 8004c34:	0800277b 	stmdaeq	r0, {r0, r1, r3, r4, r5, r6, r8, r9, sl, sp}
 8004c38:	08004c0c 	stmdaeq	r0, {r2, r3, sl, fp, lr}

08004c3c <_VARIA>:
 8004c3c:	52415608 	subpl	r5, r1, #8, 12	; 0x800000
 8004c40:	4c424149 	stfmie	f4, [r2], {73}	; 0x49
 8004c44:	bf000045 	svclt	0x00000045

08004c48 <VARIA>:
 8004c48:	4750      	bx	sl
 8004c4a:	bf00      	nop
 8004c4c:	08004c15 	stmdaeq	r0, {r0, r2, r4, sl, fp, lr}
 8004c50:	0800293b 	stmdaeq	r0, {r0, r1, r3, r4, r5, r8, fp, sp}
 8004c54:	00000000 	andeq	r0, r0, r0
 8004c58:	080044ed 	stmdaeq	r0, {r0, r2, r3, r5, r6, r7, sl, lr}
 8004c5c:	0800293b 	stmdaeq	r0, {r0, r1, r3, r4, r5, r8, fp, sp}
 8004c60:	0800277a 	stmdaeq	r0, {r1, r3, r4, r5, r6, r8, r9, sl, sp}
 8004c64:	08004a51 	stmdaeq	r0, {r0, r4, r6, r9, fp, lr}
 8004c68:	0800277b 	stmdaeq	r0, {r0, r1, r3, r4, r5, r6, r8, r9, sl, sp}

08004c6c <DMP>:
 8004c6c:	4750      	bx	sl
 8004c6e:	bf00      	nop
 8004c70:	08002af9 	stmdaeq	r0, {r0, r3, r4, r5, r6, r7, r9, fp, sp}
 8004c74:	0800293b 	stmdaeq	r0, {r0, r1, r3, r4, r5, r8, fp, sp}
 8004c78:	00000004 	andeq	r0, r0, r4
 8004c7c:	08003b09 	stmdaeq	r0, {r0, r3, r8, r9, fp, ip, sp}
 8004c80:	080039d5 	stmdaeq	r0, {r0, r2, r4, r6, r7, r8, fp, ip, sp}
 8004c84:	08002a51 	stmdaeq	r0, {r0, r4, r6, r9, fp, sp}
 8004c88:	0800298f 	stmdaeq	r0, {r0, r1, r2, r3, r7, r8, fp, sp}
 8004c8c:	08004ca8 	stmdaeq	r0, {r3, r5, r7, sl, fp, lr}

08004c90 <PDUM1>:
 8004c90:	08002ad5 	stmdaeq	r0, {r0, r2, r4, r6, r7, r9, fp, sp}
 8004c94:	080029e1 	stmdaeq	r0, {r0, r5, r6, r7, r8, fp, sp}
 8004c98:	0800293b 	stmdaeq	r0, {r0, r1, r3, r4, r5, r8, fp, sp}
 8004c9c:	00000003 	andeq	r0, r0, r3
 8004ca0:	08003b09 	stmdaeq	r0, {r0, r3, r8, r9, fp, ip, sp}
 8004ca4:	08002bf5 	stmdaeq	r0, {r0, r2, r4, r5, r6, r7, r8, r9, fp, sp}

08004ca8 <PDUM2>:
 8004ca8:	0800295d 	stmdaeq	r0, {r0, r2, r3, r4, r6, r8, fp, sp}
 8004cac:	08004c90 	stmdaeq	r0, {r4, r7, sl, fp, lr}
 8004cb0:	0800277b 	stmdaeq	r0, {r0, r1, r3, r4, r5, r6, r8, r9, sl, sp}
 8004cb4:	08004c3c 	stmdaeq	r0, {r2, r3, r4, r5, sl, fp, lr}

08004cb8 <_DUMP>:
 8004cb8:	4d554404 	cfldrdmi	mvd4, [r5, #-16]
 8004cbc:	bf000050 	svclt	0x00000050

08004cc0 <DUMP>:
 8004cc0:	4750      	bx	sl
 8004cc2:	bf00      	nop
 8004cc4:	08002fd1 	stmdaeq	r0, {r0, r4, r6, r7, r8, r9, sl, fp, sp}
 8004cc8:	080029c1 	stmdaeq	r0, {r0, r6, r7, r8, fp, sp}
 8004ccc:	08002a51 	stmdaeq	r0, {r0, r4, r6, r9, fp, sp}
 8004cd0:	08003739 	stmdaeq	r0, {r0, r3, r4, r5, r8, r9, sl, ip, sp}
 8004cd4:	0800293b 	stmdaeq	r0, {r0, r1, r3, r4, r5, r8, fp, sp}
 8004cd8:	00000010 	andeq	r0, r0, r0, lsl r0
 8004cdc:	08003339 	stmdaeq	r0, {r0, r3, r4, r5, r8, r9, ip, sp}
 8004ce0:	08002a51 	stmdaeq	r0, {r0, r4, r6, r9, fp, sp}
 8004ce4:	0800298f 	stmdaeq	r0, {r0, r1, r2, r3, r7, r8, fp, sp}
 8004ce8:	08004d14 	stmdaeq	r0, {r2, r4, r8, sl, fp, lr}

08004cec <DUMP1>:
 8004cec:	08003a5d 	stmdaeq	r0, {r0, r2, r3, r4, r6, r9, fp, ip, sp}
 8004cf0:	0800293b 	stmdaeq	r0, {r0, r1, r3, r4, r5, r8, fp, sp}
 8004cf4:	00000010 	andeq	r0, r0, r0, lsl r0
 8004cf8:	08002d0d 	stmdaeq	r0, {r0, r2, r3, r8, sl, fp, sp}
 8004cfc:	08004c6d 	stmdaeq	r0, {r0, r2, r3, r5, r6, sl, fp, lr}
 8004d00:	08002cbd 	stmdaeq	r0, {r0, r2, r3, r4, r5, r7, sl, fp, sp}
 8004d04:	08002cbd 	stmdaeq	r0, {r0, r2, r3, r4, r5, r7, sl, fp, sp}
 8004d08:	080039d5 	stmdaeq	r0, {r0, r2, r4, r6, r7, r8, fp, ip, sp}
 8004d0c:	080039d5 	stmdaeq	r0, {r0, r2, r4, r6, r7, r8, fp, ip, sp}
 8004d10:	08003a29 	stmdaeq	r0, {r0, r3, r5, r9, fp, ip, sp}

08004d14 <DUMP4>:
 8004d14:	0800295d 	stmdaeq	r0, {r0, r2, r3, r4, r6, r8, fp, sp}
 8004d18:	08004cec 	stmdaeq	r0, {r2, r3, r5, r6, r7, sl, fp, lr}

08004d1c <DUMP3>:
 8004d1c:	08002ac5 	stmdaeq	r0, {r0, r2, r6, r7, r9, fp, sp}
 8004d20:	08002a0d 	stmdaeq	r0, {r0, r2, r3, r9, fp, sp}
 8004d24:	08002fd1 	stmdaeq	r0, {r0, r4, r6, r7, r8, r9, sl, fp, sp}
 8004d28:	080029ad 	stmdaeq	r0, {r0, r2, r3, r5, r7, r8, fp, sp}
 8004d2c:	0800277b 	stmdaeq	r0, {r0, r1, r3, r4, r5, r6, r8, r9, sl, sp}

08004d30 <TDOT>:
 8004d30:	4750      	bx	sl
 8004d32:	bf00      	nop
 8004d34:	08002fd1 	stmdaeq	r0, {r0, r4, r6, r7, r8, r9, sl, fp, sp}
 8004d38:	080029c1 	stmdaeq	r0, {r0, r6, r7, r8, fp, sp}
 8004d3c:	08002a51 	stmdaeq	r0, {r0, r4, r6, r9, fp, sp}
 8004d40:	08003739 	stmdaeq	r0, {r0, r3, r4, r5, r8, r9, sl, ip, sp}
 8004d44:	0800304d 	stmdaeq	r0, {r0, r2, r3, r6, ip, sp}
 8004d48:	080029c1 	stmdaeq	r0, {r0, r6, r7, r8, fp, sp}
 8004d4c:	08002a51 	stmdaeq	r0, {r0, r4, r6, r9, fp, sp}
 8004d50:	0800344d 	stmdaeq	r0, {r0, r2, r3, r6, sl, ip, sp}
 8004d54:	0800293b 	stmdaeq	r0, {r0, r1, r3, r4, r5, r8, fp, sp}
 8004d58:	000000a0 	andeq	r0, r0, r0, lsr #1
 8004d5c:	08002b99 	stmdaeq	r0, {r0, r3, r4, r7, r8, r9, fp, sp}
 8004d60:	08002ad5 	stmdaeq	r0, {r0, r2, r4, r6, r7, r9, fp, sp}
 8004d64:	08002a51 	stmdaeq	r0, {r0, r4, r6, r9, fp, sp}
 8004d68:	0800304d 	stmdaeq	r0, {r0, r2, r3, r6, ip, sp}
 8004d6c:	080029ad 	stmdaeq	r0, {r0, r2, r3, r5, r7, r8, fp, sp}
 8004d70:	080031d9 	stmdaeq	r0, {r0, r3, r4, r6, r7, r8, ip, sp}
 8004d74:	08003681 	stmdaeq	r0, {r0, r7, r9, sl, ip, sp}
 8004d78:	08002ac5 	stmdaeq	r0, {r0, r2, r6, r7, r9, fp, sp}
 8004d7c:	0800293b 	stmdaeq	r0, {r0, r1, r3, r4, r5, r8, fp, sp}
 8004d80:	00000024 	andeq	r0, r0, r4, lsr #32
 8004d84:	08003635 	stmdaeq	r0, {r0, r2, r4, r5, r9, sl, ip, sp}
 8004d88:	0800304d 	stmdaeq	r0, {r0, r2, r3, r6, ip, sp}
 8004d8c:	080029c1 	stmdaeq	r0, {r0, r6, r7, r8, fp, sp}
 8004d90:	08002a0d 	stmdaeq	r0, {r0, r2, r3, r9, fp, sp}
 8004d94:	08002af9 	stmdaeq	r0, {r0, r3, r4, r5, r6, r7, r9, fp, sp}
 8004d98:	08002ba9 	stmdaeq	r0, {r0, r3, r5, r7, r8, r9, fp, sp}
 8004d9c:	080039d5 	stmdaeq	r0, {r0, r2, r4, r6, r7, r8, fp, ip, sp}
 8004da0:	08003a29 	stmdaeq	r0, {r0, r3, r5, r9, fp, ip, sp}
 8004da4:	08002a0d 	stmdaeq	r0, {r0, r2, r3, r9, fp, sp}
 8004da8:	0800304d 	stmdaeq	r0, {r0, r2, r3, r6, ip, sp}
 8004dac:	080029ad 	stmdaeq	r0, {r0, r2, r3, r5, r7, r8, fp, sp}
 8004db0:	08002a0d 	stmdaeq	r0, {r0, r2, r3, r9, fp, sp}
 8004db4:	08002fd1 	stmdaeq	r0, {r0, r4, r6, r7, r8, r9, sl, fp, sp}
 8004db8:	080029ad 	stmdaeq	r0, {r0, r2, r3, r5, r7, r8, fp, sp}
 8004dbc:	0800277b 	stmdaeq	r0, {r0, r1, r3, r4, r5, r6, r8, r9, sl, sp}
 8004dc0:	08004cb8 	stmdaeq	r0, {r3, r4, r5, r7, sl, fp, lr}

08004dc4 <_DOTS>:
 8004dc4:	00532e02 	subseq	r2, r3, r2, lsl #28

08004dc8 <DOTS>:
 8004dc8:	4750      	bx	sl
 8004dca:	bf00      	nop
 8004dcc:	08003401 	stmdaeq	r0, {r0, sl, ip, sp}
 8004dd0:	08002a51 	stmdaeq	r0, {r0, r4, r6, r9, fp, sp}
 8004dd4:	0800298f 	stmdaeq	r0, {r0, r1, r2, r3, r7, r8, fp, sp}
 8004dd8:	08004de8 	stmdaeq	r0, {r3, r5, r6, r7, r8, sl, fp, lr}

08004ddc <DOTS1>:
 8004ddc:	08002a3d 	stmdaeq	r0, {r0, r2, r3, r4, r5, r9, fp, sp}
 8004de0:	08003425 	stmdaeq	r0, {r0, r2, r5, sl, ip, sp}
 8004de4:	08004d31 	stmdaeq	r0, {r0, r4, r5, r8, sl, fp, lr}

08004de8 <DOTS2>:
 8004de8:	0800295d 	stmdaeq	r0, {r0, r2, r3, r4, r6, r8, fp, sp}
 8004dec:	08004ddc 	stmdaeq	r0, {r2, r3, r4, r6, r7, r8, sl, fp, lr}
 8004df0:	08003a5d 	stmdaeq	r0, {r0, r2, r3, r4, r6, r9, fp, ip, sp}
 8004df4:	0800277b 	stmdaeq	r0, {r0, r1, r3, r4, r5, r6, r8, r9, sl, sp}

08004df8 <RBASE>:
 8004df8:	f847 6d04 	str.w	r6, [r7, #-4]!
 8004dfc:	f44f 467f 	mov.w	r6, #65280	; 0xff00
 8004e00:	f2c2 0601 	movt	r6, #8193	; 0x2001
 8004e04:	f7fd bcb6 	b.w	8002774 <INEXT>

08004e08 <RDOT>:
 8004e08:	4750      	bx	sl
 8004e0a:	bf00      	nop
 8004e0c:	08004df9 	stmdaeq	r0, {r0, r3, r4, r5, r6, r7, r8, sl, fp, lr}
 8004e10:	08002ab1 	stmdaeq	r0, {r0, r4, r5, r7, r9, fp, sp}
 8004e14:	08002ba9 	stmdaeq	r0, {r0, r3, r5, r7, r8, r9, fp, sp}
 8004e18:	08002c79 	stmdaeq	r0, {r0, r3, r4, r5, r6, sl, fp, sp}
 8004e1c:	0800293b 	stmdaeq	r0, {r0, r1, r3, r4, r5, r8, fp, sp}
 8004e20:	00000002 	andeq	r0, r0, r2
 8004e24:	08002ba9 	stmdaeq	r0, {r0, r3, r5, r7, r8, r9, fp, sp}
 8004e28:	08002a51 	stmdaeq	r0, {r0, r4, r6, r9, fp, sp}
 8004e2c:	08004df9 	stmdaeq	r0, {r0, r3, r4, r5, r6, r7, r8, sl, fp, lr}
 8004e30:	08002c45 	stmdaeq	r0, {r0, r2, r6, sl, fp, sp}
 8004e34:	08002ad5 	stmdaeq	r0, {r0, r2, r4, r6, r7, r9, fp, sp}
 8004e38:	080029c1 	stmdaeq	r0, {r0, r6, r7, r8, fp, sp}
 8004e3c:	08004d31 	stmdaeq	r0, {r0, r4, r5, r8, sl, fp, lr}
 8004e40:	08002a0d 	stmdaeq	r0, {r0, r2, r3, r9, fp, sp}
 8004e44:	08002c05 	stmdaeq	r0, {r0, r2, sl, fp, sp}
 8004e48:	08002ad5 	stmdaeq	r0, {r0, r2, r4, r6, r7, r9, fp, sp}
 8004e4c:	08002a51 	stmdaeq	r0, {r0, r4, r6, r9, fp, sp}
 8004e50:	08002e0d 	stmdaeq	r0, {r0, r2, r3, r9, sl, fp, sp}
 8004e54:	0800297b 	stmdaeq	r0, {r0, r1, r3, r4, r5, r6, r8, fp, sp}
 8004e58:	08004e30 	stmdaeq	r0, {r4, r5, r9, sl, fp, lr}
 8004e5c:	08002a0d 	stmdaeq	r0, {r0, r2, r3, r9, fp, sp}
 8004e60:	08002ce5 	stmdaeq	r0, {r0, r2, r5, r6, r7, sl, fp, sp}
 8004e64:	08003a5d 	stmdaeq	r0, {r0, r2, r3, r4, r6, r9, fp, ip, sp}
 8004e68:	0800277b 	stmdaeq	r0, {r0, r1, r3, r4, r5, r6, r8, r9, sl, sp}
 8004e6c:	08004dc4 	stmdaeq	r0, {r2, r6, r7, r8, sl, fp, lr}

08004e70 <_TRACE>:
 8004e70:	41525405 	cmpmi	r2, r5, lsl #8
 8004e74:	bf004543 	svclt	0x00004543

08004e78 <TRACE>:
 8004e78:	4750      	bx	sl
 8004e7a:	bf00      	nop
 8004e7c:	08003a5d 	stmdaeq	r0, {r0, r2, r3, r4, r6, r9, fp, ip, sp}
 8004e80:	0800293b 	stmdaeq	r0, {r0, r1, r3, r4, r5, r8, fp, sp}
 8004e84:	0000003e 	andeq	r0, r0, lr, lsr r0
 8004e88:	0800293b 	stmdaeq	r0, {r0, r1, r3, r4, r5, r8, fp, sp}
 8004e8c:	00000053 	andeq	r0, r0, r3, asr r0
 8004e90:	08002845 	stmdaeq	r0, {r0, r2, r6, fp, sp}
 8004e94:	08002845 	stmdaeq	r0, {r0, r2, r6, fp, sp}
 8004e98:	08004dc9 	stmdaeq	r0, {r0, r3, r6, r7, r8, sl, fp, lr}
 8004e9c:	0800293b 	stmdaeq	r0, {r0, r1, r3, r4, r5, r8, fp, sp}
 8004ea0:	0000003e 	andeq	r0, r0, lr, lsr r0
 8004ea4:	0800293b 	stmdaeq	r0, {r0, r1, r3, r4, r5, r8, fp, sp}
 8004ea8:	00000052 	andeq	r0, r0, r2, asr r0
 8004eac:	08002845 	stmdaeq	r0, {r0, r2, r6, fp, sp}
 8004eb0:	08002845 	stmdaeq	r0, {r0, r2, r6, fp, sp}
 8004eb4:	08004e09 	stmdaeq	r0, {r0, r3, r9, sl, fp, lr}
 8004eb8:	0800277b 	stmdaeq	r0, {r0, r1, r3, r4, r5, r6, r8, r9, sl, sp}
 8004ebc:	08004e70 	stmdaeq	r0, {r4, r5, r6, r9, sl, fp, lr}

08004ec0 <_TNAME>:
 8004ec0:	414e3e05 	cmpmi	lr, r5, lsl #28
 8004ec4:	bf00454d 	svclt	0x0000454d

08004ec8 <TNAME>:
 8004ec8:	4750      	bx	sl
 8004eca:	bf00      	nop
 8004ecc:	08002a51 	stmdaeq	r0, {r0, r4, r6, r9, fp, sp}
 8004ed0:	08003065 	stmdaeq	r0, {r0, r2, r5, r6, ip, sp}
 8004ed4:	080029c1 	stmdaeq	r0, {r0, r6, r7, r8, fp, sp}

08004ed8 <TNAM1>:
 8004ed8:	08002ad5 	stmdaeq	r0, {r0, r2, r4, r6, r7, r9, fp, sp}
 8004edc:	0800297b 	stmdaeq	r0, {r0, r1, r3, r4, r5, r6, r8, fp, sp}
 8004ee0:	08004f0c 	stmdaeq	r0, {r2, r3, r8, r9, sl, fp, lr}
 8004ee4:	08002ad5 	stmdaeq	r0, {r0, r2, r4, r6, r7, r9, fp, sp}
 8004ee8:	08003ea9 	stmdaeq	r0, {r0, r3, r5, r7, r9, sl, fp, ip, sp}
 8004eec:	08002a3d 	stmdaeq	r0, {r0, r2, r3, r4, r5, r9, fp, sp}
 8004ef0:	08002b41 	stmdaeq	r0, {r0, r6, r8, r9, fp, sp}
 8004ef4:	0800297b 	stmdaeq	r0, {r0, r1, r3, r4, r5, r6, r8, fp, sp}
 8004ef8:	08004f0c 	stmdaeq	r0, {r2, r3, r8, r9, sl, fp, lr}
 8004efc:	08002c45 	stmdaeq	r0, {r0, r2, r6, sl, fp, sp}
 8004f00:	080029c1 	stmdaeq	r0, {r0, r6, r7, r8, fp, sp}
 8004f04:	0800298f 	stmdaeq	r0, {r0, r1, r2, r3, r7, r8, fp, sp}
 8004f08:	08004ed8 	stmdaeq	r0, {r3, r4, r6, r7, r9, sl, fp, lr}

08004f0c <TNAM2>:
 8004f0c:	08002a0d 	stmdaeq	r0, {r0, r2, r3, r9, fp, sp}
 8004f10:	08002ac5 	stmdaeq	r0, {r0, r2, r6, r7, r9, fp, sp}
 8004f14:	0800277b 	stmdaeq	r0, {r0, r1, r3, r4, r5, r6, r8, r9, sl, sp}
 8004f18:	08004ec0 	stmdaeq	r0, {r6, r7, r9, sl, fp, lr}

08004f1c <_DOTID>:
 8004f1c:	44492e03 	strbmi	r2, [r9], #-3587	; 0xfffff1fd

08004f20 <DOTID>:
 8004f20:	4750      	bx	sl
 8004f22:	bf00      	nop
 8004f24:	08002ca9 	stmdaeq	r0, {r0, r3, r5, r7, sl, fp, sp}
 8004f28:	0800297b 	stmdaeq	r0, {r0, r1, r3, r4, r5, r6, r8, fp, sp}
 8004f2c:	08004f48 	stmdaeq	r0, {r3, r6, r8, r9, sl, fp, lr}
 8004f30:	08002f29 	stmdaeq	r0, {r0, r3, r5, r8, r9, sl, fp, sp}
 8004f34:	0800293b 	stmdaeq	r0, {r0, r1, r3, r4, r5, r8, fp, sp}
 8004f38:	0000001f 	andeq	r0, r0, pc, lsl r0
 8004f3c:	08002b19 	stmdaeq	r0, {r0, r3, r4, r8, r9, fp, sp}
 8004f40:	08003a29 	stmdaeq	r0, {r0, r3, r5, r9, fp, ip, sp}
 8004f44:	0800277b 	stmdaeq	r0, {r0, r1, r3, r4, r5, r6, r8, r9, sl, sp}

08004f48 <DOTI1>:
 8004f48:	08003ac5 	stmdaeq	r0, {r0, r2, r6, r7, r9, fp, ip, sp}
 8004f4c:	6e7b2009 	cdpvs	0, 7, cr2, cr11, cr9, {0}
 8004f50:	6d614e6f 	stclvs	14, cr4, [r1, #-444]!	; 0xfffffe44
 8004f54:	bf007d65 	svclt	0x00007d65
 8004f58:	0800277b 	stmdaeq	r0, {r0, r1, r3, r4, r5, r6, r8, r9, sl, sp}
 8004f5c:	08004f1c 	stmdaeq	r0, {r2, r3, r4, r8, r9, sl, fp, lr}

08004f60 <_VLIST>:
 8004f60:	494c5605 	stmdbmi	ip, {r0, r2, r9, sl, ip, lr}^
 8004f64:	bf005453 	svclt	0x00005453

08004f68 <VLIST>:
 8004f68:	4750      	bx	sl
 8004f6a:	bf00      	nop
 8004f6c:	08004f8d 	stmdaeq	r0, {r0, r2, r3, r7, r8, r9, sl, fp, lr}
 8004f70:	08003a5d 	stmdaeq	r0, {r0, r2, r3, r4, r6, r9, fp, ip, sp}
 8004f74:	08004fd1 	stmdaeq	r0, {r0, r4, r6, r7, r8, r9, sl, fp, lr}
 8004f78:	08003b71 	stmdaeq	r0, {r0, r4, r5, r6, r8, r9, fp, ip, sp}
 8004f7c:	0800277b 	stmdaeq	r0, {r0, r1, r3, r4, r5, r6, r8, r9, sl, sp}
 8004f80:	08004f60 	stmdaeq	r0, {r5, r6, r8, r9, sl, fp, lr}

08004f84 <_WORDS>:
 8004f84:	524f5705 	subpl	r5, pc, #1310720	; 0x140000
 8004f88:	bf005344 	svclt	0x00005344

08004f8c <WORDS>:
 8004f8c:	4750      	bx	sl
 8004f8e:	bf00      	nop
 8004f90:	08003a5d 	stmdaeq	r0, {r0, r2, r3, r4, r6, r9, fp, ip, sp}
 8004f94:	08003065 	stmdaeq	r0, {r0, r2, r5, r6, ip, sp}
 8004f98:	080029c1 	stmdaeq	r0, {r0, r6, r7, r8, fp, sp}

08004f9c <WORS1>:
 8004f9c:	08002ca9 	stmdaeq	r0, {r0, r3, r5, r7, sl, fp, sp}
 8004fa0:	0800297b 	stmdaeq	r0, {r0, r1, r3, r4, r5, r6, r8, fp, sp}
 8004fa4:	08004fc4 	stmdaeq	r0, {r2, r6, r7, r8, r9, sl, fp, lr}
 8004fa8:	08002ad5 	stmdaeq	r0, {r0, r2, r4, r6, r7, r9, fp, sp}
 8004fac:	080039d5 	stmdaeq	r0, {r0, r2, r4, r6, r7, r8, fp, ip, sp}
 8004fb0:	08004f21 	stmdaeq	r0, {r0, r5, r8, r9, sl, fp, lr}
 8004fb4:	08002c45 	stmdaeq	r0, {r0, r2, r6, sl, fp, sp}
 8004fb8:	080029c1 	stmdaeq	r0, {r0, r6, r7, r8, fp, sp}
 8004fbc:	0800298f 	stmdaeq	r0, {r0, r1, r2, r3, r7, r8, fp, sp}
 8004fc0:	08004f9c 	stmdaeq	r0, {r2, r3, r4, r7, r8, r9, sl, fp, lr}

08004fc4 <WORS2>:
 8004fc4:	0800277b 	stmdaeq	r0, {r0, r1, r3, r4, r5, r6, r8, r9, sl, sp}
 8004fc8:	08004f84 	stmdaeq	r0, {r2, r7, r8, r9, sl, fp, lr}

08004fcc <_WC>:
 8004fcc:	00435702 	subeq	r5, r3, r2, lsl #14

08004fd0 <WC>:
 8004fd0:	4750      	bx	sl
 8004fd2:	bf00      	nop
 8004fd4:	0800293b 	stmdaeq	r0, {r0, r1, r3, r4, r5, r8, fp, sp}
 8004fd8:	00000000 	andeq	r0, r0, r0
 8004fdc:	080030a5 	stmdaeq	r0, {r0, r2, r5, r7, ip, sp}
 8004fe0:	080029c1 	stmdaeq	r0, {r0, r6, r7, r8, fp, sp}
 8004fe4:	08002ca9 	stmdaeq	r0, {r0, r3, r5, r7, sl, fp, sp}
 8004fe8:	0800297b 	stmdaeq	r0, {r0, r1, r3, r4, r5, r6, r8, fp, sp}
 8004fec:	08005008 	stmdaeq	r0, {r3, ip, lr}
 8004ff0:	08002ae5 	stmdaeq	r0, {r0, r2, r5, r6, r7, r9, fp, sp}
 8004ff4:	08002bf5 	stmdaeq	r0, {r0, r2, r4, r5, r6, r7, r8, r9, fp, sp}
 8004ff8:	08002ae5 	stmdaeq	r0, {r0, r2, r5, r6, r7, r9, fp, sp}
 8004ffc:	08002c45 	stmdaeq	r0, {r0, r2, r6, sl, fp, sp}
 8005000:	0800298f 	stmdaeq	r0, {r0, r1, r2, r3, r7, r8, fp, sp}
 8005004:	08004fe0 	stmdaeq	r0, {r5, r6, r7, r8, r9, sl, fp, lr}
 8005008:	0800277b 	stmdaeq	r0, {r0, r1, r3, r4, r5, r6, r8, r9, sl, sp}
 800500c:	08004fcc 	stmdaeq	r0, {r2, r3, r6, r7, r8, r9, sl, fp, lr}

08005010 <_MARK>:
 8005010:	52414d04 	subpl	r4, r1, #4, 26	; 0x100
 8005014:	bf00004b 	svclt	0x0000004b

08005018 <MARK>:
 8005018:	4750      	bx	sl
 800501a:	bf00      	nop
 800501c:	08004c15 	stmdaeq	r0, {r0, r2, r4, sl, fp, lr}
 8005020:	08004b09 	stmdaeq	r0, {r0, r3, r8, r9, fp, lr}
 8005024:	0800277b 	stmdaeq	r0, {r0, r1, r3, r4, r5, r6, r8, r9, sl, sp}
 8005028:	4750      	bx	sl
 800502a:	bf00      	nop
 800502c:	08002a0d 	stmdaeq	r0, {r0, r2, r3, r9, fp, sp}
 8005030:	0800293b 	stmdaeq	r0, {r0, r1, r3, r4, r5, r8, fp, sp}
 8005034:	00000008 	andeq	r0, r0, r8
 8005038:	08002ba9 	stmdaeq	r0, {r0, r3, r5, r7, r8, r9, fp, sp}
 800503c:	08004ec9 	stmdaeq	r0, {r0, r3, r6, r7, r9, sl, fp, lr}
 8005040:	08002c45 	stmdaeq	r0, {r0, r2, r6, sl, fp, sp}
 8005044:	080029c1 	stmdaeq	r0, {r0, r6, r7, r8, fp, sp}
 8005048:	080030a5 	stmdaeq	r0, {r0, r2, r5, r7, ip, sp}
 800504c:	080029ad 	stmdaeq	r0, {r0, r2, r3, r5, r7, r8, fp, sp}
 8005050:	080049f5 	stmdaeq	r0, {r0, r2, r4, r5, r6, r7, r8, fp, lr}
 8005054:	0800277b 	stmdaeq	r0, {r0, r1, r3, r4, r5, r6, r8, r9, sl, sp}

08005058 <VERSN>:
 8005058:	4750      	bx	sl
 800505a:	bf00      	nop
 800505c:	0800293b 	stmdaeq	r0, {r0, r1, r3, r4, r5, r8, fp, sp}
 8005060:	00000100 	andeq	r0, r0, r0, lsl #2
 8005064:	0800277b 	stmdaeq	r0, {r0, r1, r3, r4, r5, r6, r8, r9, sl, sp}
 8005068:	08005010 	stmdaeq	r0, {r4, ip, lr}

0800506c <_HI>:
 800506c:	00494802 	subeq	r4, r9, r2, lsl #16

08005070 <HI>:
 8005070:	4750      	bx	sl
 8005072:	bf00      	nop
 8005074:	08003a5d 	stmdaeq	r0, {r0, r2, r3, r4, r6, r9, fp, ip, sp}
 8005078:	08003ac5 	stmdaeq	r0, {r0, r2, r6, r7, r9, fp, ip, sp}
 800507c:	79656211 	stmdbvc	r5!, {r0, r4, r9, sp, lr}^
 8005080:	20646e6f 	rsbcs	r6, r4, pc, ror #28
 8005084:	6970754a 	ldmdbvs	r0!, {r1, r3, r6, r8, sl, ip, sp, lr}^
 8005088:	2c726574 	cfldr64cs	mvdx6, [r2], #-464	; 0xfffffe30
 800508c:	bf007620 	svclt	0x00007620
 8005090:	08002fd1 	stmdaeq	r0, {r0, r4, r6, r7, r8, r9, sl, fp, sp}
 8005094:	080029c1 	stmdaeq	r0, {r0, r6, r7, r8, fp, sp}
 8005098:	08003739 	stmdaeq	r0, {r0, r3, r4, r5, r8, r9, sl, ip, sp}
 800509c:	08005059 	stmdaeq	r0, {r0, r3, r4, r6, ip, lr}
 80050a0:	08003615 	stmdaeq	r0, {r0, r2, r4, r9, sl, ip, sp}
 80050a4:	0800293b 	stmdaeq	r0, {r0, r1, r3, r4, r5, r8, fp, sp}
 80050a8:	00000000 	andeq	r0, r0, r0
 80050ac:	08003661 	stmdaeq	r0, {r0, r5, r6, r9, sl, ip, sp}
 80050b0:	08003661 	stmdaeq	r0, {r0, r5, r6, r9, sl, ip, sp}
 80050b4:	0800293b 	stmdaeq	r0, {r0, r1, r3, r4, r5, r8, fp, sp}
 80050b8:	0000002e 	andeq	r0, r0, lr, lsr #32
 80050bc:	08003635 	stmdaeq	r0, {r0, r2, r4, r5, r9, sl, ip, sp}
 80050c0:	08003681 	stmdaeq	r0, {r0, r7, r9, sl, ip, sp}
 80050c4:	080036dd 	stmdaeq	r0, {r0, r2, r3, r4, r6, r7, r9, sl, ip, sp}
 80050c8:	08003a29 	stmdaeq	r0, {r0, r3, r5, r9, fp, ip, sp}
 80050cc:	08002fd1 	stmdaeq	r0, {r0, r4, r6, r7, r8, r9, sl, fp, sp}
 80050d0:	080029ad 	stmdaeq	r0, {r0, r2, r3, r5, r7, r8, fp, sp}
 80050d4:	08003a5d 	stmdaeq	r0, {r0, r2, r3, r4, r6, r9, fp, ip, sp}
 80050d8:	0800277b 	stmdaeq	r0, {r0, r1, r3, r4, r5, r6, r8, r9, sl, sp}

080050dc <HI_BOTH>:
 80050dc:	4750      	bx	sl
 80050de:	bf00      	nop
 80050e0:	080009f5 	stmdaeq	r0, {r0, r2, r4, r5, r6, r7, r8, fp}
 80050e4:	08000a25 	stmdaeq	r0, {r0, r2, r5, r9, fp}
 80050e8:	08005071 	stmdaeq	r0, {r0, r4, r5, r6, ip, lr}
 80050ec:	08000a0d 	stmdaeq	r0, {r0, r2, r3, r9, fp}
 80050f0:	08000a25 	stmdaeq	r0, {r0, r2, r5, r9, fp}
 80050f4:	08005071 	stmdaeq	r0, {r0, r4, r5, r6, ip, lr}
 80050f8:	0800277b 	stmdaeq	r0, {r0, r1, r3, r4, r5, r6, r8, r9, sl, sp}

080050fc <PS2_QUERY>:
 80050fc:	4750      	bx	sl
 80050fe:	bf00      	nop
 8005100:	0800293b 	stmdaeq	r0, {r0, r1, r3, r4, r5, r8, fp, sp}
 8005104:	00000190 	muleq	r0, r0, r1
 8005108:	080028dd 	stmdaeq	r0, {r0, r2, r3, r4, r6, r7, fp, sp}
 800510c:	0800182d 	stmdaeq	r0, {r0, r2, r3, r5, fp, ip}
 8005110:	0800297b 	stmdaeq	r0, {r0, r1, r3, r4, r5, r6, r8, fp, sp}
 8005114:	0800512c 	stmdaeq	r0, {r2, r3, r5, r8, ip, lr}
 8005118:	0800293b 	stmdaeq	r0, {r0, r1, r3, r4, r5, r8, fp, sp}
 800511c:	000000aa 	andeq	r0, r0, sl, lsr #1
 8005120:	08002b41 	stmdaeq	r0, {r0, r6, r8, r9, fp, sp}
 8005124:	0800297b 	stmdaeq	r0, {r0, r1, r3, r4, r5, r6, r8, fp, sp}
 8005128:	08005170 	stmdaeq	r0, {r4, r5, r6, r8, ip, lr}
 800512c:	08001a15 	stmdaeq	r0, {r0, r2, r4, r9, fp, ip}
 8005130:	0800293b 	stmdaeq	r0, {r0, r1, r3, r4, r5, r8, fp, sp}
 8005134:	000000aa 	andeq	r0, r0, sl, lsr #1
 8005138:	08002b41 	stmdaeq	r0, {r0, r6, r8, r9, fp, sp}
 800513c:	0800297b 	stmdaeq	r0, {r0, r1, r3, r4, r5, r6, r8, fp, sp}
 8005140:	08005170 	stmdaeq	r0, {r4, r5, r6, r8, ip, lr}
 8005144:	08003a5d 	stmdaeq	r0, {r0, r2, r3, r4, r6, r9, fp, ip, sp}
 8005148:	08003ac5 	stmdaeq	r0, {r0, r2, r6, r7, r9, fp, ip, sp}
 800514c:	206f6e19 	rsbcs	r6, pc, r9, lsl lr	; <UNPREDICTABLE>
 8005150:	20325350 	eorscs	r5, r2, r0, asr r3
 8005154:	6279656b 	rsbsvs	r6, r9, #448790528	; 0x1ac00000
 8005158:	6472616f 	ldrbtvs	r6, [r2], #-367	; 0xfffffe91
 800515c:	74656420 	strbtvc	r6, [r5], #-1056	; 0xfffffbe0
 8005160:	65746365 	ldrbvs	r6, [r4, #-869]!	; 0xfffffc9b
 8005164:	bf002e64 	svclt	0x00002e64
 8005168:	08000a0d 	stmdaeq	r0, {r0, r2, r3, r9, fp}
 800516c:	08000a25 	stmdaeq	r0, {r0, r2, r5, r9, fp}
 8005170:	0800277b 	stmdaeq	r0, {r0, r1, r3, r4, r5, r6, r8, r9, sl, sp}

08005174 <IF_SENSE>:
 8005174:	4750      	bx	sl
 8005176:	bf00      	nop
 8005178:	080009f5 	stmdaeq	r0, {r0, r2, r4, r5, r6, r7, r8, fp}
 800517c:	0800293b 	stmdaeq	r0, {r0, r1, r3, r4, r5, r8, fp, sp}
 8005180:	40020010 	andmi	r0, r2, r0, lsl r0
 8005184:	080029c1 	stmdaeq	r0, {r0, r6, r7, r8, fp, sp}
 8005188:	0800293b 	stmdaeq	r0, {r0, r1, r3, r4, r5, r8, fp, sp}
 800518c:	00000100 	andeq	r0, r0, r0, lsl #2
 8005190:	08002b19 	stmdaeq	r0, {r0, r3, r4, r8, r9, fp, sp}
 8005194:	0800297b 	stmdaeq	r0, {r0, r1, r3, r4, r5, r6, r8, fp, sp}
 8005198:	080051a0 	stmdaeq	r0, {r5, r7, r8, ip, lr}
 800519c:	08002bf5 	stmdaeq	r0, {r0, r2, r4, r5, r6, r7, r8, r9, fp, sp}
 80051a0:	08000a25 	stmdaeq	r0, {r0, r2, r5, r9, fp}
 80051a4:	0800277b 	stmdaeq	r0, {r0, r1, r3, r4, r5, r6, r8, r9, sl, sp}

080051a8 <READY>:
 80051a8:	4750      	bx	sl
 80051aa:	bf00      	nop
 80051ac:	08003ac5 	stmdaeq	r0, {r0, r2, r6, r7, r9, fp, ip, sp}
 80051b0:	41455205 	cmpmi	r5, r5, lsl #4
 80051b4:	bf005944 	svclt	0x00005944
 80051b8:	08003a5d 	stmdaeq	r0, {r0, r2, r3, r4, r6, r9, fp, ip, sp}
 80051bc:	0800277b 	stmdaeq	r0, {r0, r1, r3, r4, r5, r6, r8, r9, sl, sp}
 80051c0:	0800506c 	stmdaeq	r0, {r2, r3, r5, r6, ip, lr}

080051c4 <LINK>:
 80051c4:	4c4f4304 	mcrrmi	3, 0, r4, pc, cr4
 80051c8:	bf000044 	svclt	0x00000044

080051cc <COLD>:
 80051cc:	b500      	push	{lr}
 80051ce:	f7fb f9e5 	bl	800059c <forth_init>
 80051d2:	f85d eb04 	ldr.w	lr, [sp], #4
 80051d6:	f8df c058 	ldr.w	ip, [pc, #88]	; 8005230 <COLD2+0x4>
 80051da:	f7fd bacb 	b.w	8002774 <INEXT>
 80051de:	bf00      	nop

080051e0 <COLD1>:
 80051e0:	0800293b 	stmdaeq	r0, {r0, r1, r3, r4, r5, r8, fp, sp}
 80051e4:	00000000 	andeq	r0, r0, r0
 80051e8:	08002911 	stmdaeq	r0, {r0, r4, r8, fp, sp}
 80051ec:	0800293b 	stmdaeq	r0, {r0, r1, r3, r4, r5, r8, fp, sp}
 80051f0:	08000828 	stmdaeq	r0, {r3, r5, fp}
 80051f4:	0800293b 	stmdaeq	r0, {r0, r1, r3, r4, r5, r8, fp, sp}
 80051f8:	20000000 	andcs	r0, r0, r0
 80051fc:	0800293b 	stmdaeq	r0, {r0, r1, r3, r4, r5, r8, fp, sp}
 8005200:	000000b0 	strheq	r0, [r0], -r0	; <UNPREDICTABLE>
 8005204:	080034ed 	stmdaeq	r0, {r0, r2, r3, r5, r6, r7, sl, ip, sp}
 8005208:	0800440d 	stmdaeq	r0, {r0, r2, r3, sl, lr}
 800520c:	08001cc1 	stmdaeq	r0, {r0, r6, r7, sl, fp, ip}
 8005210:	080050fd 	stmdaeq	r0, {r0, r2, r3, r4, r5, r6, r7, ip, lr}
 8005214:	08002fb9 	stmdaeq	r0, {r0, r3, r4, r5, r7, r8, r9, sl, fp, sp}
 8005218:	0800349d 	stmdaeq	r0, {r0, r2, r3, r4, r7, sl, ip, sp}
 800521c:	080049f5 	stmdaeq	r0, {r0, r2, r4, r5, r6, r7, r8, fp, lr}
 8005220:	08005175 	stmdaeq	r0, {r0, r2, r4, r5, r6, r8, ip, lr}
 8005224:	0800298f 	stmdaeq	r0, {r0, r1, r2, r3, r7, r8, fp, sp}
 8005228:	0800442c 	stmdaeq	r0, {r2, r3, r5, sl, lr}

0800522c <COLD2>:
 800522c:	ffffffff 			; <UNDEFINED> instruction: 0xffffffff
 8005230:	080051e0 	stmdaeq	r0, {r5, r6, r7, r8, ip, lr}

Disassembly of section .rodata:

08005234 <__data_start>:
	...
 800523c:	20202020 	eorcs	r2, r0, r0, lsr #32
 8005240:	00200020 	eoreq	r0, r0, r0, lsr #32
 8005244:	00505050 	subseq	r5, r0, r0, asr r0
 8005248:	00000000 	andeq	r0, r0, r0
 800524c:	50f85050 	rscspl	r5, r8, r0, asr r0
 8005250:	005050f8 	ldrsheq	r5, [r0], #-8
 8005254:	70a07820 	adcvc	r7, r0, r0, lsr #16
 8005258:	0020f028 	eoreq	pc, r0, r8, lsr #32
 800525c:	2010c8c0 	andscs	ip, r0, r0, asr #17
 8005260:	00189840 	andseq	r9, r8, r0, asr #16
 8005264:	40a09060 	adcmi	r9, r0, r0, rrx
 8005268:	006890a8 	rsbeq	r9, r8, r8, lsr #1
 800526c:	00402060 	subeq	r2, r0, r0, rrx
 8005270:	00000000 	andeq	r0, r0, r0
 8005274:	40402010 	submi	r2, r0, r0, lsl r0
 8005278:	00102040 	andseq	r2, r0, r0, asr #32
 800527c:	10102040 	andsne	r2, r0, r0, asr #32
 8005280:	00402010 	subeq	r2, r0, r0, lsl r0
 8005284:	70a82000 	adcvc	r2, r8, r0
 8005288:	000020a8 	andeq	r2, r0, r8, lsr #1
 800528c:	f8202000 			; <UNDEFINED> instruction: 0xf8202000
 8005290:	00002020 	andeq	r2, r0, r0, lsr #32
 8005294:	00000000 	andeq	r0, r0, r0
 8005298:	00402060 	subeq	r2, r0, r0, rrx
 800529c:	f0000000 			; <UNDEFINED> instruction: 0xf0000000
	...
 80052a8:	00606000 	rsbeq	r6, r0, r0
 80052ac:	20100800 	andscs	r0, r0, r0, lsl #16
 80052b0:	00008040 	andeq	r8, r0, r0, asr #32
 80052b4:	a8988870 	ldmge	r8, {r4, r5, r6, fp, pc}
 80052b8:	007088c8 	rsbseq	r8, r0, r8, asr #17
 80052bc:	20206020 	eorcs	r6, r0, r0, lsr #32
 80052c0:	00f82020 	rscseq	r2, r8, r0, lsr #32
 80052c4:	20108870 	andscs	r8, r0, r0, ror r8
 80052c8:	00f88040 	rscseq	r8, r8, r0, asr #32
 80052cc:	f00808f0 			; <UNDEFINED> instruction: 0xf00808f0
 80052d0:	00f00808 	rscseq	r0, r0, r8, lsl #16
 80052d4:	90503010 	subsls	r3, r0, r0, lsl r0
 80052d8:	001010f8 	ldrsheq	r1, [r0], -r8
 80052dc:	f08080f8 			; <UNDEFINED> instruction: 0xf08080f8
 80052e0:	00f00808 	rscseq	r0, r0, r8, lsl #16
 80052e4:	f0804030 			; <UNDEFINED> instruction: 0xf0804030
 80052e8:	00708888 	rsbseq	r8, r0, r8, lsl #17
 80052ec:	201008f8 			; <UNDEFINED> instruction: 0x201008f8
 80052f0:	00404040 	subeq	r4, r0, r0, asr #32
 80052f4:	70888870 	addvc	r8, r8, r0, ror r8
 80052f8:	00708888 	rsbseq	r8, r0, r8, lsl #17
 80052fc:	70888870 	addvc	r8, r8, r0, ror r8
 8005300:	00700808 	rsbseq	r0, r0, r8, lsl #16
 8005304:	00606000 	rsbeq	r6, r0, r0
 8005308:	00006060 	andeq	r6, r0, r0, rrx
 800530c:	00606000 	rsbeq	r6, r0, r0
 8005310:	00402060 	subeq	r2, r0, r0, rrx
 8005314:	80402010 	subhi	r2, r0, r0, lsl r0
 8005318:	00102040 	andseq	r2, r0, r0, asr #32
 800531c:	00f80000 	rscseq	r0, r8, r0
 8005320:	000000f8 	strdeq	r0, [r0], -r8
 8005324:	08102040 	ldmdaeq	r0, {r6, sp}
 8005328:	00402010 	subeq	r2, r0, r0, lsl r0
 800532c:	10088870 	andne	r8, r8, r0, ror r8
 8005330:	00200020 	eoreq	r0, r0, r0, lsr #32
 8005334:	68088870 	stmdavs	r8, {r4, r5, r6, fp, pc}
 8005338:	0070a8a8 	rsbseq	sl, r0, r8, lsr #17
 800533c:	f8888870 			; <UNDEFINED> instruction: 0xf8888870
 8005340:	00888888 	addeq	r8, r8, r8, lsl #17
 8005344:	f08888f0 			; <UNDEFINED> instruction: 0xf08888f0
 8005348:	00f08888 	rscseq	r8, r0, r8, lsl #17
 800534c:	80808078 	addhi	r8, r0, r8, ror r0
 8005350:	00788080 	rsbseq	r8, r8, r0, lsl #1
 8005354:	888888f0 	stmhi	r8, {r4, r5, r6, r7, fp, pc}
 8005358:	00f08888 	rscseq	r8, r0, r8, lsl #17
 800535c:	f88080f8 			; <UNDEFINED> instruction: 0xf88080f8
 8005360:	00f88080 	rscseq	r8, r8, r0, lsl #1
 8005364:	f88080f8 			; <UNDEFINED> instruction: 0xf88080f8
 8005368:	00808080 	addeq	r8, r0, r0, lsl #1
 800536c:	b0808078 	addlt	r8, r0, r8, ror r0
 8005370:	00708888 	rsbseq	r8, r0, r8, lsl #17
 8005374:	f8888888 			; <UNDEFINED> instruction: 0xf8888888
 8005378:	00888888 	addeq	r8, r8, r8, lsl #17
 800537c:	20202070 	eorcs	r2, r0, r0, ror r0
 8005380:	00702020 	rsbseq	r2, r0, r0, lsr #32
 8005384:	08080878 	stmdaeq	r8, {r3, r4, r5, r6, fp}
 8005388:	00609008 	rsbeq	r9, r0, r8
 800538c:	c0a09088 	adcgt	r9, r0, r8, lsl #1
 8005390:	008890a0 	addeq	r9, r8, r0, lsr #1
 8005394:	80808080 	addhi	r8, r0, r0, lsl #1
 8005398:	00f88080 	rscseq	r8, r8, r0, lsl #1
 800539c:	88a8d888 	stmiahi	r8!, {r3, r7, fp, ip, lr, pc}
 80053a0:	00888888 	addeq	r8, r8, r8, lsl #17
 80053a4:	a8c88888 	stmiage	r8, {r3, r7, fp, pc}^
 80053a8:	00888898 	umulleq	r8, r8, r8, r8	; <UNPREDICTABLE>
 80053ac:	88888870 	stmhi	r8, {r4, r5, r6, fp, pc}
 80053b0:	00708888 	rsbseq	r8, r0, r8, lsl #17
 80053b4:	f08888f0 			; <UNDEFINED> instruction: 0xf08888f0
 80053b8:	00808080 	addeq	r8, r0, r0, lsl #1
 80053bc:	88888870 	stmhi	r8, {r4, r5, r6, fp, pc}
 80053c0:	007898a8 	rsbseq	r9, r8, r8, lsr #17
 80053c4:	f08888f0 			; <UNDEFINED> instruction: 0xf08888f0
 80053c8:	008890a0 	addeq	r9, r8, r0, lsr #1
 80053cc:	70808078 	addvc	r8, r0, r8, ror r0
 80053d0:	00f00808 	rscseq	r0, r0, r8, lsl #16
 80053d4:	202020f8 	strdcs	r2, [r0], -r8	; <UNPREDICTABLE>
 80053d8:	00202020 	eoreq	r2, r0, r0, lsr #32
 80053dc:	88888888 	stmhi	r8, {r3, r7, fp, pc}
 80053e0:	00708888 	rsbseq	r8, r0, r8, lsl #17
 80053e4:	88888888 	stmhi	r8, {r3, r7, fp, pc}
 80053e8:	00205088 	eoreq	r5, r0, r8, lsl #1
 80053ec:	a8888888 	stmge	r8, {r3, r7, fp, pc}
 80053f0:	0088d8a8 	addeq	sp, r8, r8, lsr #17
 80053f4:	20508888 	subscs	r8, r0, r8, lsl #17
 80053f8:	00888850 	addeq	r8, r8, r0, asr r8
 80053fc:	50888888 	addpl	r8, r8, r8, lsl #17
 8005400:	00202020 	eoreq	r2, r0, r0, lsr #32
 8005404:	402010f8 	strdmi	r1, [r0], -r8	; <UNPREDICTABLE>
 8005408:	00f88080 	rscseq	r8, r8, r0, lsl #1
 800540c:	40404060 	submi	r4, r0, r0, rrx
 8005410:	00604040 	rsbeq	r4, r0, r0, asr #32
 8005414:	20408000 	subcs	r8, r0, r0
 8005418:	00000810 	andeq	r0, r0, r0, lsl r8
 800541c:	08080818 	stmdaeq	r8, {r3, r4, fp}
 8005420:	00180808 	andseq	r0, r8, r8, lsl #16
 8005424:	00885020 	addeq	r5, r8, r0, lsr #32
	...
 8005430:	00f80000 	rscseq	r0, r8, r0
 8005434:	00102040 	andseq	r2, r0, r0, asr #32
 8005438:	00000000 	andeq	r0, r0, r0
 800543c:	08700000 	ldmdaeq	r0!, {}^	; <UNPREDICTABLE>
 8005440:	00788878 	rsbseq	r8, r8, r8, ror r8
 8005444:	b0808080 	addlt	r8, r0, r0, lsl #1
 8005448:	00f088c8 	rscseq	r8, r0, r8, asr #17
 800544c:	80700000 	rsbshi	r0, r0, r0
 8005450:	00708880 	rsbseq	r8, r0, r0, lsl #17
 8005454:	68080808 	stmdavs	r8, {r3, fp}
 8005458:	00788898 			; <UNDEFINED> instruction: 0x00788898
 800545c:	88700000 	ldmdahi	r0!, {}^	; <UNPREDICTABLE>
 8005460:	007080f8 	ldrshteq	r8, [r0], #-8
 8005464:	e0404830 	sub	r4, r0, r0, lsr r8
 8005468:	00404040 	subeq	r4, r0, r0, asr #32
 800546c:	88780000 	ldmdahi	r8!, {}^	; <UNPREDICTABLE>
 8005470:	70087888 	andvc	r7, r8, r8, lsl #17
 8005474:	c8b08080 	ldmgt	r0!, {r7, pc}
 8005478:	00888888 	addeq	r8, r8, r8, lsl #17
 800547c:	20002000 	andcs	r2, r0, r0
 8005480:	00202020 	eoreq	r2, r0, r0, lsr #32
 8005484:	10300010 	eorsne	r0, r0, r0, lsl r0
 8005488:	00609010 	rsbeq	r9, r0, r0, lsl r0
 800548c:	a0908080 	addsge	r8, r0, r0, lsl #1
 8005490:	0090a0c0 	addseq	sl, r0, r0, asr #1
 8005494:	20202060 	eorcs	r2, r0, r0, rrx
 8005498:	00702020 	rsbseq	r2, r0, r0, lsr #32
 800549c:	a8d00000 	ldmge	r0, {}^	; <UNPREDICTABLE>
 80054a0:	008888a8 	addeq	r8, r8, r8, lsr #17
 80054a4:	c8b00000 	ldmgt	r0!, {}	; <UNPREDICTABLE>
 80054a8:	00888888 	addeq	r8, r8, r8, lsl #17
 80054ac:	88700000 	ldmdahi	r0!, {}^	; <UNPREDICTABLE>
 80054b0:	00708888 	rsbseq	r8, r0, r8, lsl #17
 80054b4:	88f00000 	ldmhi	r0!, {}^	; <UNPREDICTABLE>
 80054b8:	8080f088 	addhi	pc, r0, r8, lsl #1
 80054bc:	90680000 	rsbls	r0, r8, r0
 80054c0:	1850b090 	ldmdane	r0, {r4, r7, ip, sp, pc}^
 80054c4:	c8b00000 	ldmgt	r0!, {}	; <UNPREDICTABLE>
 80054c8:	00808080 	addeq	r8, r0, r0, lsl #1
 80054cc:	80700000 	rsbshi	r0, r0, r0
 80054d0:	00f00870 	rscseq	r0, r0, r0, ror r8
 80054d4:	40e04040 	rscmi	r4, r0, r0, asr #32
 80054d8:	00304840 	eorseq	r4, r0, r0, asr #16
 80054dc:	88880000 	stmhi	r8, {}	; <UNPREDICTABLE>
 80054e0:	00689888 	rsbeq	r9, r8, r8, lsl #17
 80054e4:	88880000 	stmhi	r8, {}	; <UNPREDICTABLE>
 80054e8:	00205088 	eoreq	r5, r0, r8, lsl #1
 80054ec:	88880000 	stmhi	r8, {}	; <UNPREDICTABLE>
 80054f0:	0050a8a8 	subseq	sl, r0, r8, lsr #17
 80054f4:	50880000 	addpl	r0, r8, r0
 80054f8:	00885020 	addeq	r5, r8, r0, lsr #32
 80054fc:	88880000 	stmhi	r8, {}	; <UNPREDICTABLE>
 8005500:	70087888 	andvc	r7, r8, r8, lsl #17
 8005504:	10f80000 	rscsne	r0, r8, r0
 8005508:	00f84020 	rscseq	r4, r8, r0, lsr #32
 800550c:	80404020 	subhi	r4, r0, r0, lsr #32
 8005510:	00204040 	eoreq	r4, r0, r0, asr #32
 8005514:	20202020 	eorcs	r2, r0, r0, lsr #32
 8005518:	00202020 	eoreq	r2, r0, r0, lsr #32
 800551c:	10202040 	eorne	r2, r0, r0, asr #32
 8005520:	00402020 	subeq	r2, r0, r0, lsr #32
 8005524:	a8400000 	stmdage	r0, {}^	; <UNPREDICTABLE>
 8005528:	00000010 	andeq	r0, r0, r0, lsl r0
 800552c:	fcfcfcfc 	ldc2l	12, cr15, [ip], #1008	; 0x3f0
 8005530:	fcfcfcfc 	ldc2l	12, cr15, [ip], #1008	; 0x3f0
 8005534:	f8102040 			; <UNDEFINED> instruction: 0xf8102040
 8005538:	00402010 	subeq	r2, r0, r0, lsl r0
 800553c:	f8402010 			; <UNDEFINED> instruction: 0xf8402010
 8005540:	00102040 	andseq	r2, r0, r0, asr #32
 8005544:	20a87020 	adccs	r7, r8, r0, lsr #32
 8005548:	00002020 	andeq	r2, r0, r0, lsr #32
 800554c:	20202000 	eorcs	r2, r0, r0
 8005550:	002070a8 	eoreq	r7, r0, r8, lsr #1
 8005554:	f8f87000 			; <UNDEFINED> instruction: 0xf8f87000
 8005558:	000070f8 	strdeq	r7, [r0], -r8

Disassembly of section .ARM.attributes:

00000000 <.ARM.attributes>:
   0:	00002241 	andeq	r2, r0, r1, asr #4
   4:	61656100 	cmnvs	r5, r0, lsl #2
   8:	01006962 	tsteq	r0, r2, ror #18
   c:	00000018 	andeq	r0, r0, r8, lsl r0
  10:	726f4305 	rsbvc	r4, pc, #335544320	; 0x14000000
  14:	2d786574 	cfldr64cs	mvdx6, [r8, #-464]!	; 0xfffffe30
  18:	0600344d 	streq	r3, [r0], -sp, asr #8
  1c:	094d070d 	stmdbeq	sp, {r0, r2, r3, r8, r9, sl}^
  20:	Address 0x0000000000000020 is out of bounds.


Disassembly of section .debug_line:

00000000 <.debug_line>:
   0:	00000b1b 	andeq	r0, r0, fp, lsl fp
   4:	007c0003 	rsbseq	r0, ip, r3
   8:	01020000 	mrseq	r0, (UNDEF: 2)
   c:	000d0efb 	strdeq	r0, [sp], -fp
  10:	01010101 	tsteq	r1, r1, lsl #2
  14:	01000000 	mrseq	r0, (UNDEF: 0)
  18:	00010000 	andeq	r0, r1, r0
  1c:	74696e69 	strbtvc	r6, [r9], #-3689	; 0xfffff197
  20:	0000732e 	andeq	r7, r0, lr, lsr #6
  24:	65730000 	ldrbvs	r0, [r3, #-0]!
  28:	65742d72 	ldrbvs	r2, [r4, #-3442]!	; 0xfffff28e
  2c:	732e6d72 			; <UNDEFINED> instruction: 0x732e6d72
  30:	00000000 	andeq	r0, r0, r0
  34:	756f7674 	strbvc	r7, [pc, #-1652]!	; fffff9c8 <EVEN_FIELD+0xfffff9c9>
  38:	00732e74 	rsbseq	r2, r3, r4, ror lr
  3c:	70000000 	andvc	r0, r0, r0
  40:	6b5f3273 	blvs	17cca14 <FLASH_SIZE+0x174ca14>
  44:	732e6462 			; <UNDEFINED> instruction: 0x732e6462
  48:	00000000 	andeq	r0, r0, r0
  4c:	2d697073 	stclcs	0, cr7, [r9, #-460]!	; 0xfffffe34
  50:	73616c66 	cmnvc	r1, #26112	; 0x6600
  54:	00732e68 	rsbseq	r2, r3, r8, ror #28
  58:	66000000 	strvs	r0, [r0], -r0
  5c:	732e7570 			; <UNDEFINED> instruction: 0x732e7570
  60:	00000000 	andeq	r0, r0, r0
  64:	74727473 	ldrbtvc	r7, [r2], #-1139	; 0xfffffb8d
  68:	732e666f 			; <UNDEFINED> instruction: 0x732e666f
  6c:	00000000 	andeq	r0, r0, r0
  70:	616f7466 	cmnvs	pc, r6, ror #8
  74:	0000732e 	andeq	r7, r0, lr, lsr #6
  78:	6f660000 	svcvs	0x00660000
  7c:	2e687472 	mcrcs	4, 3, r7, cr8, cr2, {3}
  80:	00000073 	andeq	r0, r0, r3, ror r0
  84:	05000000 	streq	r0, [r0, #-0]
  88:	00020002 	andeq	r0, r2, r2
  8c:	019c0308 	orrseq	r0, ip, r8, lsl #6
  90:	032f5901 			; <UNDEFINED> instruction: 0x032f5901
  94:	01510226 	cmpeq	r1, r6, lsr #4
  98:	032f214b 			; <UNDEFINED> instruction: 0x032f214b
  9c:	01230217 			; <UNDEFINED> instruction: 0x01230217
  a0:	0811032f 	ldmdaeq	r1, {r0, r1, r2, r3, r5, r8, r9}
  a4:	2f214b90 	svccs	0x00214b90
  a8:	66081003 	strvs	r1, [r8], -r3
  ac:	032f214b 			; <UNDEFINED> instruction: 0x032f214b
  b0:	012f0218 			; <UNDEFINED> instruction: 0x012f0218
  b4:	032f214b 			; <UNDEFINED> instruction: 0x032f214b
  b8:	0143021e 	cmpeq	r3, lr, lsl r2
  bc:	032f214b 			; <UNDEFINED> instruction: 0x032f214b
  c0:	012b0217 			; <UNDEFINED> instruction: 0x012b0217
  c4:	212f214b 			; <UNDEFINED> instruction: 0x212f214b
  c8:	222f2121 	eorcs	r2, pc, #1073741832	; 0x40000008
  cc:	032f5923 			; <UNDEFINED> instruction: 0x032f5923
  d0:	4b820810 	blmi	fe082118 <EVEN_FIELD+0xfe082119>
  d4:	4b212f21 	blmi	84bd60 <FLASH_SIZE+0x7cbd60>
  d8:	212f2f21 			; <UNDEFINED> instruction: 0x212f2f21
  dc:	4b2e0903 	blmi	b824f0 <FLASH_SIZE+0xb024f0>
  e0:	2f2f4b22 	svccs	0x002f4b22
  e4:	2f2f2f21 	svccs	0x002f2f21
  e8:	2f2f2f2f 	svccs	0x002f2f2f
  ec:	4b4b4b35 	blmi	12d2dc8 <FLASH_SIZE+0x1252dc8>
  f0:	032f2f2f 			; <UNDEFINED> instruction: 0x032f2f2f
  f4:	2f4b2e09 	svccs	0x004b2e09
  f8:	2f214b23 	svccs	0x00214b23
  fc:	032f2123 			; <UNDEFINED> instruction: 0x032f2123
 100:	4b4b200a 	blmi	12c8130 <FLASH_SIZE+0x1248130>
 104:	232f2122 			; <UNDEFINED> instruction: 0x232f2122
 108:	4b222f21 	blmi	88bd94 <FLASH_SIZE+0x80bd94>
 10c:	232f2122 			; <UNDEFINED> instruction: 0x232f2122
 110:	2f252f21 	svccs	0x00252f21
 114:	4b222f21 	blmi	88bda0 <FLASH_SIZE+0x80bda0>
 118:	2f592f2f 	svccs	0x00592f2f
 11c:	222f4b5a 	eorcs	r4, pc, #92160	; 0x16800
 120:	2f252f21 	svccs	0x00252f21
 124:	4b4b592f 	blmi	12d65e8 <FLASH_SIZE+0x12565e8>
 128:	28212f21 	stmdacs	r1!, {r0, r5, r8, r9, sl, fp, sp}
 12c:	2f2f214b 	svccs	0x002f214b
 130:	212f2f2f 			; <UNDEFINED> instruction: 0x212f2f2f
 134:	2f2f4b22 	svccs	0x002f4b22
 138:	284b2121 	stmdacs	fp, {r0, r5, r8, sp}^
 13c:	4b212121 	blmi	8485c8 <FLASH_SIZE+0x7c85c8>
 140:	2221212f 	eorcs	r2, r1, #-1073741813	; 0xc000000b
 144:	2f2f2f4b 	svccs	0x002f2f4b
 148:	21262121 			; <UNDEFINED> instruction: 0x21262121
 14c:	2f2f214b 	svccs	0x002f214b
 150:	212f2f2f 			; <UNDEFINED> instruction: 0x212f2f2f
 154:	25212121 	strcs	r2, [r1, #-289]!	; 0xfffffedf
 158:	2f214b21 	svccs	0x00214b21
 15c:	2f2f2f2f 	svccs	0x002f2f2f
 160:	212f2f21 			; <UNDEFINED> instruction: 0x212f2f21
 164:	30200f03 	eorcc	r0, r0, r3, lsl #30
 168:	212f2f2f 			; <UNDEFINED> instruction: 0x212f2f2f
 16c:	2f2f212f 	svccs	0x002f212f
 170:	212f2f2f 			; <UNDEFINED> instruction: 0x212f2f2f
 174:	2f21212f 	svccs	0x0021212f
 178:	212f2f22 			; <UNDEFINED> instruction: 0x212f2f22
 17c:	2121212f 			; <UNDEFINED> instruction: 0x2121212f
 180:	2f2f222f 	svccs	0x002f222f
 184:	22212f21 	eorcs	r2, r1, #33, 30	; 0x84
 188:	2f2f2f21 	svccs	0x002f2f21
 18c:	0a032f21 	beq	cbe18 <FLASH_SIZE+0x4be18>
 190:	2f212f20 	svccs	0x00212f20
 194:	2f2f2f2f 	svccs	0x002f2f2f
 198:	212f2f2f 			; <UNDEFINED> instruction: 0x212f2f2f
 19c:	200a032f 	andcs	r0, sl, pc, lsr #6
 1a0:	212f2f21 			; <UNDEFINED> instruction: 0x212f2f21
 1a4:	0321212f 			; <UNDEFINED> instruction: 0x0321212f
 1a8:	59027beb 	stmdbpl	r2, {r0, r1, r3, r5, r6, r7, r8, r9, fp, ip, sp, lr}
 1ac:	2e290301 	cdpcs	3, 2, cr0, cr9, cr1, {0}
 1b0:	032e1803 			; <UNDEFINED> instruction: 0x032e1803
 1b4:	13032e14 	movwne	r2, #15892	; 0x3e14
 1b8:	2e1b032e 	cdpcs	3, 1, cr0, cr11, cr14, {1}
 1bc:	032e2103 			; <UNDEFINED> instruction: 0x032e2103
 1c0:	3b032e25 	blcc	cba5c <FLASH_SIZE+0x4ba5c>
 1c4:	00e7032e 	rsceq	r0, r7, lr, lsr #6
 1c8:	0302042e 	movweq	r0, #9262	; 0x242e
 1cc:	4b2e7c9b 	blmi	b9f440 <FLASH_SIZE+0xb1f440>
 1d0:	212f2121 			; <UNDEFINED> instruction: 0x212f2121
 1d4:	212f2f2f 			; <UNDEFINED> instruction: 0x212f2f2f
 1d8:	222f2f21 	eorcs	r2, pc, #33, 30	; 0x84
 1dc:	2f214b28 	svccs	0x00214b28
 1e0:	222f2f2f 	eorcs	r2, pc, #47, 30	; 0xbc
 1e4:	2f4c222f 	svccs	0x004c222f
 1e8:	2f222f21 	svccs	0x00222f21
 1ec:	592f5a2f 	stmdbpl	pc!, {r0, r1, r2, r3, r5, r9, fp, ip, lr}	; <UNPREDICTABLE>
 1f0:	2f820903 	svccs	0x00820903
 1f4:	212f2121 			; <UNDEFINED> instruction: 0x212f2121
 1f8:	2f21212f 	svccs	0x0021212f
 1fc:	2f2f212f 	svccs	0x002f212f
 200:	2f214ba5 	svccs	0x00214ba5
 204:	7c2f2121 	stfvcs	f2, [pc], #-132	; 188 <NVIC_ICER2>
 208:	2f892f2f 	svccs	0x00892f2f
 20c:	2f21892f 	svccs	0x0021892f
 210:	21212122 			; <UNDEFINED> instruction: 0x21212122
 214:	21305921 	teqcs	r0, r1, lsr #18
 218:	59212121 	stmdbpl	r1!, {r0, r5, r8, sp}
 21c:	021b03a6 	andseq	r0, fp, #-1744830462	; 0x98000002
 220:	0c03013c 	stfeqs	f0, [r3], {60}	; 0x3c
 224:	10035808 	andne	r5, r3, r8, lsl #16
 228:	b503c808 	strlt	ip, [r3, #-2056]	; 0xfffff7f8
 22c:	303c087f 	eorscc	r0, ip, pc, ror r8
 230:	04303130 	ldrteq	r3, [r0], #-304	; 0xfffffed0
 234:	7fb00303 	svcvc	0x00b00303
 238:	4d214b2e 	vstmdbmi	r1!, {d4-d26}
 23c:	232f212f 			; <UNDEFINED> instruction: 0x232f212f
 240:	2f592f2f 	svccs	0x00592f2f
 244:	2f215a2f 	svccs	0x00215a2f
 248:	212f4b22 			; <UNDEFINED> instruction: 0x212f4b22
 24c:	2f4b222f 	svccs	0x004b222f
 250:	2f212f21 	svccs	0x00212f21
 254:	2f212f21 	svccs	0x00212f21
 258:	22212f21 	eorcs	r2, r1, #33, 30	; 0x84
 25c:	2f592f2f 	svccs	0x00592f2f
 260:	2f4b3659 	svccs	0x004b3659
 264:	222f2121 	eorcs	r2, pc, #1073741832	; 0x40000008
 268:	21212121 			; <UNDEFINED> instruction: 0x21212121
 26c:	21212121 			; <UNDEFINED> instruction: 0x21212121
 270:	22213121 	eorcs	r3, r1, #1073741832	; 0x40000008
 274:	212f212f 			; <UNDEFINED> instruction: 0x212f212f
 278:	2f222121 	svccs	0x00222121
 27c:	22212121 	eorcs	r2, r1, #1073741832	; 0x40000008
 280:	2121212f 			; <UNDEFINED> instruction: 0x2121212f
 284:	21212122 			; <UNDEFINED> instruction: 0x21212122
 288:	2f222121 	svccs	0x00222121
 28c:	2f212f21 	svccs	0x00212f21
 290:	23212f21 			; <UNDEFINED> instruction: 0x23212f21
 294:	212f2121 			; <UNDEFINED> instruction: 0x212f2121
 298:	2125212f 			; <UNDEFINED> instruction: 0x2125212f
 29c:	2f212f21 	svccs	0x00212f21
 2a0:	2f212221 	svccs	0x00212221
 2a4:	4f212f2f 	svcmi	0x00212f2f
 2a8:	2f212f2f 	svccs	0x00212f2f
 2ac:	2f2f2f2f 	svccs	0x002f2f2f
 2b0:	212f2f21 			; <UNDEFINED> instruction: 0x212f2f21
 2b4:	22212f21 	eorcs	r2, r1, #33, 30	; 0x84
 2b8:	2122212f 			; <UNDEFINED> instruction: 0x2122212f
 2bc:	2f222f21 	svccs	0x00222f21
 2c0:	21212f21 			; <UNDEFINED> instruction: 0x21212f21
 2c4:	0a03222f 	beq	c8b88 <FLASH_SIZE+0x48b88>
 2c8:	a32f2f90 			; <UNDEFINED> instruction: 0xa32f2f90
 2cc:	2f872f2f 	svccs	0x00872f2f
 2d0:	2f2f6b2f 	svccs	0x002f6b2f
 2d4:	872f2f87 	strhi	r2, [pc, -r7, lsl #31]!
 2d8:	2f872f2f 	svccs	0x00872f2f
 2dc:	212f872f 			; <UNDEFINED> instruction: 0x212f872f
 2e0:	21740b03 	cmncs	r4, r3, lsl #22
 2e4:	212f2f2f 			; <UNDEFINED> instruction: 0x212f2f2f
 2e8:	2f212121 	svccs	0x00212121
 2ec:	2f2f212f 	svccs	0x002f212f
 2f0:	2f2f2f30 	svccs	0x002f2f30
 2f4:	212f2f21 			; <UNDEFINED> instruction: 0x212f2f21
 2f8:	2f2f2f22 	svccs	0x002f2f22
 2fc:	212f2f21 			; <UNDEFINED> instruction: 0x212f2f21
 300:	22212f22 	eorcs	r2, r1, #34, 30	; 0x88
 304:	2f212f2f 	svccs	0x00212f2f
 308:	a62f212f 	strtge	r2, [pc], -pc, lsr #2
 30c:	79212121 	stmdbvc	r1!, {r0, r5, r8, sp}
 310:	2f2f2f2f 	svccs	0x002f2f2f
 314:	2f2f2f2f 	svccs	0x002f2f2f
 318:	21212f2f 			; <UNDEFINED> instruction: 0x21212f2f
 31c:	2f212121 	svccs	0x00212121
 320:	03962f2f 	orrseq	r2, r6, #47, 30	; 0xbc
 324:	01220211 			; <UNDEFINED> instruction: 0x01220211
 328:	2c021503 	cfstr32cs	mvfx1, [r2], {3}
 32c:	02130301 	andseq	r0, r3, #67108864	; 0x4000000
 330:	2f210126 	svccs	0x00210126
 334:	212f2f2f 			; <UNDEFINED> instruction: 0x212f2f2f
 338:	7a2f2f21 	bvc	bcbfc4 <FLASH_SIZE+0xb4bfc4>
 33c:	21212f2f 			; <UNDEFINED> instruction: 0x21212f2f
 340:	212f8a2f 			; <UNDEFINED> instruction: 0x212f8a2f
 344:	2f2f2f2f 	svccs	0x002f2f2f
 348:	2f2f2f21 	svccs	0x002f2f21
 34c:	2f2f332f 	svccs	0x002f332f
 350:	2f21322f 	svccs	0x0021322f
 354:	362f3221 	strtcc	r3, [pc], -r1, lsr #4
 358:	e4081103 	str	r1, [r8], #-259	; 0xfffffefd
 35c:	212f2f2f 			; <UNDEFINED> instruction: 0x212f2f2f
 360:	37038921 	strcc	r8, [r3, -r1, lsr #18]
 364:	03017c02 	movweq	r7, #7170	; 0x1c02
 368:	1503ba0b 	strne	fp, [r3, #-2571]	; 0xfffff5f5
 36c:	0b03e408 	bleq	f9394 <FLASH_SIZE+0x79394>
 370:	021f03f2 	andseq	r0, pc, #-939524093	; 0xc8000003
 374:	0c030144 	stfeqs	f0, [r3], {68}	; 0x44
 378:	21219008 			; <UNDEFINED> instruction: 0x21219008
 37c:	212f2f2f 			; <UNDEFINED> instruction: 0x212f2f2f
 380:	2f2f2f21 	svccs	0x002f2f21
 384:	7ce40387 	stclvc	3, cr0, [r4], #540	; 0x21c
 388:	1f037408 	svcne	0x00037408
 38c:	0181032e 	orreq	r0, r1, lr, lsr #6
 390:	0304042e 	movweq	r0, #17454	; 0x442e
 394:	c4027cfb 	strgt	r7, [r2], #-3323	; 0xfffff305
 398:	2f4b0101 	svccs	0x004b0101
 39c:	2f2f4b21 	svccs	0x002f4b21
 3a0:	2f2f212f 	svccs	0x002f212f
 3a4:	2121212f 			; <UNDEFINED> instruction: 0x2121212f
 3a8:	2f222121 	svccs	0x00222121
 3ac:	2f212f2f 	svccs	0x00212f2f
 3b0:	2f2f2f2f 	svccs	0x002f2f2f
 3b4:	2f212f22 	svccs	0x00212f22
 3b8:	2f2f2f2f 	svccs	0x002f2f2f
 3bc:	2f222f2f 	svccs	0x00222f2f
 3c0:	2f2f212f 	svccs	0x002f212f
 3c4:	2f212f22 	svccs	0x00212f22
 3c8:	2f2f212f 	svccs	0x002f212f
 3cc:	2f2f2121 	svccs	0x002f2121
 3d0:	21212f21 			; <UNDEFINED> instruction: 0x21212f21
 3d4:	212f2f21 			; <UNDEFINED> instruction: 0x212f2f21
 3d8:	2f2f2f59 	svccs	0x002f2f59
 3dc:	2221232f 	eorcs	r2, r1, #-1140850688	; 0xbc000000
 3e0:	21212f2f 			; <UNDEFINED> instruction: 0x21212f2f
 3e4:	2f2f2159 	svccs	0x002f2159
 3e8:	2f2f2f21 	svccs	0x002f2f21
 3ec:	0a032f2f 	beq	cc0b0 <FLASH_SIZE+0x4c0b0>
 3f0:	2f2f2f20 	svccs	0x002f2f20
 3f4:	2121302f 			; <UNDEFINED> instruction: 0x2121302f
 3f8:	22212121 	eorcs	r2, r1, #1073741832	; 0x40000008
 3fc:	212f2f2f 			; <UNDEFINED> instruction: 0x212f2f2f
 400:	2f2f212f 	svccs	0x002f212f
 404:	2f22212f 	svccs	0x0022212f
 408:	212f212f 			; <UNDEFINED> instruction: 0x212f212f
 40c:	212f2124 			; <UNDEFINED> instruction: 0x212f2124
 410:	2f2f2f22 	svccs	0x002f2f22
 414:	2f2f2f21 	svccs	0x002f2f21
 418:	200a032f 	andcs	r0, sl, pc, lsr #6
 41c:	21592f21 	cmpcs	r9, r1, lsr #30
 420:	59200d03 	stmdbpl	r0!, {r0, r1, r8, sl, fp}
 424:	23212121 			; <UNDEFINED> instruction: 0x23212121
 428:	302f2f21 	eorcc	r2, pc, r1, lsr #30
 42c:	222f222f 	eorcs	r2, pc, #-268435454	; 0xf0000002
 430:	2f212f30 	svccs	0x00212f30
 434:	2f2f212f 	svccs	0x002f212f
 438:	1a03212f 	bne	c88fc <FLASH_SIZE+0x488fc>
 43c:	2f214b9e 	svccs	0x00214b9e
 440:	2f21592f 	svccs	0x0021592f
 444:	2f4b5a2f 	svccs	0x004b5a2f
 448:	212f4b22 			; <UNDEFINED> instruction: 0x212f4b22
 44c:	302f2f21 	eorcc	r2, pc, r1, lsr #30
 450:	2f592f2f 	svccs	0x00592f2f
 454:	2f2f9559 	svccs	0x002f9559
 458:	2f21352f 	svccs	0x0021352f
 45c:	212f2f2f 			; <UNDEFINED> instruction: 0x212f2f2f
 460:	2f2f2121 	svccs	0x002f2121
 464:	5923212f 	stmdbpl	r3!, {r0, r1, r2, r3, r5, r8, sp}
 468:	0a032121 	beq	c88f4 <FLASH_SIZE+0x488f4>
 46c:	212f2120 			; <UNDEFINED> instruction: 0x212f2120
 470:	212f2121 			; <UNDEFINED> instruction: 0x212f2121
 474:	8a212121 	bhi	848900 <FLASH_SIZE+0x7c8900>
 478:	2f212f2f 	svccs	0x00212f2f
 47c:	2121212f 			; <UNDEFINED> instruction: 0x2121212f
 480:	21212159 			; <UNDEFINED> instruction: 0x21212159
 484:	21592159 	cmpcs	r9, r9, asr r1
 488:	30302f2f 	eorscc	r2, r0, pc, lsr #30
 48c:	2121592f 			; <UNDEFINED> instruction: 0x2121592f
 490:	212f2f33 			; <UNDEFINED> instruction: 0x212f2f33
 494:	212f212f 			; <UNDEFINED> instruction: 0x212f212f
 498:	22212122 	eorcs	r2, r1, #-2147483640	; 0x80000008
 49c:	21222121 			; <UNDEFINED> instruction: 0x21222121
 4a0:	59215921 	stmdbpl	r1!, {r0, r5, r8, fp, ip, lr}
 4a4:	212f2f23 			; <UNDEFINED> instruction: 0x212f2f23
 4a8:	21212121 			; <UNDEFINED> instruction: 0x21212121
 4ac:	21212121 			; <UNDEFINED> instruction: 0x21212121
 4b0:	0d032f2f 	stceq	15, cr2, [r3, #-188]	; 0xffffff44
 4b4:	21212320 			; <UNDEFINED> instruction: 0x21212320
 4b8:	4b5a2f22 	blmi	168c148 <FLASH_SIZE+0x160c148>
 4bc:	592f2f21 	stmdbpl	pc!, {r0, r5, r8, r9, sl, fp, sp}	; <UNPREDICTABLE>
 4c0:	5a2f2f21 	bpl	bcc14c <FLASH_SIZE+0xb4c14c>
 4c4:	2121212f 			; <UNDEFINED> instruction: 0x2121212f
 4c8:	2f2f2f2f 	svccs	0x002f2f2f
 4cc:	21312f2f 	teqcs	r1, pc, lsr #30
 4d0:	21592f2f 	cmpcs	r9, pc, lsr #30
 4d4:	215a2f2f 	cmpcs	sl, pc, lsr #30
 4d8:	2f5b2f2f 	svccs	0x005b2f2f
 4dc:	2f212121 	svccs	0x00212121
 4e0:	592f222f 	stmdbpl	pc!, {r0, r1, r2, r3, r5, r9, sp}	; <UNPREDICTABLE>
 4e4:	2f2f2f2f 	svccs	0x002f2f2f
 4e8:	212f2121 			; <UNDEFINED> instruction: 0x212f2121
 4ec:	212f2f2f 			; <UNDEFINED> instruction: 0x212f2f2f
 4f0:	2f2f2f25 	svccs	0x002f2f25
 4f4:	2f2f2f2f 	svccs	0x002f2f2f
 4f8:	21592f7b 	cmpcs	r9, fp, ror pc
 4fc:	21215959 			; <UNDEFINED> instruction: 0x21215959
 500:	2159212f 	cmpcs	r9, pc, lsr #2
 504:	2f212121 	svccs	0x00212121
 508:	2f599821 	svccs	0x00599821
 50c:	21215959 			; <UNDEFINED> instruction: 0x21215959
 510:	2f212121 	svccs	0x00212121
 514:	21215959 			; <UNDEFINED> instruction: 0x21215959
 518:	a62f2121 	strtge	r2, [pc], -r1, lsr #2
 51c:	2f212f2f 	svccs	0x00212f2f
 520:	2f2f2f2f 	svccs	0x002f2f2f
 524:	f403b42f 	vst3.8	{d11-d13}, [r3 :128]
 528:	1903d67c 	stmdbne	r3, {r2, r3, r4, r5, r6, r9, sl, ip, lr, pc}
 52c:	0188032e 	orreq	r0, r8, lr, lsr #6
 530:	2203332e 	andcs	r3, r3, #-1207959552	; 0xb8000000
 534:	0332322e 	teqeq	r2, #-536870910	; 0xe0000002
 538:	042e01b4 	strteq	r0, [lr], #-436	; 0xfffffe4c
 53c:	7bb80305 	blvc	fee01158 <EVEN_FIELD+0xfee01159>
 540:	2f214b2e 	svccs	0x00214b2e
 544:	2f21592f 	svccs	0x0021592f
 548:	2f21592f 	svccs	0x0021592f
 54c:	2f21592f 	svccs	0x0021592f
 550:	2f21592f 	svccs	0x0021592f
 554:	212f5a2f 			; <UNDEFINED> instruction: 0x212f5a2f
 558:	212f214b 			; <UNDEFINED> instruction: 0x212f214b
 55c:	21212f4b 			; <UNDEFINED> instruction: 0x21212f4b
 560:	212f2f2f 			; <UNDEFINED> instruction: 0x212f2f2f
 564:	2f2f4b8a 	svccs	0x002f4b8a
 568:	214b9859 	cmpcs	fp, r9, asr r8
 56c:	2f4b212f 	svccs	0x004b212f
 570:	4b98592f 	blmi	fe616a34 <EVEN_FIELD+0xfe616a35>
 574:	2f212f21 	svccs	0x00212f21
 578:	222f2121 	eorcs	r2, pc, #1073741832	; 0x40000008
 57c:	4b8a212f 	blmi	fe288a40 <EVEN_FIELD+0xfe288a41>
 580:	21212f21 			; <UNDEFINED> instruction: 0x21212f21
 584:	21212f21 			; <UNDEFINED> instruction: 0x21212f21
 588:	0c038a2f 			; <UNDEFINED> instruction: 0x0c038a2f
 58c:	0c033c08 	stceq	12, cr3, [r3], {8}
 590:	10033c08 	andne	r3, r3, r8, lsl #24
 594:	1103ac08 	tstne	r3, r8, lsl #24
 598:	03012202 	movweq	r2, #4610	; 0x1202
 59c:	03e4080f 	mvneq	r0, #983040	; 0xf0000
 5a0:	03ac080f 			; <UNDEFINED> instruction: 0x03ac080f
 5a4:	03c80812 	biceq	r0, r8, #1179648	; 0x120000
 5a8:	012a0216 			; <UNDEFINED> instruction: 0x012a0216
 5ac:	34022603 	strcc	r2, [r2], #-1539	; 0xfffff9fd
 5b0:	ba090301 	blt	2411bc <FLASH_SIZE+0x1c11bc>
 5b4:	03820903 	orreq	r0, r2, #49152	; 0xc000
 5b8:	09039e09 	stmdbeq	r3, {r0, r3, r9, sl, fp, ip, pc}
 5bc:	0306049e 	movweq	r0, #25758	; 0x649e
 5c0:	2f4a7dc4 	svccs	0x004a7dc4
 5c4:	2f212f21 	svccs	0x00212f21
 5c8:	2f212f2f 	svccs	0x00212f2f
 5cc:	2f6d592f 	svccs	0x006d592f
 5d0:	2f892f2f 	svccs	0x00892f2f
 5d4:	2f6e2f2f 	svccs	0x006e2f2f
 5d8:	2f2f6d2f 	svccs	0x002f6d2f
 5dc:	6d2f2f6d 	stcvs	15, cr2, [pc, #-436]!	; 430 <NVIC_IABR7+0x114>
 5e0:	2f6d2f2f 	svccs	0x006d2f2f
 5e4:	2f2f6d2f 	svccs	0x002f6d2f
 5e8:	2f660903 	svccs	0x00660903
 5ec:	2f6d2f2f 	svccs	0x006d2f2f
 5f0:	2f6d2f2f 	svccs	0x006d2f2f
 5f4:	2f6d2f2f 	svccs	0x006d2f2f
 5f8:	2f2f2f2f 	svccs	0x002f2f2f
 5fc:	2f2f2f6e 	svccs	0x002f2f6e
 600:	09032f2f 	stmdbeq	r3, {r0, r1, r2, r3, r5, r8, r9, sl, fp, sp}
 604:	2f2f2f66 	svccs	0x002f2f66
 608:	2f6e2f2f 	svccs	0x006e2f2f
 60c:	2f2f2f2f 	svccs	0x002f2f2f
 610:	2f2f2f8a 	svccs	0x002f2f8a
 614:	2f2f2f6d 	svccs	0x002f2f6d
 618:	2f2f6e2f 	svccs	0x002f6e2f
 61c:	2f2f6d2f 	svccs	0x002f6d2f
 620:	6d2f2f2f 	stcvs	15, cr2, [pc, #-188]!	; 56c <VIDEO_DELAY+0x2d>
 624:	03d60b03 	bicseq	r0, r6, #3072	; 0xc00
 628:	0d03d60a 	stceq	6, cr13, [r3, #-40]	; 0xffffffd8
 62c:	0f037408 	svceq	0x00037408
 630:	2f2f7408 	svccs	0x002f7408
 634:	4b6d2f2f 	blmi	1b4c2f8 <FLASH_SIZE+0x1acc2f8>
 638:	6d2f2f2f 	stcvs	15, cr2, [pc, #-188]!	; 584 <VIDEO_DELAY+0x45>
 63c:	2f2f2f4b 	svccs	0x002f2f4b
 640:	4b2f6e2f 	blmi	bdbf04 <FLASH_SIZE+0xb5bf04>
 644:	8a4b2f6d 	bhi	12cc400 <FLASH_SIZE+0x124c400>
 648:	c8081403 	stmdagt	r8, {r0, r1, sl, ip}
 64c:	f27da703 	vabd.s<illegal width 64>	d26, d13, d3
 650:	0a030704 	beq	c2268 <FLASH_SIZE+0x42268>
 654:	080e03d6 	stmdaeq	lr, {r1, r2, r4, r6, r7, r8, r9}
 658:	080e0320 	stmdaeq	lr, {r5, r8, r9}
 65c:	02350320 	eorseq	r0, r5, #32, 6	; 0x80000000
 660:	1203016c 	andne	r0, r3, #108, 2
 664:	1003ac08 	andne	sl, r3, r8, lsl #24
 668:	17033c08 	strne	r3, [r3, -r8, lsl #24]
 66c:	04012802 	streq	r2, [r1], #-2050	; 0xfffff7fe
 670:	7f900308 	svcvc	0x00900308
 674:	01029802 	tsteq	r2, r2, lsl #16
 678:	03820c03 	orreq	r0, r2, #768	; 0x300
 67c:	043c080f 	ldrteq	r0, [ip], #-2063	; 0xfffff7f1
 680:	f2700309 	vcgt.s<illegal width 64>	d16, d0, d9
 684:	222f312f 	eorcs	r3, pc, #-1073741813	; 0xc000000b
 688:	0b032f2f 	bleq	cc34c <FLASH_SIZE+0x4c34c>
 68c:	2f212f20 	svccs	0x00212f20
 690:	2f2f2f2f 	svccs	0x002f2f2f
 694:	2f2f2521 	svccs	0x002f2521
 698:	892f2f25 	stmdbhi	pc!, {r0, r2, r5, r8, r9, sl, fp, sp}	; <UNPREDICTABLE>
 69c:	2f212f4b 	svccs	0x00212f4b
 6a0:	2f4b8921 	svccs	0x004b8921
 6a4:	6d212f21 	stcvs	15, cr2, [r1, #-132]!	; 0xffffff7c
 6a8:	03ba0a03 			; <UNDEFINED> instruction: 0x03ba0a03
 6ac:	0320080c 			; <UNDEFINED> instruction: 0x0320080c
 6b0:	1f03d624 	svcne	0x0003d624
 6b4:	03013e02 	movweq	r3, #7682	; 0x1e02
 6b8:	2f900810 	svccs	0x00900810
 6bc:	212f214b 			; <UNDEFINED> instruction: 0x212f214b
 6c0:	2122212f 			; <UNDEFINED> instruction: 0x2122212f
 6c4:	28580d03 	ldmdacs	r8, {r0, r1, r8, sl, fp}^
 6c8:	2f7b2f2f 	svccs	0x007b2f2f
 6cc:	0a03212f 	beq	c8b90 <FLASH_SIZE+0x48b90>
 6d0:	2f222f20 	svccs	0x00222f20
 6d4:	2f2f232f 	svccs	0x002f232f
 6d8:	2f21282f 	svccs	0x0021282f
 6dc:	2f222f21 	svccs	0x00222f21
 6e0:	0e032f28 	cdpeq	15, 0, cr2, cr3, cr8, {1}
 6e4:	2f212fc8 	svccs	0x00212fc8
 6e8:	2f5f215f 	svccs	0x005f215f
 6ec:	215f2f21 	cmpcs	pc, r1, lsr #30
 6f0:	2f740903 	svccs	0x00740903
 6f4:	21212f2f 			; <UNDEFINED> instruction: 0x21212f2f
 6f8:	6d2f2f6d 	stcvs	15, cr2, [pc, #-436]!	; 54c <VIDEO_DELAY+0xd>
 6fc:	2f2f2f2f 	svccs	0x002f2f2f
 700:	6d2f2f6d 	stcvs	15, cr2, [pc, #-436]!	; 554 <VIDEO_DELAY+0x15>
 704:	2f6d2f2f 	svccs	0x006d2f2f
 708:	6e2f2f2f 	cdpvs	15, 2, cr2, cr15, cr15, {1}
 70c:	215f2f21 	cmpcs	pc, r1, lsr #30
 710:	212f5f2f 			; <UNDEFINED> instruction: 0x212f5f2f
 714:	7b212f5f 	blvc	84c498 <FLASH_SIZE+0x7cc498>
 718:	6d2f6d2f 	stcvs	13, cr6, [pc, #-188]!	; 664 <SCB_VECTKEY+0x6a>
 71c:	7b212121 	blvc	848ba8 <FLASH_SIZE+0x7c8ba8>
 720:	2f5f212f 	svccs	0x005f212f
 724:	6d2f2f6d 	stcvs	15, cr2, [pc, #-436]!	; 578 <VIDEO_DELAY+0x39>
 728:	2f6d2f2f 	svccs	0x006d2f2f
 72c:	21216d2f 			; <UNDEFINED> instruction: 0x21216d2f
 730:	7b212f2f 	blvc	84c3f4 <FLASH_SIZE+0x7cc3f4>
 734:	2f892f2f 	svccs	0x00892f2f
 738:	212f512f 			; <UNDEFINED> instruction: 0x212f512f
 73c:	512f2f5f 			; <UNDEFINED> instruction: 0x512f2f5f
 740:	216d2f2f 	cmncs	sp, pc, lsr #30
 744:	6021212f 	eorvs	r2, r1, pc, lsr #2
 748:	21212f21 			; <UNDEFINED> instruction: 0x21212f21
 74c:	2f6d2f5f 	svccs	0x006d2f5f
 750:	2f6d2f6d 	svccs	0x006d2f6d
 754:	2f6d2f6d 	svccs	0x006d2f6d
 758:	6d2f2f6d 	stcvs	15, cr2, [pc, #-436]!	; 5ac <VIDEO_DELAY+0x6d>
 75c:	6d2f6d2f 	stcvs	13, cr6, [pc, #-188]!	; 6a8 <SCB_VECTKEY+0xae>
 760:	6d2f6d2f 	stcvs	13, cr6, [pc, #-188]!	; 6ac <SCB_VECTKEY+0xb2>
 764:	6d2f2121 	stfvss	f2, [pc, #-132]!	; 6e8 <SCB_VECTKEY+0xee>
 768:	21212121 			; <UNDEFINED> instruction: 0x21212121
 76c:	2121216d 			; <UNDEFINED> instruction: 0x2121216d
 770:	2f2f6d21 	svccs	0x002f6d21
 774:	6d2f2f6d 	stcvs	15, cr2, [pc, #-436]!	; 5c8 <VIDEO_DELAY+0x89>
 778:	5f2f2f21 	svcpl	0x002f2f21
 77c:	21212f2f 			; <UNDEFINED> instruction: 0x21212f2f
 780:	2f7b2f21 	svccs	0x007b2f21
 784:	2f212f21 	svccs	0x00212f21
 788:	2f212121 	svccs	0x00212121
 78c:	21212f5f 			; <UNDEFINED> instruction: 0x21212f5f
 790:	21212121 			; <UNDEFINED> instruction: 0x21212121
 794:	5f2f212f 	svcpl	0x002f212f
 798:	212f2f21 			; <UNDEFINED> instruction: 0x212f2f21
 79c:	892f6d2f 	stmdbhi	pc!, {r0, r1, r2, r3, r5, r8, sl, fp, sp, lr}	; <UNPREDICTABLE>
 7a0:	212f6d2f 			; <UNDEFINED> instruction: 0x212f6d2f
 7a4:	6d2f6d21 	stcvs	13, cr6, [pc, #-132]!	; 728 <SCB_VECTKEY+0x12e>
 7a8:	2f212f2f 	svccs	0x00212f2f
 7ac:	6021212f 	eorvs	r2, r1, pc, lsr #2
 7b0:	2f212f21 	svccs	0x00212f21
 7b4:	21212f51 			; <UNDEFINED> instruction: 0x21212f51
 7b8:	215f212f 	cmpcs	pc, pc, lsr #2
 7bc:	2f2f2f2f 	svccs	0x002f2f2f
 7c0:	212f5f2f 			; <UNDEFINED> instruction: 0x212f5f2f
 7c4:	5f212f21 	svcpl	0x00212f21
 7c8:	2f21212f 	svccs	0x0021212f
 7cc:	212f5f21 			; <UNDEFINED> instruction: 0x212f5f21
 7d0:	5f212f21 	svcpl	0x00212f21
 7d4:	2f21212f 	svccs	0x0021212f
 7d8:	212f5f21 			; <UNDEFINED> instruction: 0x212f5f21
 7dc:	2f5f2121 	svccs	0x005f2121
 7e0:	5f212121 	svcpl	0x00212121
 7e4:	2121212f 			; <UNDEFINED> instruction: 0x2121212f
 7e8:	2f2f5f2f 	svccs	0x002f5f2f
 7ec:	5f2f212f 	svcpl	0x002f212f
 7f0:	6d212f21 	stcvs	15, cr2, [r1, #-132]!	; 0xffffff7c
 7f4:	7b212f2f 	blvc	84c4b8 <FLASH_SIZE+0x7cc4b8>
 7f8:	2f212f21 	svccs	0x00212f21
 7fc:	200c0321 	andcs	r0, ip, r1, lsr #6
 800:	282f212f 	stmdacs	pc!, {r0, r1, r2, r3, r5, r8, sp}	; <UNPREDICTABLE>
 804:	0b032f2f 	bleq	cc4c8 <FLASH_SIZE+0x4c4c8>
 808:	892f2f66 	stmdbhi	pc!, {r1, r2, r5, r6, r8, r9, sl, fp, sp}	; <UNPREDICTABLE>
 80c:	2f892f2f 	svccs	0x00892f2f
 810:	2f2f892f 	svccs	0x002f892f
 814:	362f2f89 	strtcc	r2, [pc], -r9, lsl #31
 818:	2f892f2f 	svccs	0x00892f2f
 81c:	2f2f6d2f 	svccs	0x002f6d2f
 820:	892f2f8a 	stmdbhi	pc!, {r1, r3, r7, r8, r9, sl, fp, sp}	; <UNPREDICTABLE>
 824:	2f6e2f2f 	svccs	0x006e2f2f
 828:	8209032f 	andhi	r0, r9, #-1140850688	; 0xbc000000
 82c:	2f6e2f2f 	svccs	0x006e2f2f
 830:	2f2f6e2f 	svccs	0x002f6e2f
 834:	032f2f8a 			; <UNDEFINED> instruction: 0x032f2f8a
 838:	2f2f9e0c 	svccs	0x002f9e0c
 83c:	2fba0903 	svccs	0x00ba0903
 840:	9e0f032f 	cdpls	3, 0, cr0, cr15, cr15, {1}
 844:	58081103 	stmdapl	r8, {r0, r1, r8, ip}
 848:	21222f2f 			; <UNDEFINED> instruction: 0x21222f2f
 84c:	2f2f2121 	svccs	0x002f2121
 850:	21212122 			; <UNDEFINED> instruction: 0x21212122
 854:	21212221 			; <UNDEFINED> instruction: 0x21212221
 858:	09032121 	stmdbeq	r3, {r0, r5, r8, sp}
 85c:	02210382 	eoreq	r0, r1, #134217730	; 0x8000002
 860:	2f2f013a 	svccs	0x002f013a
 864:	2121216d 			; <UNDEFINED> instruction: 0x2121216d
 868:	217b2f2f 	cmncs	fp, pc, lsr #30
 86c:	03212f21 			; <UNDEFINED> instruction: 0x03212f21
 870:	2121740b 			; <UNDEFINED> instruction: 0x2121740b
 874:	2f212f2f 	svccs	0x00212f2f
 878:	2f212f21 	svccs	0x00212f21
 87c:	2f212121 	svccs	0x00212121
 880:	2f2f212f 	svccs	0x002f212f
 884:	21212f2f 			; <UNDEFINED> instruction: 0x21212f2f
 888:	03212121 			; <UNDEFINED> instruction: 0x03212121
 88c:	2b03660b 	blcs	da0c0 <FLASH_SIZE+0x5a0c0>
 890:	2f012602 	svccs	0x00012602
 894:	2f2f2121 	svccs	0x002f2121
 898:	2f2f2122 	svccs	0x002f2122
 89c:	2f21212f 	svccs	0x0021212f
 8a0:	212f2122 			; <UNDEFINED> instruction: 0x212f2122
 8a4:	03740903 	cmneq	r4, #49152	; 0xc000
 8a8:	0b03f20d 	bleq	fd0e4 <FLASH_SIZE+0x7d0e4>
 8ac:	f20d03ba 	vcge.s8	d0, d29, d26
 8b0:	03f20e03 	mvnseq	r0, #3, 28	; 0x30
 8b4:	2f2ff210 	svccs	0x002ff210
 8b8:	14038a2f 	strne	r8, [r3], #-2607	; 0xfffff5d1
 8bc:	4b012602 	blmi	4a0cc <RAM_SIZE+0x2a0cc>
 8c0:	8a2f2f2f 	bhi	bcc584 <FLASH_SIZE+0xb4c584>
 8c4:	3c081203 	sfmcc	f1, 4, [r8], {3}
 8c8:	03ba0b03 			; <UNDEFINED> instruction: 0x03ba0b03
 8cc:	212ff20d 	msrcs	(UNDEF: 47), sp
 8d0:	212f2198 			; <UNDEFINED> instruction: 0x212f2198
 8d4:	8921212f 	stmdbhi	r1!, {r0, r1, r2, r3, r5, r8, sp}
 8d8:	2f222f2f 	svccs	0x00222f2f
 8dc:	2f212130 	svccs	0x00212130
 8e0:	2f892f22 	svccs	0x00892f22
 8e4:	2f2f2f2f 	svccs	0x002f2f2f
 8e8:	212f2121 			; <UNDEFINED> instruction: 0x212f2121
 8ec:	22212221 	eorcs	r2, r1, #268435458	; 0x10000002
 8f0:	21212221 			; <UNDEFINED> instruction: 0x21212221
 8f4:	8a2f222f 	bhi	bc91b8 <FLASH_SIZE+0xb491b8>
 8f8:	2f222121 	svccs	0x00222121
 8fc:	032f2221 			; <UNDEFINED> instruction: 0x032f2221
 900:	1f037409 	svcne	0x00037409
 904:	03013202 	movweq	r3, #4610	; 0x1202
 908:	03e40811 	mvneq	r0, #1114112	; 0x110000
 90c:	0c03d60c 	stceq	6, cr13, [r3], {12}
 910:	081203f2 	ldmdaeq	r2, {r1, r4, r5, r6, r7, r8, r9}
 914:	f20e0358 	vcge.s8	q0, q7, q4
 918:	90081203 	andls	r1, r8, r3, lsl #4
 91c:	3c080e03 	stccc	14, cr0, [r8], {3}
 920:	3c081203 	sfmcc	f1, 4, [r8], {3}
 924:	90081303 	andls	r1, r8, r3, lsl #6
 928:	03f20d03 	mvnseq	r0, #3, 26	; 0xc0
 92c:	0320080c 			; <UNDEFINED> instruction: 0x0320080c
 930:	03200811 			; <UNDEFINED> instruction: 0x03200811
 934:	012e021b 			; <UNDEFINED> instruction: 0x012e021b
 938:	30021d03 	andcc	r1, r2, r3, lsl #26
 93c:	212f2101 			; <UNDEFINED> instruction: 0x212f2101
 940:	2121212f 			; <UNDEFINED> instruction: 0x2121212f
 944:	1903362f 	stmdbne	r3, {r0, r1, r2, r3, r5, r9, sl, ip, sp}
 948:	03012502 	movweq	r2, #5378	; 0x1502
 94c:	8a0200c9 	bhi	80c78 <FLASH_SIZE+0xc78>
 950:	0b030101 	bleq	c0d5c <FLASH_SIZE+0x40d5c>
 954:	081103d6 	ldmdaeq	r1, {r1, r2, r4, r6, r7, r8, r9}
 958:	081203ac 	ldmdaeq	r2, {r2, r3, r5, r7, r8, r9}
 95c:	f20e0390 	vcge.s8	d0, d30, d0
 960:	58081503 	stmdapl	r8, {r0, r1, r8, sl, ip}
 964:	03660b03 	cmneq	r6, #3072	; 0xc00
 968:	0c03820c 	sfmeq	f0, 1, [r3], {12}
 96c:	081103ba 	ldmdaeq	r1, {r1, r3, r4, r5, r7, r8, r9}
 970:	08150358 	ldmdaeq	r5, {r3, r4, r6, r8, r9}
 974:	081003e4 	ldmdaeq	r0, {r2, r5, r6, r7, r8, r9}
 978:	0813033c 	ldmdaeq	r3, {r2, r3, r4, r5, r8, r9}
 97c:	081403e4 	ldmdaeq	r4, {r2, r5, r6, r7, r8, r9}
 980:	021803ac 	andseq	r0, r8, #172, 6	; 0xb0000002
 984:	10030128 	andne	r0, r3, r8, lsr #2
 988:	00cf0382 	sbceq	r0, pc, r2, lsl #7
 98c:	01019802 	tsteq	r1, r2, lsl #16
 990:	24021703 	strcs	r1, [r2], #-1795	; 0xfffff8fd
 994:	f20d0301 	vcgt.s8	d0, d13, d1
 998:	03f20d03 	mvnseq	r0, #3, 26	; 0xc0
 99c:	0320080d 			; <UNDEFINED> instruction: 0x0320080d
 9a0:	0320080c 			; <UNDEFINED> instruction: 0x0320080c
 9a4:	0e03d60b 	cfmadd32eq	mvax0, mvfx13, mvfx3, mvfx11
 9a8:	10032008 	andne	r2, r3, r8
 9ac:	081503f2 	ldmdaeq	r5, {r1, r4, r5, r6, r7, r8, r9}
 9b0:	02220358 	eoreq	r0, r2, #88, 6	; 0x60000001
 9b4:	3a030130 	bcc	c0e7c <FLASH_SIZE+0x40e7c>
 9b8:	03016e02 	movweq	r6, #7682	; 0x1e02
 9bc:	1503f211 	strne	pc, [r3, #-529]	; 0xfffffdef
 9c0:	03012602 	movweq	r2, #5634	; 0x1602
 9c4:	01440221 	cmpeq	r4, r1, lsr #4
 9c8:	26021903 	strcs	r1, [r2], -r3, lsl #18
 9cc:	d6100301 	ldrle	r0, [r0], -r1, lsl #6
 9d0:	32021c03 	andcc	r1, r2, #768	; 0x300
 9d4:	02200301 	eoreq	r0, r0, #67108864	; 0x4000000
 9d8:	1603013a 			; <UNDEFINED> instruction: 0x1603013a
 9dc:	1203e408 	andne	lr, r3, #8, 8	; 0x8000000
 9e0:	14035808 	strne	r5, [r3], #-2056	; 0xfffff7f8
 9e4:	16039008 	strne	r9, [r3], -r8
 9e8:	03012e02 	movweq	r2, #7682	; 0x1e02
 9ec:	1103f20c 	tstne	r3, ip, lsl #4	; <UNPREDICTABLE>
 9f0:	0c03c808 	stceq	8, cr12, [r3], {8}
 9f4:	15035808 	strne	r5, [r3, #-2056]	; 0xfffff7f8
 9f8:	03012202 	movweq	r2, #4610	; 0x1202
 9fc:	0126021b 			; <UNDEFINED> instruction: 0x0126021b
 a00:	2a021e03 	bcs	88214 <FLASH_SIZE+0x8214>
 a04:	080e0301 	stmdaeq	lr, {r0, r8, r9}
 a08:	ba0b033c 	blt	2c1700 <FLASH_SIZE+0x241700>
 a0c:	74081003 	strvc	r1, [r8], #-3
 a10:	03d60c03 	bicseq	r0, r6, #768	; 0x300
 a14:	03ac0812 			; <UNDEFINED> instruction: 0x03ac0812
 a18:	1803ba0c 	stmdane	r3, {r2, r3, r9, fp, ip, sp, pc}
 a1c:	0b03e408 	bleq	f9a44 <FLASH_SIZE+0x79a44>
 a20:	2f7c08f2 	svccs	0x007c08f2
 a24:	21212f21 			; <UNDEFINED> instruction: 0x21212f21
 a28:	2f2f2f2f 	svccs	0x002f2f2f
 a2c:	2f2fc07c 	svccs	0x002fc07c
 a30:	21212f2f 			; <UNDEFINED> instruction: 0x21212f2f
 a34:	2f2f2f2f 	svccs	0x002f2f2f
 a38:	03820903 	orreq	r0, r2, #49152	; 0xc000
 a3c:	0320080d 			; <UNDEFINED> instruction: 0x0320080d
 a40:	0a03ba0b 	beq	ef274 <FLASH_SIZE+0x6f274>
 a44:	6d2f2ff2 	stcvs	15, cr2, [pc, #-968]!	; 684 <SCB_VECTKEY+0x8a>
 a48:	038a2f2f 	orreq	r2, sl, #47, 30	; 0xbc
 a4c:	0320080b 			; <UNDEFINED> instruction: 0x0320080b
 a50:	0e03f20b 	cdpeq	2, 0, cr15, cr3, cr11, {0}
 a54:	0e039008 	cdpeq	0, 0, cr9, cr3, cr8, {0}
 a58:	0d039008 	stceq	0, cr9, [r3, #-32]	; 0xffffffe0
 a5c:	0d032008 	stceq	0, cr2, [r3, #-32]	; 0xffffffe0
 a60:	080e03d6 	stmdaeq	lr, {r1, r2, r4, r6, r7, r8, r9}
 a64:	f20c0320 	vcgt.s8	d0, d12, d16
 a68:	03d60b03 	bicseq	r0, r6, #3072	; 0xc00
 a6c:	0c03f20b 	sfmeq	f7, 1, [r3], {11}
 a70:	081003f2 	ldmdaeq	r0, {r1, r4, r5, r6, r7, r8, r9}
 a74:	08130320 	ldmdaeq	r3, {r5, r8, r9}
 a78:	021e0390 	andseq	r0, lr, #144, 6	; 0x40000002
 a7c:	1c030134 	stfnes	f0, [r3], {52}	; 0x34
 a80:	03012c02 	movweq	r2, #7170	; 0x1c02
 a84:	03ac0813 			; <UNDEFINED> instruction: 0x03ac0813
 a88:	0e03f20d 	cdpeq	2, 0, cr15, cr3, cr13, {0}
 a8c:	0c032008 	stceq	0, cr2, [r3], {8}
 a90:	f20e03ba 	vcge.s8	d0, d30, d26
 a94:	3c080d03 	stccc	13, cr0, [r8], {3}
 a98:	c8081403 	stmdagt	r8, {r0, r1, sl, ip}
 a9c:	90081403 	andls	r1, r8, r3, lsl #8
 aa0:	90081103 	andls	r1, r8, r3, lsl #2
 aa4:	c8081103 	stmdagt	r8, {r0, r1, r8, ip}
 aa8:	20080c03 	andcs	r0, r8, r3, lsl #24
 aac:	3c080d03 	stccc	13, cr0, [r8], {3}
 ab0:	ac080d03 	stcge	13, cr0, [r8], {3}
 ab4:	03ba0a03 			; <UNDEFINED> instruction: 0x03ba0a03
 ab8:	0390080f 	orrseq	r0, r0, #983040	; 0xf0000
 abc:	03200813 			; <UNDEFINED> instruction: 0x03200813
 ac0:	012a021a 			; <UNDEFINED> instruction: 0x012a021a
 ac4:	38022303 	stmdacc	r2, {r0, r1, r8, r9, sp}
 ac8:	02290301 	eoreq	r0, r9, #67108864	; 0x4000000
 acc:	0e03014c 	adfeqsm	f0, f3, #4.0
 ad0:	4b2f7408 	blmi	bddaf8 <FLASH_SIZE+0xb5daf8>
 ad4:	021d0335 	andseq	r0, sp, #-738197504	; 0xd4000000
 ad8:	15030138 	strne	r0, [r3, #-312]	; 0xfffffec8
 adc:	03012802 	movweq	r2, #6146	; 0x1802
 ae0:	012c0219 			; <UNDEFINED> instruction: 0x012c0219
 ae4:	0200d603 	andeq	sp, r0, #3145728	; 0x300000
 ae8:	0d030124 	stfeqs	f0, [r3, #-144]	; 0xffffff70
 aec:	15032008 	strne	r2, [r3, #-8]
 af0:	03012202 	movweq	r2, #4610	; 0x1202
 af4:	01240213 			; <UNDEFINED> instruction: 0x01240213
 af8:	08170386 	ldmdaeq	r7, {r1, r2, r7, r8, r9}
 afc:	ba0a0374 	blt	2818d4 <FLASH_SIZE+0x2018d4>
 b00:	36021b03 	strcc	r1, [r2], -r3, lsl #22
 b04:	f20e0301 	vcgt.s8	d0, d14, d1
 b08:	3c021b03 			; <UNDEFINED> instruction: 0x3c021b03
 b0c:	08100301 	ldmdaeq	r0, {r0, r8, r9}
 b10:	08100390 	ldmdaeq	r0, {r4, r7, r8, r9}
 b14:	022f5920 	eoreq	r5, pc, #32, 18	; 0x80000
 b18:	0202112b 	andeq	r1, r2, #-1073741814	; 0xc000000a
 b1c:	Address 0x0000000000000b1c is out of bounds.


Disassembly of section .debug_info:

00000000 <.debug_info>:
   0:	00000022 	andeq	r0, r0, r2, lsr #32
   4:	00000002 	andeq	r0, r0, r2
   8:	01040000 	mrseq	r0, (UNDEF: 4)
   c:	00000000 	andeq	r0, r0, r0
  10:	08000200 	stmdaeq	r0, {r9}
  14:	08005234 	stmdaeq	r0, {r2, r4, r5, r9, ip, lr}
  18:	00000000 	andeq	r0, r0, r0
  1c:	00000007 	andeq	r0, r0, r7
  20:	0000002b 	andeq	r0, r0, fp, lsr #32
  24:	Address 0x0000000000000024 is out of bounds.


Disassembly of section .debug_abbrev:

00000000 <.debug_abbrev>:
   0:	10001101 	andne	r1, r0, r1, lsl #2
   4:	12011106 	andne	r1, r1, #-2147483647	; 0x80000001
   8:	1b0e0301 	blne	380c14 <FLASH_SIZE+0x300c14>
   c:	130e250e 	movwne	r2, #58638	; 0xe50e
  10:	00000005 	andeq	r0, r0, r5

Disassembly of section .debug_aranges:

00000000 <.debug_aranges>:
   0:	0000001c 	andeq	r0, r0, ip, lsl r0
   4:	00000002 	andeq	r0, r0, r2
   8:	00040000 	andeq	r0, r4, r0
   c:	00000000 	andeq	r0, r0, r0
  10:	08000200 	stmdaeq	r0, {r9}
  14:	00005034 	andeq	r5, r0, r4, lsr r0
	...

Disassembly of section .debug_str:

00000000 <.debug_str>:
   0:	74696e69 	strbtvc	r6, [r9], #-3689	; 0xfffff197
   4:	2f00732e 	svccs	0x0000732e
   8:	656d6f68 	strbvs	r6, [sp, #-3944]!	; 0xfffff098
   c:	63616a2f 	cmnvs	r1, #192512	; 0x2f000
  10:	73657571 	cmnvc	r5, #473956352	; 0x1c400000
  14:	7469672f 	strbtvc	r6, [r9], #-1839	; 0xfffff8d1
  18:	2f627568 	svccs	0x00627568
  1c:	6f796562 	svcvs	0x00796562
  20:	6a2d646e 	bvs	b591e0 <FLASH_SIZE+0xad91e0>
  24:	74697075 	strbtvc	r7, [r9], #-117	; 0xffffff8b
  28:	47007265 	strmi	r7, [r0, -r5, ror #4]
  2c:	4120554e 			; <UNDEFINED> instruction: 0x4120554e
  30:	2e322053 	mrccs	0, 1, r2, cr2, cr3, {2}
  34:	Address 0x0000000000000034 is out of bounds.

