
build/stm32eforth.elf:     file format elf32-littlearm


Disassembly of section .isr_vector:

08000000 <isr_vectors>:
 8000000:	20020000 	andcs	r0, r2, r0
 8000004:	080006fd 	stmdaeq	r0, {r0, r2, r3, r4, r5, r6, r7, r9, sl}
 8000008:	08000465 	stmdaeq	r0, {r0, r2, r5, r6, sl}
 800000c:	0800049d 	stmdaeq	r0, {r0, r2, r3, r4, r7, sl}
 8000010:	080004d9 	stmdaeq	r0, {r0, r3, r4, r6, r7, sl}
 8000014:	08000545 	stmdaeq	r0, {r0, r2, r6, r8, sl}
 8000018:	080005d9 	stmdaeq	r0, {r0, r3, r4, r6, r7, r8, sl}
	...
 800002c:	08000201 	stmdaeq	r0, {r0, r9}
 8000030:	08000201 	stmdaeq	r0, {r0, r9}
 8000034:	00000000 	andeq	r0, r0, r0
 8000038:	08000201 	stmdaeq	r0, {r0, r9}
 800003c:	0800066d 	stmdaeq	r0, {r0, r2, r3, r5, r6, r9, sl}

08000040 <irq0>:
 8000040:	08000201 	stmdaeq	r0, {r0, r9}
 8000044:	08000201 	stmdaeq	r0, {r0, r9}
 8000048:	08000201 	stmdaeq	r0, {r0, r9}
 800004c:	08000201 	stmdaeq	r0, {r0, r9}
 8000050:	08000201 	stmdaeq	r0, {r0, r9}
 8000054:	08000201 	stmdaeq	r0, {r0, r9}
 8000058:	08000201 	stmdaeq	r0, {r0, r9}
 800005c:	08000201 	stmdaeq	r0, {r0, r9}
 8000060:	08000201 	stmdaeq	r0, {r0, r9}
 8000064:	08000201 	stmdaeq	r0, {r0, r9}
 8000068:	08000201 	stmdaeq	r0, {r0, r9}
 800006c:	08000201 	stmdaeq	r0, {r0, r9}
 8000070:	08000201 	stmdaeq	r0, {r0, r9}
 8000074:	08000201 	stmdaeq	r0, {r0, r9}
 8000078:	08000201 	stmdaeq	r0, {r0, r9}
 800007c:	08000201 	stmdaeq	r0, {r0, r9}
 8000080:	08000201 	stmdaeq	r0, {r0, r9}
 8000084:	08000201 	stmdaeq	r0, {r0, r9}
 8000088:	08000201 	stmdaeq	r0, {r0, r9}
	...
 800009c:	08000201 	stmdaeq	r0, {r0, r9}
 80000a0:	08000201 	stmdaeq	r0, {r0, r9}
 80000a4:	08000201 	stmdaeq	r0, {r0, r9}
 80000a8:	08000201 	stmdaeq	r0, {r0, r9}
 80000ac:	08000201 	stmdaeq	r0, {r0, r9}
 80000b0:	08000201 	stmdaeq	r0, {r0, r9}
 80000b4:	08001029 	stmdaeq	r0, {r0, r3, r5, ip}
 80000b8:	0800063d 	stmdaeq	r0, {r0, r2, r3, r4, r5, r9, sl}
 80000bc:	08000201 	stmdaeq	r0, {r0, r9}
 80000c0:	08000201 	stmdaeq	r0, {r0, r9}
 80000c4:	08000201 	stmdaeq	r0, {r0, r9}
 80000c8:	08000201 	stmdaeq	r0, {r0, r9}
 80000cc:	08000201 	stmdaeq	r0, {r0, r9}
 80000d0:	08000201 	stmdaeq	r0, {r0, r9}
 80000d4:	08000d0d 	stmdaeq	r0, {r0, r2, r3, r8, sl, fp}
 80000d8:	08000201 	stmdaeq	r0, {r0, r9}
 80000dc:	00000000 	andeq	r0, r0, r0
 80000e0:	08001905 	stmdaeq	r0, {r0, r2, r8, fp, ip}
 80000e4:	08000201 	stmdaeq	r0, {r0, r9}
 80000e8:	08000201 	stmdaeq	r0, {r0, r9}
	...
 80000fc:	08000201 	stmdaeq	r0, {r0, r9}
 8000100:	00000000 	andeq	r0, r0, r0
 8000104:	08000201 	stmdaeq	r0, {r0, r9}
 8000108:	08000201 	stmdaeq	r0, {r0, r9}
 800010c:	08000201 	stmdaeq	r0, {r0, r9}
	...
 8000120:	08000201 	stmdaeq	r0, {r0, r9}
 8000124:	08000201 	stmdaeq	r0, {r0, r9}
 8000128:	08000201 	stmdaeq	r0, {r0, r9}
 800012c:	08000201 	stmdaeq	r0, {r0, r9}
 8000130:	08000201 	stmdaeq	r0, {r0, r9}
	...
 800014c:	08000201 	stmdaeq	r0, {r0, r9}
 8000150:	08000201 	stmdaeq	r0, {r0, r9}
 8000154:	08000201 	stmdaeq	r0, {r0, r9}
 8000158:	08000201 	stmdaeq	r0, {r0, r9}
 800015c:	08000201 	stmdaeq	r0, {r0, r9}
 8000160:	08000201 	stmdaeq	r0, {r0, r9}
 8000164:	08000201 	stmdaeq	r0, {r0, r9}
	...
 8000184:	080002b1 	stmdaeq	r0, {r0, r4, r5, r7, r9}
	...
 8000190:	08000201 	stmdaeq	r0, {r0, r9}
 8000194:	08000201 	stmdaeq	r0, {r0, r9}

08000198 <isr_end>:
	...

Disassembly of section .text:

08000200 <default_handler>:
 8000200:	b500      	push	{lr}
 8000202:	f000 fa99 	bl	8000738 <forth_init>
 8000206:	f85d eb04 	ldr.w	lr, [sp], #4
 800020a:	f8df c918 	ldr.w	ip, [pc, #2328]	; 8000b24 <ULAST>
 800020e:	f002 bf51 	b.w	80030b4 <INEXT>

08000212 <dh>:
 8000212:	08005141 	stmdaeq	r0, {r0, r6, r8, ip, lr}
 8000216:	08004641 	stmdaeq	r0, {r0, r6, r9, sl, lr}
 800021a:	65786517 	ldrbvs	r6, [r8, #-1303]!	; 0xfffffae9
 800021e:	6f697470 	svcvs	0x00697470
 8000222:	6572206e 	ldrbvs	r2, [r2, #-110]!	; 0xffffff92
 8000226:	746f6f62 	strbtvc	r6, [pc], #-3938	; 800022e <dh+0x1c>
 800022a:	4643202c 	strbmi	r2, [r3], -ip, lsr #32
 800022e:	203a5253 	eorscs	r5, sl, r3, asr r2
 8000232:	bf00      	nop
 8000234:	08003101 	stmdaeq	r0, {r0, r8, ip, sp}
 8000238:	08003469 	stmdaeq	r0, {r0, r3, r5, r6, sl, ip, sp}
 800023c:	080033e5 	stmdaeq	r0, {r0, r2, r5, r6, r7, r8, r9, ip, sp}
 8000240:	080032df 	stmdaeq	r0, {r0, r1, r2, r3, r4, r6, r7, r9, ip, sp}
 8000244:	00000010 	andeq	r0, r0, r0, lsl r0
 8000248:	080039d5 	stmdaeq	r0, {r0, r2, r4, r6, r7, r8, fp, ip, sp}
 800024c:	08003361 	stmdaeq	r0, {r0, r5, r6, r8, r9, ip, sp}
 8000250:	0800473d 	stmdaeq	r0, {r0, r2, r3, r4, r5, r8, r9, sl, lr}
 8000254:	08004641 	stmdaeq	r0, {r0, r6, r9, sl, lr}
 8000258:	42202c08 	eormi	r2, r0, #8, 24	; 0x800
 800025c:	3a524146 	bcc	949077c <OPTKEY1+0x12fdd41>
 8000260:	bf000020 	svclt	0x00000020
 8000264:	080033a1 	stmdaeq	r0, {r0, r5, r7, r8, r9, ip, sp}
 8000268:	080032df 	stmdaeq	r0, {r0, r1, r2, r3, r4, r6, r7, r9, ip, sp}
 800026c:	00008000 	andeq	r8, r0, r0
 8000270:	080034e9 	stmdaeq	r0, {r0, r3, r5, r6, r7, sl, ip, sp}
 8000274:	0800331f 	stmdaeq	r0, {r0, r1, r2, r3, r4, r8, r9, ip, sp}
 8000278:	08000294 	stmdaeq	r0, {r2, r4, r7, r9}
 800027c:	08003121 	stmdaeq	r0, {r0, r5, r8, ip, sp}
 8000280:	080032df 	stmdaeq	r0, {r0, r1, r2, r3, r4, r6, r7, r9, ip, sp}
 8000284:	0000002c 	andeq	r0, r0, ip, lsr #32
 8000288:	0800317d 	stmdaeq	r0, {r0, r2, r3, r4, r5, r6, r8, ip, sp}
 800028c:	0800455d 	stmdaeq	r0, {r0, r2, r3, r4, r6, r8, sl, lr}
 8000290:	0800473d 	stmdaeq	r0, {r0, r2, r3, r4, r5, r8, r9, sl, lr}
 8000294:	08004641 	stmdaeq	r0, {r0, r6, r9, sl, lr}
 8000298:	46202c09 	strtmi	r2, [r0], -r9, lsl #24
 800029c:	52435350 	subpl	r5, r3, #80, 6	; 0x40000001
 80002a0:	bf00203a 	svclt	0x0000203a
 80002a4:	0800240d 	stmdaeq	r0, {r0, r2, r3, sl, sp}
 80002a8:	0800473d 	stmdaeq	r0, {r0, r2, r3, r4, r5, r8, r9, sl, lr}
 80002ac:	080006d5 	stmdaeq	r0, {r0, r2, r4, r6, r7, r9, sl}

080002b0 <fpu_exception>:
 80002b0:	b500      	push	{lr}
 80002b2:	f04f 0051 	mov.w	r0, #81	; 0x51
 80002b6:	f000 fb45 	bl	8000944 <nvic_disable_irq>
 80002ba:	f847 6d04 	str.w	r6, [r7, #-4]!
 80002be:	4666      	mov	r6, ip
 80002c0:	f8df c864 	ldr.w	ip, [pc, #2148]	; 8000b28 <ULAST+0x4>
 80002c4:	f002 bef6 	b.w	80030b4 <INEXT>

080002c8 <fpu_except>:
 80002c8:	080045e5 	stmdaeq	r0, {r0, r2, r5, r6, r7, r8, sl, lr}
 80002cc:	080039d5 	stmdaeq	r0, {r0, r2, r4, r6, r7, r8, fp, ip, sp}
 80002d0:	08003375 	stmdaeq	r0, {r0, r2, r4, r5, r6, r8, r9, ip, sp}
 80002d4:	080033e5 	stmdaeq	r0, {r0, r2, r5, r6, r7, r8, r9, ip, sp}
 80002d8:	080032df 	stmdaeq	r0, {r0, r1, r2, r3, r4, r6, r7, r9, ip, sp}
 80002dc:	00000010 	andeq	r0, r0, r0, lsl r0
 80002e0:	080039d5 	stmdaeq	r0, {r0, r2, r4, r6, r7, r8, fp, ip, sp}
 80002e4:	08003361 	stmdaeq	r0, {r0, r5, r6, r8, r9, ip, sp}
 80002e8:	080032df 	stmdaeq	r0, {r0, r1, r2, r3, r4, r6, r7, r9, ip, sp}
 80002ec:	00000004 	andeq	r0, r0, r4
 80002f0:	08003579 	stmdaeq	r0, {r0, r3, r4, r5, r6, r8, sl, ip, sp}
 80002f4:	08004641 	stmdaeq	r0, {r0, r6, r9, sl, lr}
 80002f8:	3d504904 	vldrcc.16	s9, [r0, #-8]	; <UNPREDICTABLE>
 80002fc:	bf000020 	svclt	0x00000020
 8000300:	08004771 	stmdaeq	r0, {r0, r4, r5, r6, r8, r9, sl, lr}
 8000304:	08004641 	stmdaeq	r0, {r0, r6, r9, sl, lr}
 8000308:	662c2017 			; <UNDEFINED> instruction: 0x662c2017
 800030c:	65207570 	strvs	r7, [r0, #-1392]!	; 0xfffffa90
 8000310:	70656378 	rsbvc	r6, r5, r8, ror r3
 8000314:	6e6f6974 			; <UNDEFINED> instruction: 0x6e6f6974
 8000318:	53504620 	cmppl	r0, #32, 12	; 0x2000000
 800031c:	203a5243 	eorscs	r5, sl, r3, asr #4
 8000320:	0800240d 	stmdaeq	r0, {r0, r2, r3, sl, sp}
 8000324:	08003469 	stmdaeq	r0, {r0, r3, r5, r6, sl, ip, sp}
 8000328:	08004771 	stmdaeq	r0, {r0, r4, r5, r6, r8, r9, sl, lr}
 800032c:	08003679 	stmdaeq	r0, {r0, r3, r4, r5, r6, r9, sl, ip, sp}
 8000330:	0800331f 	stmdaeq	r0, {r0, r1, r2, r3, r4, r8, r9, ip, sp}
 8000334:	080003c8 	stmdaeq	r0, {r3, r6, r7, r8, r9}
 8000338:	080032df 	stmdaeq	r0, {r0, r1, r2, r3, r4, r6, r7, r9, ip, sp}
 800033c:	0000002c 	andeq	r0, r0, ip, lsr #32
 8000340:	0800317d 	stmdaeq	r0, {r0, r2, r3, r4, r5, r6, r8, ip, sp}
 8000344:	080032df 	stmdaeq	r0, {r0, r1, r2, r3, r4, r6, r7, r9, ip, sp}
 8000348:	00000020 	andeq	r0, r0, r0, lsr #32
 800034c:	0800317d 	stmdaeq	r0, {r0, r2, r3, r4, r5, r6, r8, ip, sp}
 8000350:	08003469 	stmdaeq	r0, {r0, r3, r5, r6, sl, ip, sp}
 8000354:	080032df 	stmdaeq	r0, {r0, r1, r2, r3, r4, r6, r7, r9, ip, sp}
 8000358:	00000010 	andeq	r0, r0, r0, lsl r0
 800035c:	080034e9 	stmdaeq	r0, {r0, r3, r5, r6, r7, sl, ip, sp}
 8000360:	08003679 	stmdaeq	r0, {r0, r3, r4, r5, r6, r9, sl, ip, sp}
 8000364:	0800331f 	stmdaeq	r0, {r0, r1, r2, r3, r4, r8, r9, ip, sp}
 8000368:	08000384 	stmdaeq	r0, {r2, r7, r8, r9}
 800036c:	080032df 	stmdaeq	r0, {r0, r1, r2, r3, r4, r6, r7, r9, ip, sp}
 8000370:	08000408 	stmdaeq	r0, {r3, sl}
 8000374:	08003569 	stmdaeq	r0, {r0, r3, r5, r6, r8, sl, ip, sp}
 8000378:	08003375 	stmdaeq	r0, {r0, r2, r4, r5, r6, r8, r9, ip, sp}
 800037c:	08003909 	stmdaeq	r0, {r0, r3, r8, fp, ip, sp}
 8000380:	080045b1 	stmdaeq	r0, {r0, r4, r5, r7, r8, sl, lr}
 8000384:	080032df 	stmdaeq	r0, {r0, r1, r2, r3, r4, r6, r7, r9, ip, sp}
 8000388:	0000000f 	andeq	r0, r0, pc
 800038c:	080034e9 	stmdaeq	r0, {r0, r3, r5, r6, r7, sl, ip, sp}
 8000390:	080037b1 	stmdaeq	r0, {r0, r4, r5, r7, r8, r9, sl, ip, sp}
 8000394:	080032df 	stmdaeq	r0, {r0, r1, r2, r3, r4, r6, r7, r9, ip, sp}
 8000398:	0000001f 	andeq	r0, r0, pc, lsl r0
 800039c:	08003479 	stmdaeq	r0, {r0, r3, r4, r5, r6, sl, ip, sp}
 80003a0:	08003579 	stmdaeq	r0, {r0, r3, r4, r5, r6, r8, sl, ip, sp}
 80003a4:	080032df 	stmdaeq	r0, {r0, r1, r2, r3, r4, r6, r7, r9, ip, sp}
 80003a8:	00000002 	andeq	r0, r0, r2
 80003ac:	08003559 	stmdaeq	r0, {r0, r3, r4, r6, r8, sl, ip, sp}
 80003b0:	080032df 	stmdaeq	r0, {r0, r1, r2, r3, r4, r6, r7, r9, ip, sp}
 80003b4:	08000408 	stmdaeq	r0, {r3, sl}
 80003b8:	08003569 	stmdaeq	r0, {r0, r3, r5, r6, r8, sl, ip, sp}
 80003bc:	08003375 	stmdaeq	r0, {r0, r2, r4, r5, r6, r8, r9, ip, sp}
 80003c0:	08003909 	stmdaeq	r0, {r0, r3, r8, fp, ip, sp}
 80003c4:	080045b1 	stmdaeq	r0, {r0, r4, r5, r7, r8, sl, lr}
 80003c8:	080045e5 	stmdaeq	r0, {r0, r2, r5, r6, r7, r8, sl, lr}
 80003cc:	080032df 	stmdaeq	r0, {r0, r1, r2, r3, r4, r6, r7, r9, ip, sp}
 80003d0:	00000000 	andeq	r0, r0, r0
 80003d4:	0800242d 	stmdaeq	r0, {r0, r2, r3, r5, sl, sp}
 80003d8:	080033a1 	stmdaeq	r0, {r0, r5, r7, r8, r9, ip, sp}
 80003dc:	080039d5 	stmdaeq	r0, {r0, r2, r4, r6, r7, r8, fp, ip, sp}
 80003e0:	08003361 	stmdaeq	r0, {r0, r5, r6, r8, r9, ip, sp}
 80003e4:	080003e9 	stmdaeq	r0, {r0, r3, r5, r6, r7, r8, r9}

080003e8 <exit_fpu_isr>:
 80003e8:	f8df c740 	ldr.w	ip, [pc, #1856]	; 8000b2c <ULAST+0x8>
 80003ec:	f44f 406d 	mov.w	r0, #60672	; 0xed00
 80003f0:	f2ce 0000 	movt	r0, #57344	; 0xe000
 80003f4:	ea81 0101 	eor.w	r1, r1, r1
 80003f8:	6041      	str	r1, [r0, #4]
 80003fa:	f04f 0051 	mov.w	r0, #81	; 0x51
 80003fe:	f000 fa8c 	bl	800091a <nvic_enable_irq>
 8000402:	f85d eb04 	ldr.w	lr, [sp], #4
 8000406:	4770      	bx	lr

08000408 <fpu_exceptions>:
 8000408:	0800041c 	stmdaeq	r0, {r2, r3, r4, sl}
 800040c:	08000430 	stmdaeq	r0, {r4, r5, sl}
 8000410:	08000440 	stmdaeq	r0, {r6, sl}
 8000414:	0800044c 	stmdaeq	r0, {r2, r3, r6, sl}
 8000418:	08000458 	stmdaeq	r0, {r3, r4, r6, sl}

0800041c <fpu_except_invalid_op>:
 800041c:	6e692012 	mcrvs	0, 3, r2, cr9, cr2, {0}
 8000420:	696c6176 	stmdbvs	ip!, {r1, r2, r4, r5, r6, r8, sp, lr}^
 8000424:	706f2064 	rsbvc	r2, pc, r4, rrx
 8000428:	74617265 	strbtvc	r7, [r1], #-613	; 0xfffffd9b
 800042c:	006e6f69 	rsbeq	r6, lr, r9, ror #30

08000430 <fpu_except_div0>:
 8000430:	6964200e 	stmdbvs	r4!, {r1, r2, r3, sp}^
 8000434:	69736976 	ldmdbvs	r3!, {r1, r2, r4, r5, r6, r8, fp, sp, lr}^
 8000438:	62206e6f 	eorvs	r6, r0, #1776	; 0x6f0
 800043c:	00302079 	eorseq	r2, r0, r9, ror r0

08000440 <fpu_except_overflow>:
 8000440:	766f2009 	strbtvc	r2, [pc], -r9
 8000444:	6c667265 	sfmvs	f7, 2, [r6], #-404	; 0xfffffe6c
 8000448:	bf00776f 	svclt	0x0000776f

0800044c <fpu_except_underflow>:
 800044c:	6e75200a 	cdpvs	0, 7, cr2, cr5, cr10, {0}
 8000450:	66726564 	ldrbtvs	r6, [r2], -r4, ror #10
 8000454:	00776f6c 	rsbseq	r6, r7, ip, ror #30

08000458 <fpu_except_inexact>:
 8000458:	6e69200a 	cdpvs	0, 6, cr2, cr9, cr10, {0}
 800045c:	63617865 	cmnvs	r1, #6619136	; 0x650000
 8000460:	00202c74 	eoreq	r2, r0, r4, ror ip

08000464 <nmi_handler>:
 8000464:	f8df c6c8 	ldr.w	ip, [pc, #1736]	; 8000b30 <ULAST+0xc>
 8000468:	f002 be24 	b.w	80030b4 <INEXT>

0800046c <nmi_hl>:
 800046c:	08005141 	stmdaeq	r0, {r0, r6, r8, ip, lr}
 8000470:	080045e5 	stmdaeq	r0, {r0, r2, r5, r6, r7, r8, sl, lr}
 8000474:	08004641 	stmdaeq	r0, {r0, r6, r9, sl, lr}
 8000478:	746f6e19 	strbtvc	r6, [pc], #-3609	; 8000480 <nmi_hl+0x14>
 800047c:	6e616d20 	cdpvs	13, 6, cr6, cr1, cr0, {1}
 8000480:	64656761 	strbtvs	r6, [r5], #-1889	; 0xfffff89f
 8000484:	696d6e20 	stmdbvs	sp!, {r5, r9, sl, fp, sp, lr}^
 8000488:	63786520 	cmnvs	r8, #32, 10	; 0x8000000
 800048c:	69747065 	ldmdbvs	r4!, {r0, r2, r5, r6, ip, sp, lr}^
 8000490:	bf006e6f 	svclt	0x00006e6f
 8000494:	080045e5 	stmdaeq	r0, {r0, r2, r5, r6, r7, r8, sl, lr}
 8000498:	08004ee5 	stmdaeq	r0, {r0, r2, r5, r6, r7, r9, sl, fp, lr}

0800049c <hardfault_handler>:
 800049c:	f04f 0000 	mov.w	r0, #0
 80004a0:	f2c2 0002 	movt	r0, #8194	; 0x2002
 80004a4:	4685      	mov	sp, r0
 80004a6:	f8df c68c 	ldr.w	ip, [pc, #1676]	; 8000b34 <ULAST+0x10>
 80004aa:	f002 be03 	b.w	80030b4 <INEXT>

080004ae <hardfault_hl>:
 80004ae:	08005141 	stmdaeq	r0, {r0, r6, r8, ip, lr}
 80004b2:	080045e5 	stmdaeq	r0, {r0, r2, r5, r6, r7, r8, sl, lr}
 80004b6:	08004641 	stmdaeq	r0, {r0, r6, r9, sl, lr}
 80004ba:	72616814 	rsbvc	r6, r1, #20, 16	; 0x140000
 80004be:	61662064 	cmnvs	r6, r4, rrx
 80004c2:	20746c75 	rsbscs	r6, r4, r5, ror ip
 80004c6:	65637865 	strbvs	r7, [r3, #-2149]!	; 0xfffff79b
 80004ca:	6f697470 	svcvs	0x00697470
 80004ce:	45e5006e 	strbmi	r0, [r5, #110]!	; 0x6e
 80004d2:	06d50800 	ldrbeq	r0, [r5], r0, lsl #16
 80004d6:	 			; <UNDEFINED> instruction: 0xf04f0800

080004d8 <memfault_handler>:
 80004d8:	f04f 0000 	mov.w	r0, #0
 80004dc:	f2c2 0002 	movt	r0, #8194	; 0x2002
 80004e0:	4685      	mov	sp, r0
 80004e2:	f8df c654 	ldr.w	ip, [pc, #1620]	; 8000b38 <ULAST+0x14>
 80004e6:	f002 bde5 	b.w	80030b4 <INEXT>

080004ea <memfault_hl>:
 80004ea:	08005141 	stmdaeq	r0, {r0, r6, r8, ip, lr}
 80004ee:	080045e5 	stmdaeq	r0, {r0, r2, r5, r6, r7, r8, sl, lr}
 80004f2:	08004641 	stmdaeq	r0, {r0, r6, r9, sl, lr}
 80004f6:	6d656d21 	stclvs	13, cr6, [r5, #-132]!	; 0xffffff7c
 80004fa:	2079726f 	rsbscs	r7, r9, pc, ror #4
 80004fe:	616e616d 	cmnvs	lr, sp, ror #2
 8000502:	20726567 	rsbscs	r6, r2, r7, ror #10
 8000506:	65637865 	strbvs	r7, [r3, #-2149]!	; 0xfffff79b
 800050a:	6f697470 	svcvs	0x00697470
 800050e:	4d202c6e 	stcmi	12, cr2, [r0, #-440]!	; 0xfffffe48
 8000512:	5253464d 	subspl	r4, r3, #80740352	; 0x4d00000
 8000516:	32df203a 	sbcscc	r2, pc, #58	; 0x3a
 800051a:	00100800 	andseq	r0, r0, r0, lsl #16
 800051e:	39d50000 	ldmibcc	r5, {}^	; <UNPREDICTABLE>
 8000522:	33610800 	cmncc	r1, #0, 16
 8000526:	31010800 	tstcc	r1, r0, lsl #16
 800052a:	32df0800 	sbcscc	r0, pc, #0, 16
 800052e:	00ff0800 	rscseq	r0, pc, r0, lsl #16
 8000532:	34e90000 	strbtcc	r0, [r9], #0
 8000536:	473d0800 	ldrmi	r0, [sp, -r0, lsl #16]!
 800053a:	45e50800 	strbmi	r0, [r5, #2048]!	; 0x800
 800053e:	06d50800 	ldrbeq	r0, [r5], r0, lsl #16
 8000542:	 			; <UNDEFINED> instruction: 0xf04f0800

08000544 <busfault_handler>:
 8000544:	f04f 0000 	mov.w	r0, #0
 8000548:	f2c2 0002 	movt	r0, #8194	; 0x2002
 800054c:	4685      	mov	sp, r0
 800054e:	f8df c5ec 	ldr.w	ip, [pc, #1516]	; 8000b3c <ULAST+0x18>
 8000552:	f002 bdaf 	b.w	80030b4 <INEXT>

08000556 <busfault_hl>:
 8000556:	08005141 	stmdaeq	r0, {r0, r6, r8, ip, lr}
 800055a:	080032df 	stmdaeq	r0, {r0, r1, r2, r3, r4, r6, r7, r9, ip, sp}
 800055e:	00000001 	andeq	r0, r0, r1
 8000562:	08003249 	stmdaeq	r0, {r0, r3, r6, r9, ip, sp}
 8000566:	080032df 	stmdaeq	r0, {r0, r1, r2, r3, r4, r6, r7, r9, ip, sp}
 800056a:	00000064 	andeq	r0, r0, r4, rrx
 800056e:	0800398d 	stmdaeq	r0, {r0, r2, r3, r7, r8, fp, ip, sp}
 8000572:	08003121 	stmdaeq	r0, {r0, r5, r8, ip, sp}
 8000576:	08003101 	stmdaeq	r0, {r0, r8, ip, sp}
 800057a:	080045e5 	stmdaeq	r0, {r0, r2, r5, r6, r7, r8, sl, lr}
 800057e:	08004641 	stmdaeq	r0, {r0, r6, r9, sl, lr}
 8000582:	7375621b 	cmnvc	r5, #-1342177279	; 0xb0000001
 8000586:	75616620 	strbvc	r6, [r1, #-1568]!	; 0xfffff9e0
 800058a:	6520746c 	strvs	r7, [r0, #-1132]!	; 0xfffffb94
 800058e:	70656378 	rsbvc	r6, r5, r8, ror r3
 8000592:	6e6f6974 			; <UNDEFINED> instruction: 0x6e6f6974
 8000596:	4642202c 	strbmi	r2, [r2], -ip, lsr #32
 800059a:	203a5253 	eorscs	r5, sl, r3, asr r2
 800059e:	bf00      	nop
 80005a0:	080032df 	stmdaeq	r0, {r0, r1, r2, r3, r4, r6, r7, r9, ip, sp}
 80005a4:	00000010 	andeq	r0, r0, r0, lsl r0
 80005a8:	080039d5 	stmdaeq	r0, {r0, r2, r4, r6, r7, r8, fp, ip, sp}
 80005ac:	08003361 	stmdaeq	r0, {r0, r5, r6, r8, r9, ip, sp}
 80005b0:	080032df 	stmdaeq	r0, {r0, r1, r2, r3, r4, r6, r7, r9, ip, sp}
 80005b4:	0000ff00 	andeq	pc, r0, r0, lsl #30
 80005b8:	080034e9 	stmdaeq	r0, {r0, r3, r5, r6, r7, sl, ip, sp}
 80005bc:	0800473d 	stmdaeq	r0, {r0, r2, r3, r4, r5, r8, r9, sl, lr}
 80005c0:	08004641 	stmdaeq	r0, {r0, r6, r9, sl, lr}
 80005c4:	46422007 	strbmi	r2, [r2], -r7
 80005c8:	203a5241 	eorscs	r5, sl, r1, asr #4
 80005cc:	0800473d 	stmdaeq	r0, {r0, r2, r3, r4, r5, r8, r9, sl, lr}
 80005d0:	080045e5 	stmdaeq	r0, {r0, r2, r5, r6, r7, r8, sl, lr}
 80005d4:	080006d5 	stmdaeq	r0, {r0, r2, r4, r6, r7, r9, sl}

080005d8 <usagefault_handler>:
 80005d8:	f04f 0000 	mov.w	r0, #0
 80005dc:	f2c2 0002 	movt	r0, #8194	; 0x2002
 80005e0:	4685      	mov	sp, r0
 80005e2:	f8df c55c 	ldr.w	ip, [pc, #1372]	; 8000b40 <ULAST+0x1c>
 80005e6:	f002 bd65 	b.w	80030b4 <INEXT>

080005ea <usagefault_hl>:
 80005ea:	08005141 	stmdaeq	r0, {r0, r6, r8, ip, lr}
 80005ee:	080045e5 	stmdaeq	r0, {r0, r2, r5, r6, r7, r8, sl, lr}
 80005f2:	08004641 	stmdaeq	r0, {r0, r6, r9, sl, lr}
 80005f6:	61737517 	cmnvs	r3, r7, lsl r5
 80005fa:	65206567 	strvs	r6, [r0, #-1383]!	; 0xfffffa99
 80005fe:	70656378 	rsbvc	r6, r5, r8, ror r3
 8000602:	6e6f6974 			; <UNDEFINED> instruction: 0x6e6f6974
 8000606:	4655202c 	ldrbmi	r2, [r5], -ip, lsr #32
 800060a:	203a5253 	eorscs	r5, sl, r3, asr r2
 800060e:	bf00      	nop
 8000610:	080032df 	stmdaeq	r0, {r0, r1, r2, r3, r4, r6, r7, r9, ip, sp}
 8000614:	00000010 	andeq	r0, r0, r0, lsl r0
 8000618:	080039d5 	stmdaeq	r0, {r0, r2, r4, r6, r7, r8, fp, ip, sp}
 800061c:	08003361 	stmdaeq	r0, {r0, r5, r6, r8, r9, ip, sp}
 8000620:	08003101 	stmdaeq	r0, {r0, r8, ip, sp}
 8000624:	080032df 	stmdaeq	r0, {r0, r1, r2, r3, r4, r6, r7, r9, ip, sp}
 8000628:	00000010 	andeq	r0, r0, r0, lsl r0
 800062c:	08003541 	stmdaeq	r0, {r0, r6, r8, sl, ip, sp}
 8000630:	0800473d 	stmdaeq	r0, {r0, r2, r3, r4, r5, r8, r9, sl, lr}
 8000634:	080045e5 	stmdaeq	r0, {r0, r2, r5, r6, r7, r8, sl, lr}
 8000638:	080006d5 	stmdaeq	r0, {r0, r2, r4, r6, r7, r9, sl}

0800063c <timer4_handler>:
 800063c:	f04f 0300 	mov.w	r3, #0
 8000640:	f2c2 0300 	movt	r3, #8192	; 0x2000
 8000644:	f8d3 00b0 	ldr.w	r0, [r3, #176]	; 0xb0
 8000648:	b938      	cbnz	r0, 800065a <timer4_handler+0x1e>
 800064a:	f44f 6300 	mov.w	r3, #2048	; 0x800
 800064e:	f2c4 0300 	movt	r3, #16384	; 0x4000
 8000652:	6818      	ldr	r0, [r3, #0]
 8000654:	f020 0001 	bic.w	r0, r0, #1
 8000658:	6018      	str	r0, [r3, #0]
 800065a:	f44f 6300 	mov.w	r3, #2048	; 0x800
 800065e:	f2c4 0300 	movt	r3, #16384	; 0x4000
 8000662:	6918      	ldr	r0, [r3, #16]
 8000664:	f020 0003 	bic.w	r0, r0, #3
 8000668:	6118      	str	r0, [r3, #16]
 800066a:	4770      	bx	lr

0800066c <systick_handler>:
 800066c:	f04f 0300 	mov.w	r3, #0
 8000670:	f2c2 0300 	movt	r3, #8192	; 0x2000
 8000674:	6898      	ldr	r0, [r3, #8]
 8000676:	f100 0001 	add.w	r0, r0, #1
 800067a:	6098      	str	r0, [r3, #8]
 800067c:	f8d3 00b0 	ldr.w	r0, [r3, #176]	; 0xb0
 8000680:	b118      	cbz	r0, 800068a <systick_handler+0x1e>
 8000682:	f1a0 0001 	sub.w	r0, r0, #1
 8000686:	f8c3 00b0 	str.w	r0, [r3, #176]	; 0xb0
 800068a:	68d8      	ldr	r0, [r3, #12]
 800068c:	b110      	cbz	r0, 8000694 <systick_exit>
 800068e:	f1a0 0001 	sub.w	r0, r0, #1
 8000692:	60d8      	str	r0, [r3, #12]

08000694 <systick_exit>:
 8000694:	4770      	bx	lr

08000696 <user_reboot>:
 8000696:	b500      	push	{lr}
 8000698:	f000 f84e 	bl	8000738 <forth_init>
 800069c:	f85d eb04 	ldr.w	lr, [sp], #4
 80006a0:	f8df c4a0 	ldr.w	ip, [pc, #1184]	; 8000b44 <ULAST+0x20>
 80006a4:	f002 bd06 	b.w	80030b4 <INEXT>

080006a8 <ur>:
 80006a8:	08005141 	stmdaeq	r0, {r0, r6, r8, ip, lr}
 80006ac:	080045e5 	stmdaeq	r0, {r0, r2, r5, r6, r7, r8, sl, lr}
 80006b0:	080032df 	stmdaeq	r0, {r0, r1, r2, r3, r4, r6, r7, r9, ip, sp}
 80006b4:	080006c4 	stmdaeq	r0, {r2, r6, r7, r9, sl}
 80006b8:	08003909 	stmdaeq	r0, {r0, r3, r8, fp, ip, sp}
 80006bc:	080045b1 	stmdaeq	r0, {r0, r4, r5, r7, r8, sl, lr}
 80006c0:	080006d5 	stmdaeq	r0, {r0, r2, r4, r6, r7, r9, sl}

080006c4 <user_reboot_msg>:
 80006c4:	6573750c 	ldrbvs	r7, [r3, #-1292]!	; 0xfffffaf4
 80006c8:	65722072 	ldrbvs	r2, [r2, #-114]!	; 0xffffff8e
 80006cc:	746f6f62 	strbtvc	r6, [pc], #-3938	; 80006d4 <reset_mcu>
 80006d0:	bf000021 	svclt	0x00000021

080006d4 <reset_mcu>:
 80006d4:	f44f 5080 	mov.w	r0, #4096	; 0x1000
 80006d8:	f2c4 0001 	movt	r0, #16385	; 0x4001
 80006dc:	6801      	ldr	r1, [r0, #0]
 80006de:	f011 0f40 	tst.w	r1, #64	; 0x40
 80006e2:	d0fb      	beq.n	80006dc <reset_mcu+0x8>
 80006e4:	f44f 406d 	mov.w	r0, #60672	; 0xed00
 80006e8:	f2ce 0000 	movt	r0, #57344	; 0xe000
 80006ec:	68c1      	ldr	r1, [r0, #12]
 80006ee:	f041 0104 	orr.w	r1, r1, #4
 80006f2:	f2c0 51fa 	movt	r1, #1530	; 0x5fa
 80006f6:	60c1      	str	r1, [r0, #12]
 80006f8:	e7fe      	b.n	80006f8 <reset_mcu+0x24>
 80006fa:	bf00      	nop

080006fc <reset_handler>:
 80006fc:	f04f 0000 	mov.w	r0, #0
 8000700:	f2c2 0002 	movt	r0, #8194	; 0x2002
 8000704:	4685      	mov	sp, r0
 8000706:	f44f 406d 	mov.w	r0, #60672	; 0xed00
 800070a:	f2ce 0000 	movt	r0, #57344	; 0xe000
 800070e:	ea81 0101 	eor.w	r1, r1, r1
 8000712:	f2c0 0107 	movt	r1, #7
 8000716:	6241      	str	r1, [r0, #36]	; 0x24
 8000718:	f000 f8c6 	bl	80008a8 <remap>
 800071c:	f000 f820 	bl	8000760 <init_devices>
 8000720:	f001 fe45 	bl	80023ae <fpu_init>
 8000724:	f000 fb09 	bl	8000d3a <ser_init>
 8000728:	f000 fc26 	bl	8000f78 <tv_init>
 800072c:	f001 f9fa 	bl	8001b24 <kbd_init>
 8000730:	f001 fc02 	bl	8001f38 <flash_spi_init>
 8000734:	f005 bcca 	b.w	80060cc <COLD>

08000738 <forth_init>:
 8000738:	f04f 0400 	mov.w	r4, #0
 800073c:	f2c2 0400 	movt	r4, #8192	; 0x2000
 8000740:	f64f 67b0 	movw	r7, #65200	; 0xfeb0
 8000744:	f2c2 0701 	movt	r7, #8193	; 0x2001
 8000748:	f64f 7880 	movw	r8, #65408	; 0xff80
 800074c:	f2c2 0801 	movt	r8, #8193	; 0x2001
 8000750:	f8df a3f4 	ldr.w	sl, [pc, #1012]	; 8000b48 <ULAST+0x24>
 8000754:	f04a 0a01 	orr.w	sl, sl, #1
 8000758:	ea86 0606 	eor.w	r6, r6, r6
 800075c:	4770      	bx	lr
 800075e:	bf00      	nop

08000760 <init_devices>:
 8000760:	f44f 5070 	mov.w	r0, #15360	; 0x3c00
 8000764:	f2c4 0002 	movt	r0, #16386	; 0x4002
 8000768:	f04f 0103 	mov.w	r1, #3
 800076c:	6001      	str	r1, [r0, #0]
 800076e:	f44f 5060 	mov.w	r0, #14336	; 0x3800
 8000772:	f2c4 0002 	movt	r0, #16386	; 0x4002
 8000776:	6801      	ldr	r1, [r0, #0]
 8000778:	f441 3180 	orr.w	r1, r1, #65536	; 0x10000
 800077c:	6001      	str	r1, [r0, #0]

0800077e <wait_hserdy>:
 800077e:	6801      	ldr	r1, [r0, #0]
 8000780:	f411 3f00 	tst.w	r1, #131072	; 0x20000
 8000784:	d0fb      	beq.n	800077e <wait_hserdy>
 8000786:	f44f 5060 	mov.w	r0, #14336	; 0x3800
 800078a:	f2c4 0002 	movt	r0, #16386	; 0x4002
 800078e:	f246 0132 	movw	r1, #24626	; 0x6032
 8000792:	f2c0 4140 	movt	r1, #1088	; 0x440
 8000796:	6041      	str	r1, [r0, #4]
 8000798:	6801      	ldr	r1, [r0, #0]
 800079a:	f041 7180 	orr.w	r1, r1, #16777216	; 0x1000000
 800079e:	6001      	str	r1, [r0, #0]

080007a0 <wait_pllrdy>:
 80007a0:	6801      	ldr	r1, [r0, #0]
 80007a2:	f011 7f00 	tst.w	r1, #33554432	; 0x2000000
 80007a6:	d1fb      	bne.n	80007a0 <wait_pllrdy>
 80007a8:	f44f 5180 	mov.w	r1, #4096	; 0x1000
 80007ac:	f2c0 0119 	movt	r1, #25
 80007b0:	6081      	str	r1, [r0, #8]
 80007b2:	6881      	ldr	r1, [r0, #8]
 80007b4:	f041 0102 	orr.w	r1, r1, #2
 80007b8:	6081      	str	r1, [r0, #8]

080007ba <wait_sws>:
 80007ba:	6881      	ldr	r1, [r0, #8]
 80007bc:	f011 0f08 	tst.w	r1, #8
 80007c0:	d0fb      	beq.n	80007ba <wait_sws>
 80007c2:	f04f 019f 	mov.w	r1, #159	; 0x9f
 80007c6:	6301      	str	r1, [r0, #48]	; 0x30
 80007c8:	f244 0110 	movw	r1, #16400	; 0x4010
 80007cc:	6441      	str	r1, [r0, #68]	; 0x44
 80007ce:	f44f 6000 	mov.w	r0, #2048	; 0x800
 80007d2:	f2c4 0002 	movt	r0, #16386	; 0x4002
 80007d6:	f04f 010d 	mov.w	r1, #13
 80007da:	f04f 0211 	mov.w	r2, #17
 80007de:	b500      	push	{lr}
 80007e0:	f000 f8de 	bl	80009a0 <gpio_config>
 80007e4:	f85d eb04 	ldr.w	lr, [sp], #4
 80007e8:	f04f 0201 	mov.w	r2, #1
 80007ec:	b500      	push	{lr}
 80007ee:	f000 f92d 	bl	8000a4c <gpio_out>
 80007f2:	f85d eb04 	ldr.w	lr, [sp], #4
 80007f6:	f44f 5160 	mov.w	r1, #14336	; 0x3800
 80007fa:	f2c4 0101 	movt	r1, #16385	; 0x4001
 80007fe:	f04f 0001 	mov.w	r0, #1
 8000802:	6208      	str	r0, [r1, #32]
 8000804:	6a08      	ldr	r0, [r1, #32]
 8000806:	f410 7f80 	tst.w	r0, #256	; 0x100
 800080a:	d0fb      	beq.n	8000804 <wait_sws+0x4a>
 800080c:	f44f 6080 	mov.w	r0, #1024	; 0x400
 8000810:	f2c4 0002 	movt	r0, #16386	; 0x4002
 8000814:	6a01      	ldr	r1, [r0, #32]
 8000816:	f041 7100 	orr.w	r1, r1, #33554432	; 0x2000000
 800081a:	6201      	str	r1, [r0, #32]
 800081c:	f04f 0106 	mov.w	r1, #6
 8000820:	f04f 0202 	mov.w	r2, #2
 8000824:	b500      	push	{lr}
 8000826:	f000 f8bb 	bl	80009a0 <gpio_config>
 800082a:	f85d eb04 	ldr.w	lr, [sp], #4
 800082e:	f44f 5260 	mov.w	r2, #14336	; 0x3800
 8000832:	f2c4 0202 	movt	r2, #16386	; 0x4002
 8000836:	f04f 0004 	mov.w	r0, #4
 800083a:	6c11      	ldr	r1, [r2, #64]	; 0x40
 800083c:	ea41 0100 	orr.w	r1, r1, r0
 8000840:	6411      	str	r1, [r2, #64]	; 0x40
 8000842:	f44f 6200 	mov.w	r2, #2048	; 0x800
 8000846:	f2c4 0200 	movt	r2, #16384	; 0x4000
 800084a:	f44f 6000 	mov.w	r0, #2048	; 0x800
 800084e:	f2c4 0000 	movt	r0, #16384	; 0x4000
 8000852:	f04f 010f 	mov.w	r1, #15
 8000856:	6281      	str	r1, [r0, #40]	; 0x28
 8000858:	f04f 0170 	mov.w	r1, #112	; 0x70
 800085c:	6181      	str	r1, [r0, #24]
 800085e:	6a01      	ldr	r1, [r0, #32]
 8000860:	f041 0101 	orr.w	r1, r1, #1
 8000864:	6201      	str	r1, [r0, #32]
 8000866:	68c1      	ldr	r1, [r0, #12]
 8000868:	f041 0101 	orr.w	r1, r1, #1
 800086c:	60c1      	str	r1, [r0, #12]
 800086e:	f04f 001e 	mov.w	r0, #30
 8000872:	b500      	push	{lr}
 8000874:	f000 f851 	bl	800091a <nvic_enable_irq>
 8000878:	f85d eb04 	ldr.w	lr, [sp], #4
 800087c:	f04f 30ff 	mov.w	r0, #4294967295	; 0xffffffff
 8000880:	f04f 010f 	mov.w	r1, #15
 8000884:	b500      	push	{lr}
 8000886:	f000 f82f 	bl	80008e8 <nvic_set_priority>
 800088a:	f85d eb04 	ldr.w	lr, [sp], #4
 800088e:	f24e 0010 	movw	r0, #57360	; 0xe010
 8000892:	f2ce 0000 	movt	r0, #57344	; 0xe000
 8000896:	f247 61ff 	movw	r1, #30463	; 0x76ff
 800089a:	f2c0 0101 	movt	r1, #1
 800089e:	6041      	str	r1, [r0, #4]
 80008a0:	f04f 0107 	mov.w	r1, #7
 80008a4:	6001      	str	r1, [r0, #0]
 80008a6:	4770      	bx	lr

080008a8 <remap>:
 80008a8:	f04f 0000 	mov.w	r0, #0
 80008ac:	f2c2 0000 	movt	r0, #8192	; 0x2000
 80008b0:	49a6      	ldr	r1, [pc, #664]	; (8000b4c <ULAST+0x28>)
 80008b2:	f04f 02c0 	mov.w	r2, #192	; 0xc0
 80008b6:	f102 0203 	add.w	r2, r2, #3
 80008ba:	f022 0203 	bic.w	r2, r2, #3
 80008be:	f851 3b04 	ldr.w	r3, [r1], #4
 80008c2:	f840 3b04 	str.w	r3, [r0], #4
 80008c6:	3a04      	subs	r2, #4
 80008c8:	d1f9      	bne.n	80008be <remap+0x16>
 80008ca:	f04f 0200 	mov.w	r2, #0
 80008ce:	f2c2 0202 	movt	r2, #8194	; 0x2002
 80008d2:	ea83 0303 	eor.w	r3, r3, r3
 80008d6:	f840 3b04 	str.w	r3, [r0], #4
 80008da:	4290      	cmp	r0, r2
 80008dc:	dbfb      	blt.n	80008d6 <remap+0x2e>
 80008de:	f04f 0400 	mov.w	r4, #0
 80008e2:	f2c2 0400 	movt	r4, #8192	; 0x2000
 80008e6:	4770      	bx	lr

080008e8 <nvic_set_priority>:
 80008e8:	b408      	push	{r3}
 80008ea:	2800      	cmp	r0, #0
 80008ec:	d408      	bmi.n	8000900 <negative_irq>
 80008ee:	f44f 4364 	mov.w	r3, #58368	; 0xe400
 80008f2:	f2ce 0300 	movt	r3, #57344	; 0xe000
 80008f6:	ea4f 1101 	mov.w	r1, r1, lsl #4
 80008fa:	5419      	strb	r1, [r3, r0]
 80008fc:	bc08      	pop	{r3}
 80008fe:	4770      	bx	lr

08000900 <negative_irq>:
 8000900:	f64e 5318 	movw	r3, #60696	; 0xed18
 8000904:	f2ce 0300 	movt	r3, #57344	; 0xe000
 8000908:	f000 000f 	and.w	r0, r0, #15
 800090c:	f1a0 0004 	sub.w	r0, r0, #4
 8000910:	ea4f 1101 	mov.w	r1, r1, lsl #4
 8000914:	5419      	strb	r1, [r3, r0]
 8000916:	bc08      	pop	{r3}
 8000918:	4770      	bx	lr

0800091a <nvic_enable_irq>:
 800091a:	b40e      	push	{r1, r2, r3}
 800091c:	f44f 4361 	mov.w	r3, #57600	; 0xe100
 8000920:	f2ce 0300 	movt	r3, #57344	; 0xe000
 8000924:	4601      	mov	r1, r0
 8000926:	ea4f 1151 	mov.w	r1, r1, lsr #5
 800092a:	ea4f 0181 	mov.w	r1, r1, lsl #2
 800092e:	f000 001f 	and.w	r0, r0, #31
 8000932:	f04f 0201 	mov.w	r2, #1
 8000936:	fa02 f200 	lsl.w	r2, r2, r0
 800093a:	b672      	cpsid	i
 800093c:	505a      	str	r2, [r3, r1]
 800093e:	b662      	cpsie	i
 8000940:	bc0e      	pop	{r1, r2, r3}
 8000942:	4770      	bx	lr

08000944 <nvic_disable_irq>:
 8000944:	b40e      	push	{r1, r2, r3}
 8000946:	f24e 1380 	movw	r3, #57728	; 0xe180
 800094a:	f2ce 0300 	movt	r3, #57344	; 0xe000
 800094e:	4601      	mov	r1, r0
 8000950:	ea4f 1151 	mov.w	r1, r1, lsr #5
 8000954:	ea4f 0181 	mov.w	r1, r1, lsl #2
 8000958:	f000 001f 	and.w	r0, r0, #31
 800095c:	f04f 0201 	mov.w	r2, #1
 8000960:	fa02 f200 	lsl.w	r2, r2, r0
 8000964:	505a      	str	r2, [r3, r1]
 8000966:	f3bf 8f4f 	dsb	sy
 800096a:	f3bf 8f6f 	isb	sy
 800096e:	bc0e      	pop	{r1, r2, r3}
 8000970:	4770      	bx	lr

08000972 <nvic_clear_irq_pending>:
 8000972:	f24e 2380 	movw	r3, #57984	; 0xe280
 8000976:	f2ce 0300 	movt	r3, #57344	; 0xe000
 800097a:	b40e      	push	{r1, r2, r3}
 800097c:	4601      	mov	r1, r0
 800097e:	ea4f 1151 	mov.w	r1, r1, lsr #5
 8000982:	ea4f 0181 	mov.w	r1, r1, lsl #2
 8000986:	f000 001f 	and.w	r0, r0, #31
 800098a:	f04f 0201 	mov.w	r2, #1
 800098e:	fa02 f200 	lsl.w	r2, r2, r0
 8000992:	505a      	str	r2, [r3, r1]
 8000994:	f3bf 8f4f 	dsb	sy
 8000998:	f3bf 8f6f 	isb	sy
 800099c:	bc0e      	pop	{r1, r2, r3}
 800099e:	4770      	bx	lr

080009a0 <gpio_config>:
 80009a0:	e92d 0828 	stmdb	sp!, {r3, r5, fp}
 80009a4:	f04f 0501 	mov.w	r5, #1
 80009a8:	fa05 f501 	lsl.w	r5, r5, r1
 80009ac:	ea6f 0505 	mvn.w	r5, r5
 80009b0:	6843      	ldr	r3, [r0, #4]
 80009b2:	ea03 0305 	and.w	r3, r3, r5
 80009b6:	6043      	str	r3, [r0, #4]
 80009b8:	f04f 0503 	mov.w	r5, #3
 80009bc:	f04f 0b02 	mov.w	fp, #2
 80009c0:	fb01 fb0b 	mul.w	fp, r1, fp
 80009c4:	fa05 f50b 	lsl.w	r5, r5, fp
 80009c8:	ea6f 0505 	mvn.w	r5, r5
 80009cc:	6803      	ldr	r3, [r0, #0]
 80009ce:	ea03 0305 	and.w	r3, r3, r5
 80009d2:	6003      	str	r3, [r0, #0]
 80009d4:	68c3      	ldr	r3, [r0, #12]
 80009d6:	ea03 0305 	and.w	r3, r3, r5
 80009da:	60c3      	str	r3, [r0, #12]
 80009dc:	f002 0503 	and.w	r5, r2, #3
 80009e0:	fa05 f50b 	lsl.w	r5, r5, fp
 80009e4:	6803      	ldr	r3, [r0, #0]
 80009e6:	ea43 0305 	orr.w	r3, r3, r5
 80009ea:	6003      	str	r3, [r0, #0]
 80009ec:	2a03      	cmp	r2, #3
 80009ee:	d013      	beq.n	8000a18 <input_pull+0x10>
 80009f0:	f012 0503 	ands.w	r5, r2, #3
 80009f4:	d008      	beq.n	8000a08 <input_pull>

080009f6 <output_type>:
 80009f6:	ea4f 1212 	mov.w	r2, r2, lsr #4
 80009fa:	fa02 f201 	lsl.w	r2, r2, r1
 80009fe:	6843      	ldr	r3, [r0, #4]
 8000a00:	ea43 0302 	orr.w	r3, r3, r2
 8000a04:	6043      	str	r3, [r0, #4]
 8000a06:	e007      	b.n	8000a18 <input_pull+0x10>

08000a08 <input_pull>:
 8000a08:	68c3      	ldr	r3, [r0, #12]
 8000a0a:	ea4f 1212 	mov.w	r2, r2, lsr #4
 8000a0e:	fa02 f20b 	lsl.w	r2, r2, fp
 8000a12:	ea43 0302 	orr.w	r3, r3, r2
 8000a16:	60c3      	str	r3, [r0, #12]
 8000a18:	e8bd 0828 	ldmia.w	sp!, {r3, r5, fp}
 8000a1c:	4770      	bx	lr

08000a1e <gpio_speed>:
 8000a1e:	e92d 0828 	stmdb	sp!, {r3, r5, fp}
 8000a22:	6883      	ldr	r3, [r0, #8]
 8000a24:	f04f 0503 	mov.w	r5, #3
 8000a28:	f04f 0b02 	mov.w	fp, #2
 8000a2c:	fb01 fb0b 	mul.w	fp, r1, fp
 8000a30:	fa05 f50b 	lsl.w	r5, r5, fp
 8000a34:	ea6f 0505 	mvn.w	r5, r5
 8000a38:	ea03 0305 	and.w	r3, r3, r5
 8000a3c:	fa02 f20b 	lsl.w	r2, r2, fp
 8000a40:	ea43 0302 	orr.w	r3, r3, r2
 8000a44:	6083      	str	r3, [r0, #8]
 8000a46:	e8bd 0828 	ldmia.w	sp!, {r3, r5, fp}
 8000a4a:	4770      	bx	lr

08000a4c <gpio_out>:
 8000a4c:	b408      	push	{r3}
 8000a4e:	f04f 0301 	mov.w	r3, #1
 8000a52:	fa03 f301 	lsl.w	r3, r3, r1
 8000a56:	b90a      	cbnz	r2, 8000a5c <gpio_out+0x10>
 8000a58:	ea4f 4303 	mov.w	r3, r3, lsl #16
 8000a5c:	6183      	str	r3, [r0, #24]
 8000a5e:	bc08      	pop	{r3}
 8000a60:	4770      	bx	lr
 8000a62:	bf00      	nop

08000a64 <UZERO>:
 8000a64:	00000000 	andeq	r0, r0, r0
 8000a68:	aa55aa55 	bge	956b3c4 <OPTKEY1+0x13d8989>
	...
 8000a74:	08005fdc 	stmdaeq	r0, {r2, r3, r4, r6, r7, r8, r9, sl, fp, ip, lr}
 8000a78:	08001c20 	stmdaeq	r0, {r5, sl, fp, ip}
 8000a7c:	080014e8 	stmdaeq	r0, {r3, r5, r6, r7, sl, ip}
 8000a80:	0000000a 	andeq	r0, r0, sl
 8000a84:	ffffffff 			; <UNDEFINED> instruction: 0xffffffff
	...
 8000a98:	2001feb0 			; <UNDEFINED> instruction: 0x2001feb0
 8000a9c:	00000000 	andeq	r0, r0, r0
 8000aa0:	08004f64 	stmdaeq	r0, {r2, r5, r6, r8, r9, sl, fp, lr}
 8000aa4:	00000000 	andeq	r0, r0, r0
 8000aa8:	080060c4 	stmdaeq	r0, {r2, r6, r7, sp, lr}
 8000aac:	08006130 	stmdaeq	r0, {r4, r5, r8, sp, lr}
 8000ab0:	200056cc 	andcs	r5, r0, ip, asr #13
 8000ab4:	080060c4 	stmdaeq	r0, {r2, r6, r7, sp, lr}
	...
 8000adc:	20018130 	andcs	r8, r1, r0, lsr r1
	...
 8000b08:	00000007 	andeq	r0, r0, r7
	...

08000b24 <ULAST>:
 8000b24:	08000212 	stmdaeq	r0, {r1, r4, r9}
 8000b28:	080002c8 	stmdaeq	r0, {r3, r6, r7, r9}
 8000b2c:	0800517c 	stmdaeq	r0, {r2, r3, r4, r5, r6, r8, ip, lr}
 8000b30:	0800046c 	stmdaeq	r0, {r2, r3, r5, r6, sl}
 8000b34:	080004ae 	stmdaeq	r0, {r1, r2, r3, r5, r7, sl}
 8000b38:	080004ea 	stmdaeq	r0, {r1, r3, r5, r6, r7, sl}
 8000b3c:	08000556 	stmdaeq	r0, {r1, r2, r4, r6, r8, sl}
 8000b40:	080005ea 	stmdaeq	r0, {r1, r3, r5, r6, r7, r8, sl}
 8000b44:	080006a8 	stmdaeq	r0, {r3, r5, r7, r9, sl}
 8000b48:	080030ac 	stmdaeq	r0, {r2, r3, r5, r7, ip, sp}
 8000b4c:	08000a64 	stmdaeq	r0, {r2, r5, r6, r9, fp}
 8000b50:	00000000 	andeq	r0, r0, r0

08000b54 <_ENVQ>:
 8000b54:	564e450c 	strbpl	r4, [lr], -ip, lsl #10
 8000b58:	4e4f5249 	cdpmi	2, 4, cr5, cr15, cr9, {2}
 8000b5c:	544e454d 	strbpl	r4, [lr], #-1357	; 0xfffffab3
 8000b60:	bf00003f 	svclt	0x0000003f

08000b64 <ENVQ>:
 8000b64:	4750      	bx	sl
 8000b66:	bf00      	nop
 8000b68:	08003a81 	stmdaeq	r0, {r0, r7, r9, fp, ip, sp}
 8000b6c:	08003375 	stmdaeq	r0, {r0, r2, r4, r5, r6, r8, r9, ip, sp}
 8000b70:	080033e5 	stmdaeq	r0, {r0, r2, r5, r6, r7, r8, r9, ip, sp}
 8000b74:	080032df 	stmdaeq	r0, {r0, r1, r2, r3, r4, r6, r7, r9, ip, sp}
 8000b78:	08000cea 	stmdaeq	r0, {r1, r3, r5, r6, r7, sl, fp}
 8000b7c:	08003a81 	stmdaeq	r0, {r0, r7, r9, fp, ip, sp}
 8000b80:	08003361 	stmdaeq	r0, {r0, r5, r6, r8, r9, ip, sp}
 8000b84:	08003459 	stmdaeq	r0, {r0, r3, r4, r6, sl, ip, sp}
 8000b88:	080035d5 	stmdaeq	r0, {r0, r2, r4, r6, r7, r8, sl, ip, sp}
 8000b8c:	08004c71 	stmdaeq	r0, {r0, r4, r5, r6, sl, fp, lr}
 8000b90:	08003469 	stmdaeq	r0, {r0, r3, r5, r6, sl, ip, sp}
 8000b94:	0800331f 	stmdaeq	r0, {r0, r1, r2, r3, r4, r8, r9, ip, sp}
 8000b98:	08000bac 	stmdaeq	r0, {r2, r3, r5, r7, r8, r9, fp}
 8000b9c:	08003459 	stmdaeq	r0, {r0, r3, r4, r6, sl, ip, sp}
 8000ba0:	080032f5 	stmdaeq	r0, {r0, r2, r4, r5, r6, r7, r9, ip, sp}
 8000ba4:	08003347 	stmdaeq	r0, {r0, r1, r2, r6, r8, r9, ip, sp}
 8000ba8:	08000bb4 	stmdaeq	r0, {r2, r4, r5, r7, r8, r9, fp}
 8000bac:	08003479 	stmdaeq	r0, {r0, r3, r4, r5, r6, sl, ip, sp}
 8000bb0:	08003459 	stmdaeq	r0, {r0, r3, r4, r6, sl, ip, sp}
 8000bb4:	080033a1 	stmdaeq	r0, {r0, r5, r7, r8, r9, ip, sp}
 8000bb8:	08003a81 	stmdaeq	r0, {r0, r7, r9, fp, ip, sp}
 8000bbc:	08003361 	stmdaeq	r0, {r0, r5, r6, r8, r9, ip, sp}
 8000bc0:	080030bb 	stmdaeq	r0, {r0, r1, r3, r4, r5, r7, ip, sp}
 8000bc4:	00000000 	andeq	r0, r0, r0

08000bc8 <_CNTDSTR>:
 8000bc8:	4f432f0f 	svcmi	0x00432f0f
 8000bcc:	45544e55 	ldrbmi	r4, [r4, #-3669]	; 0xfffff1ab
 8000bd0:	54532d44 	ldrbpl	r2, [r3], #-3396	; 0xfffff2bc
 8000bd4:	474e4952 	smlsldmi	r4, lr, r2, r9

08000bd8 <CNTDSTR>:
 8000bd8:	f847 6d04 	str.w	r6, [r7, #-4]!
 8000bdc:	f04f 06ff 	mov.w	r6, #255	; 0xff
 8000be0:	e08e      	b.n	8000d00 <flag_true>
 8000be2:	08000bc8 	stmdaeq	r0, {r3, r6, r7, r8, r9, fp}

08000be6 <_SLHOLD>:
 8000be6:	4f482f05 	svcmi	0x00482f05
 8000bea:	 			; <UNDEFINED> instruction: 0xf847444c

08000bec <SLHOLD>:
 8000bec:	f847 6d04 	str.w	r6, [r7, #-4]!
 8000bf0:	f04f 0650 	mov.w	r6, #80	; 0x50
 8000bf4:	e084      	b.n	8000d00 <flag_true>
 8000bf6:	08000be6 	stmdaeq	r0, {r1, r2, r5, r6, r7, r8, r9, fp}

08000bfa <_SLPAD>:
 8000bfa:	41502f04 	cmpmi	r0, r4, lsl #30
 8000bfe:	 			; <UNDEFINED> instruction: 0xf8470044

08000c00 <SLPAD>:
 8000c00:	f847 6d04 	str.w	r6, [r7, #-4]!
 8000c04:	f04f 0650 	mov.w	r6, #80	; 0x50
 8000c08:	e07a      	b.n	8000d00 <flag_true>
 8000c0a:	08000bfa 	stmdaeq	r0, {r1, r3, r4, r5, r6, r7, r8, r9, fp}

08000c0e <_ADRBITS>:
 8000c0e:	44444111 	strbmi	r4, [r4], #-273	; 0xfffffeef
 8000c12:	53534552 	cmppl	r3, #343932928	; 0x14800000
 8000c16:	494e552d 	stmdbmi	lr, {r0, r2, r3, r5, r8, sl, ip, lr}^
 8000c1a:	49422d54 	stmdbmi	r2, {r2, r4, r6, r8, sl, fp, sp}^
 8000c1e:	 			; <UNDEFINED> instruction: 0xf8475354

08000c20 <ADRBITS>:
 8000c20:	f847 6d04 	str.w	r6, [r7, #-4]!
 8000c24:	f04f 0620 	mov.w	r6, #32
 8000c28:	e06a      	b.n	8000d00 <flag_true>
 8000c2a:	08000c0e 	stmdaeq	r0, {r1, r2, r3, sl, fp}

08000c2e <_FLOORED>:
 8000c2e:	4f4c4607 	svcmi	0x004c4607
 8000c32:	4445524f 	strbmi	r5, [r5], #-591	; 0xfffffdb1
 8000c36:	bf00      	nop

08000c38 <FLOORED>:
 8000c38:	e062      	b.n	8000d00 <flag_true>
 8000c3a:	08000c2e 	stmdaeq	r0, {r1, r2, r3, r5, sl, fp}

08000c3e <_MAXCHAR>:
 8000c3e:	58414d08 	stmdapl	r1, {r3, r8, sl, fp, lr}^
 8000c42:	4148432d 	cmpmi	r8, sp, lsr #6
 8000c46:	 			; <UNDEFINED> instruction: 0xf8470052

08000c48 <MAXCHAR>:
 8000c48:	f847 6d04 	str.w	r6, [r7, #-4]!
 8000c4c:	f04f 067f 	mov.w	r6, #127	; 0x7f
 8000c50:	e056      	b.n	8000d00 <flag_true>
 8000c52:	08000c3e 	stmdaeq	r0, {r1, r2, r3, r4, r5, sl, fp}

08000c56 <_MAXD>:
 8000c56:	58414d05 	stmdapl	r1, {r0, r2, r8, sl, fp, lr}^
 8000c5a:	 			; <UNDEFINED> instruction: 0xf847442d

08000c5c <MAXD>:
 8000c5c:	f847 6d04 	str.w	r6, [r7, #-4]!
 8000c60:	f64f 76ff 	movw	r6, #65535	; 0xffff
 8000c64:	f6cf 76ff 	movt	r6, #65535	; 0xffff
 8000c68:	f847 6d04 	str.w	r6, [r7, #-4]!
 8000c6c:	f64f 76ff 	movw	r6, #65535	; 0xffff
 8000c70:	f6c7 76ff 	movt	r6, #32767	; 0x7fff
 8000c74:	e044      	b.n	8000d00 <flag_true>
 8000c76:	08000c56 	stmdaeq	r0, {r1, r2, r4, r6, sl, fp}

08000c7a <_MAXN>:
 8000c7a:	58414d05 	stmdapl	r1, {r0, r2, r8, sl, fp, lr}^
 8000c7e:	 			; <UNDEFINED> instruction: 0xf8474e2d

08000c80 <MAXN>:
 8000c80:	f847 6d04 	str.w	r6, [r7, #-4]!
 8000c84:	f64f 76ff 	movw	r6, #65535	; 0xffff
 8000c88:	f6c7 76ff 	movt	r6, #32767	; 0x7fff
 8000c8c:	e038      	b.n	8000d00 <flag_true>
 8000c8e:	08000c7a 	stmdaeq	r0, {r1, r3, r4, r5, r6, sl, fp}

08000c92 <_MAXU>:
 8000c92:	58414d05 	stmdapl	r1, {r0, r2, r8, sl, fp, lr}^
 8000c96:	 			; <UNDEFINED> instruction: 0xf847552d

08000c98 <MAXU>:
 8000c98:	f847 6d04 	str.w	r6, [r7, #-4]!
 8000c9c:	f04f 36ff 	mov.w	r6, #4294967295	; 0xffffffff
 8000ca0:	e02e      	b.n	8000d00 <flag_true>
 8000ca2:	08000c92 	stmdaeq	r0, {r1, r4, r7, sl, fp}

08000ca6 <_MAXUD>:
 8000ca6:	58414d06 	stmdapl	r1, {r1, r2, r8, sl, fp, lr}^
 8000caa:	0044552d 	subeq	r5, r4, sp, lsr #10
 8000cae:	bf00      	nop

08000cb0 <MAXUD>:
 8000cb0:	f847 6d04 	str.w	r6, [r7, #-4]!
 8000cb4:	f04f 36ff 	mov.w	r6, #4294967295	; 0xffffffff
 8000cb8:	f847 6d04 	str.w	r6, [r7, #-4]!
 8000cbc:	f04f 36ff 	mov.w	r6, #4294967295	; 0xffffffff
 8000cc0:	e01e      	b.n	8000d00 <flag_true>
 8000cc2:	08000ca6 	stmdaeq	r0, {r1, r2, r5, r7, sl, fp}

08000cc6 <ENVLNK>:
 8000cc6:	54455212 	strbpl	r5, [r5], #-530	; 0xfffffdee
 8000cca:	2d4e5255 	sfmcs	f5, 2, [lr, #-340]	; 0xfffffeac
 8000cce:	43415453 	movtmi	r5, #5203	; 0x1453
 8000cd2:	45432d4b 	strbmi	r2, [r3, #-3403]	; 0xfffff2b5
 8000cd6:	00534c4c 	subseq	r4, r3, ip, asr #24
 8000cda:	bf00      	nop

08000cdc <RSTKCELLS>:
 8000cdc:	f847 6d04 	str.w	r6, [r7, #-4]!
 8000ce0:	f04f 0620 	mov.w	r6, #32
 8000ce4:	e00c      	b.n	8000d00 <flag_true>
 8000ce6:	08000cc6 	stmdaeq	r0, {r1, r2, r6, r7, sl, fp}

08000cea <ENVLINK>:
 8000cea:	4154530b 	cmpmi	r4, fp, lsl #6
 8000cee:	432d4b43 			; <UNDEFINED> instruction: 0x432d4b43
 8000cf2:	534c4c45 	movtpl	r4, #52293	; 0xcc45
 8000cf6:	bf00      	nop

08000cf8 <STKCELLS>:
 8000cf8:	f847 6d04 	str.w	r6, [r7, #-4]!
 8000cfc:	f04f 0620 	mov.w	r6, #32

08000d00 <flag_true>:
 8000d00:	f847 6d04 	str.w	r6, [r7, #-4]!
 8000d04:	f04f 36ff 	mov.w	r6, #4294967295	; 0xffffffff
 8000d08:	f002 b9d4 	b.w	80030b4 <INEXT>

08000d0c <uart_rx_handler>:
 8000d0c:	f44f 5380 	mov.w	r3, #4096	; 0x1000
 8000d10:	f2c4 0301 	movt	r3, #16385	; 0x4001
 8000d14:	6818      	ldr	r0, [r3, #0]
 8000d16:	6859      	ldr	r1, [r3, #4]
 8000d18:	f010 0f20 	tst.w	r0, #32
 8000d1c:	d00c      	beq.n	8000d38 <uart_rx_handler+0x2c>
 8000d1e:	f1b1 0f03 	cmp.w	r1, #3
 8000d22:	f43f acb8 	beq.w	8000696 <user_reboot>
 8000d26:	f104 0054 	add.w	r0, r4, #84	; 0x54
 8000d2a:	6ea2      	ldr	r2, [r4, #104]	; 0x68
 8000d2c:	5481      	strb	r1, [r0, r2]
 8000d2e:	f102 0201 	add.w	r2, r2, #1
 8000d32:	f002 020f 	and.w	r2, r2, #15
 8000d36:	66a2      	str	r2, [r4, #104]	; 0x68
 8000d38:	4770      	bx	lr

08000d3a <ser_init>:
 8000d3a:	f04f 0000 	mov.w	r0, #0
 8000d3e:	f2c4 0002 	movt	r0, #16386	; 0x4002
 8000d42:	6801      	ldr	r1, [r0, #0]
 8000d44:	f46f 1270 	mvn.w	r2, #3932160	; 0x3c0000
 8000d48:	ea01 0102 	and.w	r1, r1, r2
 8000d4c:	f44f 1220 	mov.w	r2, #2621440	; 0x280000
 8000d50:	ea41 0102 	orr.w	r1, r1, r2
 8000d54:	6001      	str	r1, [r0, #0]
 8000d56:	f44f 61ee 	mov.w	r1, #1904	; 0x770
 8000d5a:	6241      	str	r1, [r0, #36]	; 0x24
 8000d5c:	f44f 5080 	mov.w	r0, #4096	; 0x1000
 8000d60:	f2c4 0001 	movt	r0, #16385	; 0x4001
 8000d64:	f240 3141 	movw	r1, #833	; 0x341
 8000d68:	6081      	str	r1, [r0, #8]
 8000d6a:	f242 012c 	movw	r1, #8236	; 0x202c
 8000d6e:	60c1      	str	r1, [r0, #12]
 8000d70:	f04f 0025 	mov.w	r0, #37	; 0x25
 8000d74:	f04f 0107 	mov.w	r1, #7
 8000d78:	b500      	push	{lr}
 8000d7a:	f7ff fdb5 	bl	80008e8 <nvic_set_priority>
 8000d7e:	f85d eb04 	ldr.w	lr, [sp], #4
 8000d82:	f04f 0025 	mov.w	r0, #37	; 0x25
 8000d86:	b500      	push	{lr}
 8000d88:	f7ff fdc7 	bl	800091a <nvic_enable_irq>
 8000d8c:	f85d eb04 	ldr.w	lr, [sp], #4
 8000d90:	4770      	bx	lr
 8000d92:	08000b54 	stmdaeq	r0, {r2, r4, r6, r8, r9, fp}

08000d96 <_SER_QKEY>:
 8000d96:	52455308 	subpl	r5, r5, #8, 6	; 0x20000000
 8000d9a:	59454b2d 	stmdbpl	r5, {r0, r2, r3, r5, r8, r9, fp, lr}^
 8000d9e:	 			; <UNDEFINED> instruction: 0xf847003f

08000da0 <SER_QKEY>:
 8000da0:	f847 6d04 	str.w	r6, [r7, #-4]!
 8000da4:	6ea0      	ldr	r0, [r4, #104]	; 0x68
 8000da6:	6e61      	ldr	r1, [r4, #100]	; 0x64
 8000da8:	ea90 0601 	eors.w	r6, r0, r1
 8000dac:	d00c      	beq.n	8000dc8 <SER_QKEY+0x28>
 8000dae:	f104 0054 	add.w	r0, r4, #84	; 0x54
 8000db2:	4408      	add	r0, r1
 8000db4:	7806      	ldrb	r6, [r0, #0]
 8000db6:	f101 0101 	add.w	r1, r1, #1
 8000dba:	f001 010f 	and.w	r1, r1, #15
 8000dbe:	6661      	str	r1, [r4, #100]	; 0x64
 8000dc0:	f847 6d04 	str.w	r6, [r7, #-4]!
 8000dc4:	f04f 36ff 	mov.w	r6, #4294967295	; 0xffffffff
 8000dc8:	f002 b974 	b.w	80030b4 <INEXT>
 8000dcc:	08000d96 	stmdaeq	r0, {r1, r2, r4, r7, r8, sl, fp}

08000dd0 <_SER_EMIT>:
 8000dd0:	52455308 	subpl	r5, r5, #8, 6	; 0x20000000
 8000dd4:	494d452d 	stmdbmi	sp, {r0, r2, r3, r5, r8, sl, lr}^
 8000dd8:	bf000054 	svclt	0x00000054

08000ddc <SER_EMIT>:
 8000ddc:	f44f 5580 	mov.w	r5, #4096	; 0x1000
 8000de0:	f2c4 0501 	movt	r5, #16385	; 0x4001
 8000de4:	6828      	ldr	r0, [r5, #0]
 8000de6:	f010 0f80 	tst.w	r0, #128	; 0x80
 8000dea:	d0fb      	beq.n	8000de4 <SER_EMIT+0x8>
 8000dec:	712e      	strb	r6, [r5, #4]
 8000dee:	f857 6b04 	ldr.w	r6, [r7], #4
 8000df2:	f002 b95f 	b.w	80030b4 <INEXT>
 8000df6:	08000dd0 	stmdaeq	r0, {r4, r6, r7, r8, sl, fp}

08000dfa <_LOCAL>:
 8000dfa:	434f4c05 	movtmi	r4, #64517	; 0xfc05
 8000dfe:	 			; <UNDEFINED> instruction: 0xf8474c41

08000e00 <LOCAL>:
 8000e00:	f847 6d04 	str.w	r6, [r7, #-4]!
 8000e04:	f04f 0600 	mov.w	r6, #0
 8000e08:	f002 b954 	b.w	80030b4 <INEXT>
 8000e0c:	08000dfa 	stmdaeq	r0, {r1, r3, r4, r5, r6, r7, r8, sl, fp}

08000e10 <_SERIAL>:
 8000e10:	52455306 	subpl	r5, r5, #402653184	; 0x18000000
 8000e14:	004c4149 	subeq	r4, ip, r9, asr #2

08000e18 <SERIAL>:
 8000e18:	f847 6d04 	str.w	r6, [r7, #-4]!
 8000e1c:	f04f 0601 	mov.w	r6, #1
 8000e20:	f002 b948 	b.w	80030b4 <INEXT>
 8000e24:	08000e10 	stmdaeq	r0, {r4, r9, sl, fp}

08000e28 <_CONSOLE>:
 8000e28:	4e4f4307 	cdpmi	3, 4, cr4, cr15, cr7, {0}
 8000e2c:	454c4f53 	strbmi	r4, [ip, #-3923]	; 0xfffff0ad

08000e30 <CONSOLE>:
 8000e30:	4630      	mov	r0, r6
 8000e32:	f857 6b04 	ldr.w	r6, [r7], #4
 8000e36:	b128      	cbz	r0, 8000e44 <CONSOLE+0x14>
 8000e38:	484b      	ldr	r0, [pc, #300]	; (8000f68 <SER_CLS+0x28>)
 8000e3a:	6160      	str	r0, [r4, #20]
 8000e3c:	484b      	ldr	r0, [pc, #300]	; (8000f6c <SER_CLS+0x2c>)
 8000e3e:	61a0      	str	r0, [r4, #24]
 8000e40:	f002 b938 	b.w	80030b4 <INEXT>
 8000e44:	484a      	ldr	r0, [pc, #296]	; (8000f70 <SER_CLS+0x30>)
 8000e46:	6160      	str	r0, [r4, #20]
 8000e48:	484a      	ldr	r0, [pc, #296]	; (8000f74 <SER_CLS+0x34>)
 8000e4a:	61a0      	str	r0, [r4, #24]
 8000e4c:	f002 b932 	b.w	80030b4 <INEXT>
 8000e50:	08000e28 	stmdaeq	r0, {r3, r5, r9, sl, fp}

08000e54 <_ANSI_PARAM>:
 8000e54:	534e410a 	movtpl	r4, #57610	; 0xe10a
 8000e58:	41502d49 	cmpmi	r0, r9, asr #26
 8000e5c:	004d4152 	subeq	r4, sp, r2, asr r1

08000e60 <ANSI_PARAM>:
 8000e60:	4750      	bx	sl
 8000e62:	bf00      	nop
 8000e64:	080032df 	stmdaeq	r0, {r0, r1, r2, r3, r4, r6, r7, r9, ip, sp}
 8000e68:	ffffffff 			; <UNDEFINED> instruction: 0xffffffff
 8000e6c:	080035c5 	stmdaeq	r0, {r0, r2, r6, r7, r8, sl, ip, sp}
 8000e70:	080033e5 	stmdaeq	r0, {r0, r2, r5, r6, r7, r8, r9, ip, sp}
 8000e74:	080032df 	stmdaeq	r0, {r0, r1, r2, r3, r4, r6, r7, r9, ip, sp}
 8000e78:	0000000a 	andeq	r0, r0, sl
 8000e7c:	08003e09 	stmdaeq	r0, {r0, r3, r9, sl, fp, ip, sp}
 8000e80:	08003679 	stmdaeq	r0, {r0, r3, r4, r5, r6, r9, sl, ip, sp}
 8000e84:	0800331f 	stmdaeq	r0, {r0, r1, r2, r3, r4, r8, r9, ip, sp}
 8000e88:	08000e98 	stmdaeq	r0, {r3, r4, r7, r9, sl, fp}
 8000e8c:	080033a1 	stmdaeq	r0, {r0, r5, r7, r8, r9, ip, sp}
 8000e90:	08003347 	stmdaeq	r0, {r0, r1, r2, r6, r8, r9, ip, sp}
 8000e94:	08000e6c 	stmdaeq	r0, {r2, r3, r5, r6, r9, sl, fp}
 8000e98:	080032df 	stmdaeq	r0, {r0, r1, r2, r3, r4, r6, r7, r9, ip, sp}
 8000e9c:	00000030 	andeq	r0, r0, r0, lsr r0
 8000ea0:	08003569 	stmdaeq	r0, {r0, r3, r5, r6, r8, sl, ip, sp}
 8000ea4:	0800317d 	stmdaeq	r0, {r0, r2, r3, r4, r5, r6, r8, ip, sp}
 8000ea8:	080033a1 	stmdaeq	r0, {r0, r5, r7, r8, r9, ip, sp}
 8000eac:	08003679 	stmdaeq	r0, {r0, r3, r4, r5, r6, r9, sl, ip, sp}
 8000eb0:	0800331f 	stmdaeq	r0, {r0, r1, r2, r3, r4, r8, r9, ip, sp}
 8000eb4:	08000ec8 	stmdaeq	r0, {r3, r6, r7, r9, sl, fp}
 8000eb8:	080035d5 	stmdaeq	r0, {r0, r2, r4, r6, r7, r8, sl, ip, sp}
 8000ebc:	080033e5 	stmdaeq	r0, {r0, r2, r5, r6, r7, r8, r9, ip, sp}
 8000ec0:	08003347 	stmdaeq	r0, {r0, r1, r2, r6, r8, r9, ip, sp}
 8000ec4:	08000e98 	stmdaeq	r0, {r3, r4, r7, r9, sl, fp}
 8000ec8:	080030bb 	stmdaeq	r0, {r0, r1, r3, r4, r5, r7, ip, sp}
 8000ecc:	08000e54 	stmdaeq	r0, {r2, r4, r6, r9, sl, fp}

08000ed0 <_ANSI_ESC>:
 8000ed0:	43534504 	cmpmi	r3, #4, 10	; 0x1000000
 8000ed4:	bf00005b 	svclt	0x0000005b

08000ed8 <ANSI_ESC>:
 8000ed8:	4750      	bx	sl
 8000eda:	bf00      	nop
 8000edc:	080032df 	stmdaeq	r0, {r0, r1, r2, r3, r4, r6, r7, r9, ip, sp}
 8000ee0:	0000001b 	andeq	r0, r0, fp, lsl r0
 8000ee4:	0800317d 	stmdaeq	r0, {r0, r2, r3, r4, r5, r6, r8, ip, sp}
 8000ee8:	080032df 	stmdaeq	r0, {r0, r1, r2, r3, r4, r6, r7, r9, ip, sp}
 8000eec:	0000005b 	andeq	r0, r0, fp, asr r0
 8000ef0:	0800317d 	stmdaeq	r0, {r0, r2, r3, r4, r5, r6, r8, ip, sp}
 8000ef4:	080030bb 	stmdaeq	r0, {r0, r1, r3, r4, r5, r7, ip, sp}
 8000ef8:	08000ed0 	stmdaeq	r0, {r4, r6, r7, r9, sl, fp}

08000efc <_SER_AT>:
 8000efc:	52455306 	subpl	r5, r5, #402653184	; 0x18000000
 8000f00:	0054412d 	subseq	r4, r4, sp, lsr #2

08000f04 <SER_AT>:
 8000f04:	4750      	bx	sl
 8000f06:	bf00      	nop
 8000f08:	08000ed9 	stmdaeq	r0, {r0, r3, r4, r6, r7, r9, sl, fp}
 8000f0c:	08003479 	stmdaeq	r0, {r0, r3, r4, r5, r6, sl, ip, sp}
 8000f10:	08000e61 	stmdaeq	r0, {r0, r5, r6, r9, sl, fp}
 8000f14:	080032df 	stmdaeq	r0, {r0, r1, r2, r3, r4, r6, r7, r9, ip, sp}
 8000f18:	0000003b 	andeq	r0, r0, fp, lsr r0
 8000f1c:	0800317d 	stmdaeq	r0, {r0, r2, r3, r4, r5, r6, r8, ip, sp}
 8000f20:	08000e61 	stmdaeq	r0, {r0, r5, r6, r9, sl, fp}
 8000f24:	080032df 	stmdaeq	r0, {r0, r1, r2, r3, r4, r6, r7, r9, ip, sp}
 8000f28:	00000048 	andeq	r0, r0, r8, asr #32
 8000f2c:	0800317d 	stmdaeq	r0, {r0, r2, r3, r4, r5, r6, r8, ip, sp}
 8000f30:	080030bb 	stmdaeq	r0, {r0, r1, r3, r4, r5, r7, ip, sp}
 8000f34:	08000efc 	stmdaeq	r0, {r2, r3, r4, r5, r6, r7, r9, sl, fp}

08000f38 <_SER_CLS>:
 8000f38:	52455307 	subpl	r5, r5, #469762048	; 0x1c000000
 8000f3c:	534c432d 	movtpl	r4, #49965	; 0xc32d

08000f40 <SER_CLS>:
 8000f40:	4750      	bx	sl
 8000f42:	bf00      	nop
 8000f44:	080032df 	stmdaeq	r0, {r0, r1, r2, r3, r4, r6, r7, r9, ip, sp}
 8000f48:	00000001 	andeq	r0, r0, r1
 8000f4c:	08003469 	stmdaeq	r0, {r0, r3, r5, r6, sl, ip, sp}
 8000f50:	08000f05 	stmdaeq	r0, {r0, r2, r8, r9, sl, fp}
 8000f54:	08000ed9 	stmdaeq	r0, {r0, r3, r4, r6, r7, r9, sl, fp}
 8000f58:	080032df 	stmdaeq	r0, {r0, r1, r2, r3, r4, r6, r7, r9, ip, sp}
 8000f5c:	0000004a 	andeq	r0, r0, sl, asr #32
 8000f60:	0800317d 	stmdaeq	r0, {r0, r2, r3, r4, r5, r6, r8, ip, sp}
 8000f64:	080030bb 	stmdaeq	r0, {r0, r1, r3, r4, r5, r7, ip, sp}
 8000f68:	08000da0 	stmdaeq	r0, {r5, r7, r8, sl, fp}
 8000f6c:	08000ddc 	stmdaeq	r0, {r2, r3, r4, r6, r7, r8, sl, fp}
 8000f70:	08001c20 	stmdaeq	r0, {r5, sl, fp, ip}
 8000f74:	080014e8 	stmdaeq	r0, {r3, r5, r6, r7, sl, ip}

08000f78 <tv_init>:
 8000f78:	f44f 6080 	mov.w	r0, #1024	; 0x400
 8000f7c:	f2c4 0002 	movt	r0, #16386	; 0x4002
 8000f80:	6801      	ldr	r1, [r0, #0]
 8000f82:	f04f 0200 	mov.w	r2, #0
 8000f86:	f2c5 5200 	movt	r2, #21760	; 0x5500
 8000f8a:	ea41 0102 	orr.w	r1, r1, r2
 8000f8e:	6001      	str	r1, [r0, #0]
 8000f90:	ea81 0101 	eor.w	r1, r1, r1
 8000f94:	6141      	str	r1, [r0, #20]
 8000f96:	f04f 0101 	mov.w	r1, #1
 8000f9a:	f04f 0202 	mov.w	r2, #2
 8000f9e:	b500      	push	{lr}
 8000fa0:	f7ff fcfe 	bl	80009a0 <gpio_config>
 8000fa4:	f85d eb04 	ldr.w	lr, [sp], #4
 8000fa8:	f04f 0101 	mov.w	r1, #1
 8000fac:	f04f 0202 	mov.w	r2, #2
 8000fb0:	b500      	push	{lr}
 8000fb2:	f7ff fd34 	bl	8000a1e <gpio_speed>
 8000fb6:	f85d eb04 	ldr.w	lr, [sp], #4
 8000fba:	6a01      	ldr	r1, [r0, #32]
 8000fbc:	f041 0120 	orr.w	r1, r1, #32
 8000fc0:	6201      	str	r1, [r0, #32]
 8000fc2:	f44f 5260 	mov.w	r2, #14336	; 0x3800
 8000fc6:	f2c4 0202 	movt	r2, #16386	; 0x4002
 8000fca:	f04f 0002 	mov.w	r0, #2
 8000fce:	6c11      	ldr	r1, [r2, #64]	; 0x40
 8000fd0:	ea41 0100 	orr.w	r1, r1, r0
 8000fd4:	6411      	str	r1, [r2, #64]	; 0x40
 8000fd6:	f44f 6280 	mov.w	r2, #1024	; 0x400
 8000fda:	f2c4 0200 	movt	r2, #16384	; 0x4000
 8000fde:	f241 70d4 	movw	r0, #6100	; 0x17d4
 8000fe2:	62d0      	str	r0, [r2, #44]	; 0x2c
 8000fe4:	f240 503f 	movw	r0, #1343	; 0x53f
 8000fe8:	63d0      	str	r0, [r2, #60]	; 0x3c
 8000fea:	f44f 70e1 	mov.w	r0, #450	; 0x1c2
 8000fee:	6410      	str	r0, [r2, #64]	; 0x40
 8000ff0:	f247 0070 	movw	r0, #28784	; 0x7070
 8000ff4:	61d0      	str	r0, [r2, #28]
 8000ff6:	f44f 5088 	mov.w	r0, #4352	; 0x1100
 8000ffa:	6210      	str	r0, [r2, #32]
 8000ffc:	f04f 0001 	mov.w	r0, #1
 8001000:	60d0      	str	r0, [r2, #12]
 8001002:	6010      	str	r0, [r2, #0]
 8001004:	f04f 001d 	mov.w	r0, #29
 8001008:	f04f 0102 	mov.w	r1, #2
 800100c:	b500      	push	{lr}
 800100e:	f7ff fc6b 	bl	80008e8 <nvic_set_priority>
 8001012:	f85d eb04 	ldr.w	lr, [sp], #4
 8001016:	f04f 001d 	mov.w	r0, #29
 800101a:	b500      	push	{lr}
 800101c:	f7ff fc7d 	bl	800091a <nvic_enable_irq>
 8001020:	f85d eb04 	ldr.w	lr, [sp], #4
 8001024:	4770      	bx	lr
 8001026:	bf00      	nop

08001028 <tv_out_isr>:
 8001028:	f44f 6080 	mov.w	r0, #1024	; 0x400
 800102c:	f2c4 0000 	movt	r0, #16384	; 0x4000
 8001030:	ea81 0101 	eor.w	r1, r1, r1
 8001034:	6101      	str	r1, [r0, #16]
 8001036:	6ee1      	ldr	r1, [r4, #108]	; 0x6c
 8001038:	f101 0101 	add.w	r1, r1, #1
 800103c:	66e1      	str	r1, [r4, #108]	; 0x6c
 800103e:	6f22      	ldr	r2, [r4, #112]	; 0x70
 8001040:	2a00      	cmp	r2, #0
 8001042:	d007      	beq.n	8001054 <state_vsync>
 8001044:	2a01      	cmp	r2, #1
 8001046:	d02f      	beq.n	80010a8 <state_pre_video>
 8001048:	2a02      	cmp	r2, #2
 800104a:	d036      	beq.n	80010ba <state_video_out>
 800104c:	2a03      	cmp	r2, #3
 800104e:	d063      	beq.n	8001118 <state_post_video>
 8001050:	f7ff b8d6 	b.w	8000200 <default_handler>

08001054 <state_vsync>:
 8001054:	2901      	cmp	r1, #1
 8001056:	d106      	bne.n	8001066 <state_vsync+0x12>
 8001058:	f04f 01db 	mov.w	r1, #219	; 0xdb
 800105c:	6401      	str	r1, [r0, #64]	; 0x40
 800105e:	f640 31e9 	movw	r1, #3049	; 0xbe9
 8001062:	62c1      	str	r1, [r0, #44]	; 0x2c
 8001064:	e06b      	b.n	800113e <tv_isr_exit>
 8001066:	2907      	cmp	r1, #7
 8001068:	d103      	bne.n	8001072 <state_vsync+0x1e>
 800106a:	f640 2128 	movw	r1, #2600	; 0xa28
 800106e:	6401      	str	r1, [r0, #64]	; 0x40
 8001070:	e065      	b.n	800113e <tv_isr_exit>
 8001072:	290d      	cmp	r1, #13
 8001074:	d103      	bne.n	800107e <state_vsync+0x2a>
 8001076:	f04f 01db 	mov.w	r1, #219	; 0xdb
 800107a:	6401      	str	r1, [r0, #64]	; 0x40
 800107c:	e05f      	b.n	800113e <tv_isr_exit>
 800107e:	2912      	cmp	r1, #18
 8001080:	d103      	bne.n	800108a <state_vsync+0x36>
 8001082:	6f61      	ldr	r1, [r4, #116]	; 0x74
 8001084:	2900      	cmp	r1, #0
 8001086:	d05a      	beq.n	800113e <tv_isr_exit>
 8001088:	e001      	b.n	800108e <sync_end>
 800108a:	2913      	cmp	r1, #19
 800108c:	d157      	bne.n	800113e <tv_isr_exit>

0800108e <sync_end>:
 800108e:	f04f 0109 	mov.w	r1, #9
 8001092:	66e1      	str	r1, [r4, #108]	; 0x6c
 8001094:	f44f 71e1 	mov.w	r1, #450	; 0x1c2
 8001098:	6401      	str	r1, [r0, #64]	; 0x40
 800109a:	f241 71d4 	movw	r1, #6100	; 0x17d4
 800109e:	62c1      	str	r1, [r0, #44]	; 0x2c
 80010a0:	f04f 0101 	mov.w	r1, #1
 80010a4:	6721      	str	r1, [r4, #112]	; 0x70
 80010a6:	e04a      	b.n	800113e <tv_isr_exit>

080010a8 <state_pre_video>:
 80010a8:	2928      	cmp	r1, #40	; 0x28
 80010aa:	d448      	bmi.n	800113e <tv_isr_exit>
 80010ac:	f04f 0102 	mov.w	r1, #2
 80010b0:	6721      	str	r1, [r4, #112]	; 0x70
 80010b2:	f04f 0108 	mov.w	r1, #8
 80010b6:	60c1      	str	r1, [r0, #12]
 80010b8:	e041      	b.n	800113e <tv_isr_exit>

080010ba <state_video_out>:
 80010ba:	29f0      	cmp	r1, #240	; 0xf0
 80010bc:	d906      	bls.n	80010cc <state_video_out+0x12>
 80010be:	f04f 0103 	mov.w	r1, #3
 80010c2:	6721      	str	r1, [r4, #112]	; 0x70
 80010c4:	f04f 0101 	mov.w	r1, #1
 80010c8:	60c1      	str	r1, [r0, #12]
 80010ca:	e038      	b.n	800113e <tv_isr_exit>
 80010cc:	6fa0      	ldr	r0, [r4, #120]	; 0x78
 80010ce:	f1a1 0129 	sub.w	r1, r1, #41	; 0x29
 80010d2:	f04f 03a0 	mov.w	r3, #160	; 0xa0
 80010d6:	fb03 f101 	mul.w	r1, r3, r1
 80010da:	4408      	add	r0, r1
 80010dc:	f44f 6180 	mov.w	r1, #1024	; 0x400
 80010e0:	f2c4 0102 	movt	r1, #16386	; 0x4002
 80010e4:	f810 2b01 	ldrb.w	r2, [r0], #1
 80010e8:	ea4f 2202 	mov.w	r2, r2, lsl #8
 80010ec:	828a      	strh	r2, [r1, #20]
 80010ee:	f3af 8000 	nop.w
 80010f2:	f3af 8000 	nop.w
 80010f6:	f3af 8000 	nop.w
 80010fa:	f3af 8000 	nop.w
 80010fe:	ea4f 1202 	mov.w	r2, r2, lsl #4
 8001102:	828a      	strh	r2, [r1, #20]
 8001104:	f3af 8000 	nop.w
 8001108:	f3af 8000 	nop.w
 800110c:	3b01      	subs	r3, #1
 800110e:	d1e9      	bne.n	80010e4 <state_video_out+0x2a>
 8001110:	f44f 2270 	mov.w	r2, #983040	; 0xf0000
 8001114:	618a      	str	r2, [r1, #24]
 8001116:	e012      	b.n	800113e <tv_isr_exit>

08001118 <state_post_video>:
 8001118:	f44f 7283 	mov.w	r2, #262	; 0x106
 800111c:	4291      	cmp	r1, r2
 800111e:	d40e      	bmi.n	800113e <tv_isr_exit>
 8001120:	6f61      	ldr	r1, [r4, #116]	; 0x74
 8001122:	b911      	cbnz	r1, 800112a <frame_end>
 8001124:	f640 31e9 	movw	r1, #3049	; 0xbe9
 8001128:	62c1      	str	r1, [r0, #44]	; 0x2c

0800112a <frame_end>:
 800112a:	f04f 0100 	mov.w	r1, #0
 800112e:	6721      	str	r1, [r4, #112]	; 0x70
 8001130:	ea81 0101 	eor.w	r1, r1, r1
 8001134:	66e1      	str	r1, [r4, #108]	; 0x6c
 8001136:	6f61      	ldr	r1, [r4, #116]	; 0x74
 8001138:	ea6f 0101 	mvn.w	r1, r1
 800113c:	6761      	str	r1, [r4, #116]	; 0x74

0800113e <tv_isr_exit>:
 800113e:	4770      	bx	lr
 8001140:	08000f38 	stmdaeq	r0, {r3, r4, r5, r8, r9, sl, fp}

08001144 <_BACKCOLOR>:
 8001144:	4341420a 	movtmi	r4, #4618	; 0x120a
 8001148:	4f432d4b 	svcmi	0x00432d4b
 800114c:	00524f4c 	subseq	r4, r2, ip, asr #30

08001150 <BACKCOLOR>:
 8001150:	f847 6d04 	str.w	r6, [r7, #-4]!
 8001154:	f104 06a0 	add.w	r6, r4, #160	; 0xa0
 8001158:	f001 bfac 	b.w	80030b4 <INEXT>
 800115c:	08001144 	stmdaeq	r0, {r2, r6, r8, ip}

08001160 <_PENCOLOR>:
 8001160:	4e455009 	cdpmi	0, 4, cr5, cr5, cr9, {0}
 8001164:	4c4f432d 	mcrrmi	3, 2, r4, pc, cr13
 8001168:	bf00524f 	svclt	0x0000524f

0800116c <PENCOLOR>:
 800116c:	f847 6d04 	str.w	r6, [r7, #-4]!
 8001170:	f104 06a4 	add.w	r6, r4, #164	; 0xa4
 8001174:	f001 bf9e 	b.w	80030b4 <INEXT>
 8001178:	08001160 	stmdaeq	r0, {r5, r6, r8, ip}

0800117c <_CURSOR_COL>:
 800117c:	4c4f4306 	mcrrmi	3, 0, r4, pc, cr6
 8001180:	004e4d55 	subeq	r4, lr, r5, asr sp

08001184 <CURSOR_COL>:
 8001184:	f847 6d04 	str.w	r6, [r7, #-4]!
 8001188:	f104 069c 	add.w	r6, r4, #156	; 0x9c
 800118c:	f001 bf92 	b.w	80030b4 <INEXT>
 8001190:	0800117c 	stmdaeq	r0, {r2, r3, r4, r5, r6, r8, ip}

08001194 <_CURSOR_ROW>:
 8001194:	574f5203 	strbpl	r5, [pc, -r3, lsl #4]

08001198 <CURSOR_ROW>:
 8001198:	f847 6d04 	str.w	r6, [r7, #-4]!
 800119c:	f104 0698 	add.w	r6, r4, #152	; 0x98
 80011a0:	f001 bf88 	b.w	80030b4 <INEXT>
 80011a4:	08001194 	stmdaeq	r0, {r2, r4, r7, r8, ip}

080011a8 <_ROWY>:
 80011a8:	574f5205 	strbpl	r5, [pc, -r5, lsl #4]
 80011ac:	bf00593e 	svclt	0x0000593e

080011b0 <ROWY>:
 80011b0:	f04f 0008 	mov.w	r0, #8
 80011b4:	fb00 f606 	mul.w	r6, r0, r6
 80011b8:	f001 bf7c 	b.w	80030b4 <INEXT>
 80011bc:	080011a8 	stmdaeq	r0, {r3, r5, r7, r8, ip}

080011c0 <_COLX>:
 80011c0:	4c4f4305 	mcrrmi	3, 0, r4, pc, cr5
 80011c4:	bf00583e 	svclt	0x0000583e

080011c8 <COLX>:
 80011c8:	f04f 0006 	mov.w	r0, #6
 80011cc:	fb00 f606 	mul.w	r6, r0, r6
 80011d0:	f001 bf70 	b.w	80030b4 <INEXT>
 80011d4:	080011c0 	stmdaeq	r0, {r6, r7, r8, ip}

080011d8 <_FONT>:
 80011d8:	4e4f4604 	cdpmi	6, 4, cr4, cr15, cr4, {0}
 80011dc:	bf000054 	svclt	0x00000054

080011e0 <FONT>:
 80011e0:	f847 6d04 	str.w	r6, [r7, #-4]!
 80011e4:	f8df 658c 	ldr.w	r6, [pc, #1420]	; 8001774 <INPUT+0x30>
 80011e8:	f001 bf64 	b.w	80030b4 <INEXT>
 80011ec:	080011d8 	stmdaeq	r0, {r3, r4, r6, r7, r8, ip}

080011f0 <_VIDBUFF>:
 80011f0:	44495607 	strbmi	r5, [r9], #-1543	; 0xfffff9f9
 80011f4:	46465542 	strbmi	r5, [r6], -r2, asr #10

080011f8 <VIDBUFF>:
 80011f8:	f847 6d04 	str.w	r6, [r7, #-4]!
 80011fc:	6fa6      	ldr	r6, [r4, #120]	; 0x78
 80011fe:	f001 bf59 	b.w	80030b4 <INEXT>
 8001202:	080011f0 	stmdaeq	r0, {r4, r5, r6, r7, r8, ip}

08001206 <_PLOT>:
 8001206:	4f4c5004 	svcmi	0x004c5004
 800120a:	 	svcgt	0x00030054

0800120c <PLOT>:
 800120c:	cf03      	ldmia	r7!, {r0, r1}
 800120e:	f04f 02a0 	mov.w	r2, #160	; 0xa0
 8001212:	fb02 f000 	mul.w	r0, r2, r0
 8001216:	ea4f 0251 	mov.w	r2, r1, lsr #1
 800121a:	4410      	add	r0, r2
 800121c:	6fa3      	ldr	r3, [r4, #120]	; 0x78
 800121e:	4403      	add	r3, r0
 8001220:	781d      	ldrb	r5, [r3, #0]
 8001222:	f04f 020f 	mov.w	r2, #15
 8001226:	f011 0f01 	tst.w	r1, #1
 800122a:	d001      	beq.n	8001230 <PLOT+0x24>
 800122c:	ea4f 1202 	mov.w	r2, r2, lsl #4
 8001230:	f8df 0544 	ldr.w	r0, [pc, #1348]	; 8001778 <INPUT+0x34>
 8001234:	e8d0 f006 	tbb	[r0, r6]

08001238 <op_back>:
 8001238:	ea05 0502 	and.w	r5, r5, r2
 800123c:	f894 00a0 	ldrb.w	r0, [r4, #160]	; 0xa0
 8001240:	f011 0f01 	tst.w	r1, #1
 8001244:	d101      	bne.n	800124a <op_back+0x12>
 8001246:	ea4f 1000 	mov.w	r0, r0, lsl #4
 800124a:	ea45 0500 	orr.w	r5, r5, r0
 800124e:	701d      	strb	r5, [r3, #0]
 8001250:	e01a      	b.n	8001288 <op_xor+0x14>

08001252 <op_pen>:
 8001252:	ea05 0502 	and.w	r5, r5, r2
 8001256:	f894 00a4 	ldrb.w	r0, [r4, #164]	; 0xa4
 800125a:	f011 0f01 	tst.w	r1, #1
 800125e:	d101      	bne.n	8001264 <op_pen+0x12>
 8001260:	ea4f 1000 	mov.w	r0, r0, lsl #4
 8001264:	ea45 0500 	orr.w	r5, r5, r0
 8001268:	701d      	strb	r5, [r3, #0]
 800126a:	e00d      	b.n	8001288 <op_xor+0x14>

0800126c <op_invert>:
 800126c:	ea85 0502 	eor.w	r5, r5, r2
 8001270:	701d      	strb	r5, [r3, #0]
 8001272:	e009      	b.n	8001288 <op_xor+0x14>

08001274 <op_xor>:
 8001274:	f8d4 00a4 	ldr.w	r0, [r4, #164]	; 0xa4
 8001278:	f011 0f01 	tst.w	r1, #1
 800127c:	d101      	bne.n	8001282 <op_xor+0xe>
 800127e:	ea4f 1000 	mov.w	r0, r0, lsl #4
 8001282:	ea85 0500 	eor.w	r5, r5, r0
 8001286:	701d      	strb	r5, [r3, #0]
 8001288:	f857 6b04 	ldr.w	r6, [r7], #4
 800128c:	f001 bf12 	b.w	80030b4 <INEXT>

08001290 <plot_op>:
 8001290:	1e1a0d00 	cdpne	13, 1, cr0, cr10, cr0, {0}
 8001294:	08001206 	stmdaeq	r0, {r1, r2, r9, ip}

08001298 <_VSYNC>:
 8001298:	59535605 	ldmdbpl	r3, {r0, r2, r9, sl, ip, lr}^
 800129c:	bf00434e 	svclt	0x0000434e

080012a0 <VSYNC>:
 80012a0:	6ee0      	ldr	r0, [r4, #108]	; 0x6c
 80012a2:	2800      	cmp	r0, #0
 80012a4:	d1fc      	bne.n	80012a0 <VSYNC>
 80012a6:	f001 bf05 	b.w	80030b4 <INEXT>
 80012aa:	08001298 	stmdaeq	r0, {r3, r4, r7, r9, ip}

080012ae <_CLS>:
 80012ae:	534c4303 	movtpl	r4, #49923	; 0xc303
 80012b2:	bf00      	nop

080012b4 <CLS>:
 80012b4:	ea80 0000 	eor.w	r0, r0, r0
 80012b8:	f894 10a0 	ldrb.w	r1, [r4, #160]	; 0xa0
 80012bc:	ea40 0001 	orr.w	r0, r0, r1
 80012c0:	ea4f 1101 	mov.w	r1, r1, lsl #4
 80012c4:	ea40 0001 	orr.w	r0, r0, r1
 80012c8:	ea4f 2100 	mov.w	r1, r0, lsl #8
 80012cc:	ea40 0001 	orr.w	r0, r0, r1
 80012d0:	ea4f 4100 	mov.w	r1, r0, lsl #16
 80012d4:	ea40 0001 	orr.w	r0, r0, r1
 80012d8:	f647 41fc 	movw	r1, #31996	; 0x7cfc
 80012dc:	6fa2      	ldr	r2, [r4, #120]	; 0x78
 80012de:	5050      	str	r0, [r2, r1]
 80012e0:	3904      	subs	r1, #4
 80012e2:	d1fc      	bne.n	80012de <CLS+0x2a>
 80012e4:	6010      	str	r0, [r2, #0]
 80012e6:	ea80 0000 	eor.w	r0, r0, r0
 80012ea:	f8c4 0098 	str.w	r0, [r4, #152]	; 0x98
 80012ee:	f8c4 009c 	str.w	r0, [r4, #156]	; 0x9c
 80012f2:	f001 bedf 	b.w	80030b4 <INEXT>
 80012f6:	080012ae 	stmdaeq	r0, {r1, r2, r3, r5, r7, r9, ip}

080012fa <_CLRLINE>:
 80012fa:	524c4307 	subpl	r4, ip, #469762048	; 0x1c000000
 80012fe:	454e494c 	strbmi	r4, [lr, #-2380]	; 0xfffff6b4
 8001302:	bf00      	nop

08001304 <CLRLINE>:
 8001304:	4750      	bx	sl
 8001306:	bf00      	nop
 8001308:	080032df 	stmdaeq	r0, {r0, r1, r2, r3, r4, r6, r7, r9, ip, sp}
 800130c:	00000500 	andeq	r0, r0, r0, lsl #10
 8001310:	08003469 	stmdaeq	r0, {r0, r3, r5, r6, sl, ip, sp}
 8001314:	080033e5 	stmdaeq	r0, {r0, r2, r5, r6, r7, r8, r9, ip, sp}
 8001318:	08003589 	stmdaeq	r0, {r0, r3, r7, r8, sl, ip, sp}
 800131c:	080011f9 	stmdaeq	r0, {r0, r3, r4, r5, r6, r7, r8, ip}
 8001320:	08003569 	stmdaeq	r0, {r0, r3, r5, r6, r8, sl, ip, sp}
 8001324:	080033a1 	stmdaeq	r0, {r0, r5, r7, r8, r9, ip, sp}
 8001328:	080032df 	stmdaeq	r0, {r0, r1, r2, r3, r4, r6, r7, r9, ip, sp}
 800132c:	00000000 	andeq	r0, r0, r0
 8001330:	080040c5 	stmdaeq	r0, {r0, r2, r6, r7, lr}
 8001334:	080030bb 	stmdaeq	r0, {r0, r1, r3, r4, r5, r7, ip, sp}
 8001338:	080012fa 	stmdaeq	r0, {r1, r3, r4, r5, r6, r7, r9, ip}

0800133c <_SCROLLUP>:
 800133c:	52435308 	subpl	r5, r3, #8, 6	; 0x20000000
 8001340:	554c4c4f 	strbpl	r4, [ip, #-3151]	; 0xfffff3b1
 8001344:	bf000050 	svclt	0x00000050

08001348 <SCROLLUP>:
 8001348:	4750      	bx	sl
 800134a:	bf00      	nop
 800134c:	080011f9 	stmdaeq	r0, {r0, r3, r4, r5, r6, r7, r8, ip}
 8001350:	08003469 	stmdaeq	r0, {r0, r3, r5, r6, sl, ip, sp}
 8001354:	080032df 	stmdaeq	r0, {r0, r1, r2, r3, r4, r6, r7, r9, ip, sp}
 8001358:	00000500 	andeq	r0, r0, r0, lsl #10
 800135c:	08003469 	stmdaeq	r0, {r0, r3, r5, r6, sl, ip, sp}
 8001360:	080033e5 	stmdaeq	r0, {r0, r2, r5, r6, r7, r8, r9, ip, sp}
 8001364:	08003569 	stmdaeq	r0, {r0, r3, r5, r6, r8, sl, ip, sp}
 8001368:	08003479 	stmdaeq	r0, {r0, r3, r4, r5, r6, sl, ip, sp}
 800136c:	080032df 	stmdaeq	r0, {r0, r1, r2, r3, r4, r6, r7, r9, ip, sp}
 8001370:	00007d00 	andeq	r7, r0, r0, lsl #26
 8001374:	080033a1 	stmdaeq	r0, {r0, r5, r7, r8, r9, ip, sp}
 8001378:	08003579 	stmdaeq	r0, {r0, r3, r4, r5, r6, r8, sl, ip, sp}
 800137c:	0800407d 	stmdaeq	r0, {r0, r2, r3, r4, r5, r6, lr}
 8001380:	080032df 	stmdaeq	r0, {r0, r1, r2, r3, r4, r6, r7, r9, ip, sp}
 8001384:	00000018 	andeq	r0, r0, r8, lsl r0
 8001388:	08001305 	stmdaeq	r0, {r0, r2, r8, r9, ip}
 800138c:	080030bb 	stmdaeq	r0, {r0, r1, r3, r4, r5, r7, ip, sp}
 8001390:	0800133c 	stmdaeq	r0, {r2, r3, r4, r5, r8, r9, ip}

08001394 <_SCROLLDOWN>:
 8001394:	5243530a 	subpl	r5, r3, #671088640	; 0x28000000
 8001398:	444c4c4f 	strbmi	r4, [ip], #-3151	; 0xfffff3b1
 800139c:	004e574f 	subeq	r5, lr, pc, asr #14

080013a0 <SCROLLDOWN>:
 80013a0:	4750      	bx	sl
 80013a2:	bf00      	nop
 80013a4:	080011f9 	stmdaeq	r0, {r0, r3, r4, r5, r6, r7, r8, ip}
 80013a8:	08003469 	stmdaeq	r0, {r0, r3, r5, r6, sl, ip, sp}
 80013ac:	080032df 	stmdaeq	r0, {r0, r1, r2, r3, r4, r6, r7, r9, ip, sp}
 80013b0:	00000500 	andeq	r0, r0, r0, lsl #10
 80013b4:	08003569 	stmdaeq	r0, {r0, r3, r5, r6, r8, sl, ip, sp}
 80013b8:	080032df 	stmdaeq	r0, {r0, r1, r2, r3, r4, r6, r7, r9, ip, sp}
 80013bc:	00007d00 	andeq	r7, r0, r0, lsl #26
 80013c0:	080032df 	stmdaeq	r0, {r0, r1, r2, r3, r4, r6, r7, r9, ip, sp}
 80013c4:	00000500 	andeq	r0, r0, r0, lsl #10
 80013c8:	08003579 	stmdaeq	r0, {r0, r3, r4, r5, r6, r8, sl, ip, sp}
 80013cc:	0800407d 	stmdaeq	r0, {r0, r2, r3, r4, r5, r6, lr}
 80013d0:	080032df 	stmdaeq	r0, {r0, r1, r2, r3, r4, r6, r7, r9, ip, sp}
 80013d4:	00000000 	andeq	r0, r0, r0
 80013d8:	08001305 	stmdaeq	r0, {r0, r2, r8, r9, ip}
 80013dc:	080030bb 	stmdaeq	r0, {r0, r1, r3, r4, r5, r7, ip, sp}
 80013e0:	08001394 	stmdaeq	r0, {r2, r4, r7, r8, r9, ip}

080013e4 <_TV_CRLF>:
 80013e4:	2d565407 	cfldrdcs	mvd5, [r6, #-28]	; 0xffffffe4
 80013e8:	464c5243 	strbmi	r5, [ip], -r3, asr #4

080013ec <TV_CRLF>:
 80013ec:	4de3      	ldr	r5, [pc, #908]	; (800177c <INPUT+0x38>)
 80013ee:	f045 0501 	orr.w	r5, r5, #1
 80013f2:	ea80 0000 	eor.w	r0, r0, r0
 80013f6:	f8c4 009c 	str.w	r0, [r4, #156]	; 0x9c
 80013fa:	f8d4 0098 	ldr.w	r0, [r4, #152]	; 0x98
 80013fe:	2818      	cmp	r0, #24
 8001400:	d0a2      	beq.n	8001348 <SCROLLUP>
 8001402:	f100 0001 	add.w	r0, r0, #1
 8001406:	f8c4 0098 	str.w	r0, [r4, #152]	; 0x98
 800140a:	f001 be53 	b.w	80030b4 <INEXT>
 800140e:	080013e4 	stmdaeq	r0, {r2, r5, r6, r7, r8, r9, ip}

08001412 <_RIGHT>:
 8001412:	47495205 	strbmi	r5, [r9, -r5, lsl #4]
 8001416:	 			; <UNDEFINED> instruction: 0xf8d45448

08001418 <RIGHT>:
 8001418:	f8d4 009c 	ldr.w	r0, [r4, #156]	; 0x9c
 800141c:	f100 0001 	add.w	r0, r0, #1
 8001420:	2835      	cmp	r0, #53	; 0x35
 8001422:	d5e3      	bpl.n	80013ec <TV_CRLF>
 8001424:	f8c4 009c 	str.w	r0, [r4, #156]	; 0x9c
 8001428:	f001 be44 	b.w	80030b4 <INEXT>
 800142c:	08001412 	stmdaeq	r0, {r1, r4, sl, ip}

08001430 <_LEFT>:
 8001430:	46454c04 	strbmi	r4, [r5], -r4, lsl #24
 8001434:	bf000054 	svclt	0x00000054

08001438 <LEFT>:
 8001438:	f8d4 009c 	ldr.w	r0, [r4, #156]	; 0x9c
 800143c:	b128      	cbz	r0, 800144a <LEFT+0x12>
 800143e:	f1a0 0001 	sub.w	r0, r0, #1
 8001442:	f8c4 009c 	str.w	r0, [r4, #156]	; 0x9c
 8001446:	f001 be35 	b.w	80030b4 <INEXT>
 800144a:	f8d4 0098 	ldr.w	r0, [r4, #152]	; 0x98
 800144e:	b138      	cbz	r0, 8001460 <LEFT+0x28>
 8001450:	f1a0 0001 	sub.w	r0, r0, #1
 8001454:	f8c4 0098 	str.w	r0, [r4, #152]	; 0x98
 8001458:	f04f 0034 	mov.w	r0, #52	; 0x34
 800145c:	f8c4 009c 	str.w	r0, [r4, #156]	; 0x9c
 8001460:	f001 be28 	b.w	80030b4 <INEXT>

08001464 <FONT_PIXEL>:
 8001464:	f04f 0080 	mov.w	r0, #128	; 0x80
 8001468:	ea06 0600 	and.w	r6, r6, r0
 800146c:	ea4f 16d6 	mov.w	r6, r6, lsr #7
 8001470:	f001 be20 	b.w	80030b4 <INEXT>

08001474 <INCR_X>:
 8001474:	6838      	ldr	r0, [r7, #0]
 8001476:	f100 0001 	add.w	r0, r0, #1
 800147a:	6038      	str	r0, [r7, #0]
 800147c:	f001 be1a 	b.w	80030b4 <INEXT>

08001480 <NEXT_PIXEL>:
 8001480:	ea4f 0646 	mov.w	r6, r6, lsl #1
 8001484:	f001 be16 	b.w	80030b4 <INEXT>

08001488 <CHAR_ROW>:
 8001488:	4750      	bx	sl
 800148a:	bf00      	nop
 800148c:	080032df 	stmdaeq	r0, {r0, r1, r2, r3, r4, r6, r7, r9, ip, sp}
 8001490:	00000005 	andeq	r0, r0, r5
 8001494:	080033e5 	stmdaeq	r0, {r0, r2, r5, r6, r7, r8, r9, ip, sp}
 8001498:	080033e5 	stmdaeq	r0, {r0, r2, r5, r6, r7, r8, r9, ip, sp}
 800149c:	080036dd 	stmdaeq	r0, {r0, r2, r3, r4, r6, r7, r9, sl, ip, sp}
 80014a0:	080033d1 	stmdaeq	r0, {r0, r4, r6, r7, r8, r9, ip, sp}
 80014a4:	08001465 	stmdaeq	r0, {r0, r2, r5, r6, sl, ip}
 80014a8:	0800120d 	stmdaeq	r0, {r0, r2, r3, r9, ip}
 80014ac:	08001475 	stmdaeq	r0, {r0, r2, r4, r5, r6, sl, ip}
 80014b0:	080033a1 	stmdaeq	r0, {r0, r5, r7, r8, r9, ip, sp}
 80014b4:	08001481 	stmdaeq	r0, {r0, r7, sl, ip}
 80014b8:	08003301 	stmdaeq	r0, {r0, r8, r9, ip, sp}
 80014bc:	08001498 	stmdaeq	r0, {r3, r4, r7, sl, ip}
 80014c0:	080036c9 	stmdaeq	r0, {r0, r3, r6, r7, r9, sl, ip, sp}
 80014c4:	080030bb 	stmdaeq	r0, {r0, r1, r3, r4, r5, r7, ip, sp}

080014c8 <CHAR_FONT>:
 80014c8:	f1a6 0620 	sub.w	r6, r6, #32
 80014cc:	f04f 0008 	mov.w	r0, #8
 80014d0:	fb00 f606 	mul.w	r6, r0, r6
 80014d4:	48a7      	ldr	r0, [pc, #668]	; (8001774 <INPUT+0x30>)
 80014d6:	4406      	add	r6, r0
 80014d8:	f001 bdec 	b.w	80030b4 <INEXT>
 80014dc:	08001430 	stmdaeq	r0, {r4, r5, sl, ip}

080014e0 <_TV_EMIT>:
 80014e0:	2d565407 	cfldrdcs	mvd5, [r6, #-28]	; 0xffffffe4
 80014e4:	54494d45 	strbpl	r4, [r9], #-3397	; 0xfffff2bb

080014e8 <TV_EMIT>:
 80014e8:	4750      	bx	sl
 80014ea:	bf00      	nop
 80014ec:	08003469 	stmdaeq	r0, {r0, r3, r5, r6, sl, ip, sp}
 80014f0:	080032df 	stmdaeq	r0, {r0, r1, r2, r3, r4, r6, r7, r9, ip, sp}
 80014f4:	00000020 	andeq	r0, r0, r0, lsr #32
 80014f8:	0800382d 	stmdaeq	r0, {r0, r2, r3, r5, fp, ip, sp}
 80014fc:	0800331f 	stmdaeq	r0, {r0, r1, r2, r3, r4, r8, r9, ip, sp}
 8001500:	0800150c 	stmdaeq	r0, {r2, r3, r8, sl, ip}
 8001504:	08003347 	stmdaeq	r0, {r0, r1, r2, r6, r8, r9, ip, sp}
 8001508:	08001570 	stmdaeq	r0, {r4, r5, r6, r8, sl, ip}
 800150c:	080014c9 	stmdaeq	r0, {r0, r3, r6, r7, sl, ip}
 8001510:	08001185 	stmdaeq	r0, {r0, r2, r7, r8, ip}
 8001514:	08003375 	stmdaeq	r0, {r0, r2, r4, r5, r6, r8, r9, ip, sp}
 8001518:	080011c9 	stmdaeq	r0, {r0, r3, r6, r7, r8, ip}
 800151c:	08001199 	stmdaeq	r0, {r0, r3, r4, r7, r8, ip}
 8001520:	08003375 	stmdaeq	r0, {r0, r2, r4, r5, r6, r8, r9, ip, sp}
 8001524:	080011b1 	stmdaeq	r0, {r0, r4, r5, r7, r8, ip}
 8001528:	0800368d 	stmdaeq	r0, {r0, r2, r3, r7, r9, sl, ip, sp}
 800152c:	080032df 	stmdaeq	r0, {r0, r1, r2, r3, r4, r6, r7, r9, ip, sp}
 8001530:	00000007 	andeq	r0, r0, r7
 8001534:	080033e5 	stmdaeq	r0, {r0, r2, r5, r6, r7, r8, r9, ip, sp}
 8001538:	080033e5 	stmdaeq	r0, {r0, r2, r5, r6, r7, r8, r9, ip, sp}
 800153c:	080036dd 	stmdaeq	r0, {r0, r2, r3, r4, r6, r7, r9, sl, ip, sp}
 8001540:	080033d1 	stmdaeq	r0, {r0, r4, r6, r7, r8, r9, ip, sp}
 8001544:	08003395 	stmdaeq	r0, {r0, r2, r4, r7, r8, r9, ip, sp}
 8001548:	08001489 	stmdaeq	r0, {r0, r3, r7, sl, ip}
 800154c:	080035c5 	stmdaeq	r0, {r0, r2, r6, r7, r8, sl, ip, sp}
 8001550:	080033a1 	stmdaeq	r0, {r0, r5, r7, r8, r9, ip, sp}
 8001554:	080035c5 	stmdaeq	r0, {r0, r2, r6, r7, r8, sl, ip, sp}
 8001558:	08003301 	stmdaeq	r0, {r0, r8, r9, ip, sp}
 800155c:	08001538 	stmdaeq	r0, {r3, r4, r5, r8, sl, ip}
 8001560:	080036c9 	stmdaeq	r0, {r0, r3, r6, r7, r9, sl, ip, sp}
 8001564:	08001419 	stmdaeq	r0, {r0, r3, r4, sl, ip}
 8001568:	08001659 	stmdaeq	r0, {r0, r3, r4, r6, r9, sl, ip}
 800156c:	080030bb 	stmdaeq	r0, {r0, r1, r3, r4, r5, r7, ip, sp}

08001570 <CTRL_KEY>:
 8001570:	080016e1 	stmdaeq	r0, {r0, r5, r6, r7, r9, sl, ip}
 8001574:	08003469 	stmdaeq	r0, {r0, r3, r5, r6, sl, ip, sp}
 8001578:	080032df 	stmdaeq	r0, {r0, r1, r2, r3, r4, r6, r7, r9, ip, sp}
 800157c:	00000008 	andeq	r0, r0, r8
 8001580:	080037f5 	stmdaeq	r0, {r0, r2, r4, r5, r6, r7, r8, r9, sl, ip, sp}
 8001584:	0800331f 	stmdaeq	r0, {r0, r1, r2, r3, r4, r8, r9, ip, sp}
 8001588:	0800159c 	stmdaeq	r0, {r2, r3, r4, r7, r8, sl, ip}
 800158c:	08001639 	stmdaeq	r0, {r0, r3, r4, r5, r9, sl, ip}
 8001590:	08003459 	stmdaeq	r0, {r0, r3, r4, r6, sl, ip, sp}
 8001594:	08003347 	stmdaeq	r0, {r0, r1, r2, r6, r8, r9, ip, sp}
 8001598:	08001568 	stmdaeq	r0, {r3, r5, r6, r8, sl, ip}
 800159c:	08003469 	stmdaeq	r0, {r0, r3, r5, r6, sl, ip, sp}
 80015a0:	080032df 	stmdaeq	r0, {r0, r1, r2, r3, r4, r6, r7, r9, ip, sp}
 80015a4:	0000000d 	andeq	r0, r0, sp
 80015a8:	080037f5 	stmdaeq	r0, {r0, r2, r4, r5, r6, r7, r8, r9, sl, ip, sp}
 80015ac:	0800331f 	stmdaeq	r0, {r0, r1, r2, r3, r4, r8, r9, ip, sp}
 80015b0:	080015c0 	stmdaeq	r0, {r6, r7, r8, sl, ip}
 80015b4:	080015e1 	stmdaeq	r0, {r0, r5, r6, r7, r8, sl, ip}
 80015b8:	08003347 	stmdaeq	r0, {r0, r1, r2, r6, r8, r9, ip, sp}
 80015bc:	08001590 	stmdaeq	r0, {r4, r7, r8, sl, ip}
 80015c0:	080032df 	stmdaeq	r0, {r0, r1, r2, r3, r4, r6, r7, r9, ip, sp}
 80015c4:	0000000a 	andeq	r0, r0, sl
 80015c8:	080037f5 	stmdaeq	r0, {r0, r2, r4, r5, r6, r7, r8, r9, sl, ip, sp}
 80015cc:	0800331f 	stmdaeq	r0, {r0, r1, r2, r3, r4, r8, r9, ip, sp}
 80015d0:	08001568 	stmdaeq	r0, {r3, r5, r6, r8, sl, ip}
 80015d4:	080015f9 	stmdaeq	r0, {r0, r3, r4, r5, r6, r7, r8, sl, ip}
 80015d8:	08003347 	stmdaeq	r0, {r0, r1, r2, r6, r8, r9, ip, sp}
 80015dc:	08001568 	stmdaeq	r0, {r3, r5, r6, r8, sl, ip}

080015e0 <CAR_RET>:
 80015e0:	4750      	bx	sl
 80015e2:	bf00      	nop
 80015e4:	080032df 	stmdaeq	r0, {r0, r1, r2, r3, r4, r6, r7, r9, ip, sp}
 80015e8:	00000000 	andeq	r0, r0, r0
 80015ec:	08001185 	stmdaeq	r0, {r0, r2, r7, r8, ip}
 80015f0:	08003361 	stmdaeq	r0, {r0, r5, r6, r8, r9, ip, sp}
 80015f4:	080030bb 	stmdaeq	r0, {r0, r1, r3, r4, r5, r7, ip, sp}

080015f8 <LN_FEED>:
 80015f8:	4750      	bx	sl
 80015fa:	bf00      	nop
 80015fc:	08001199 	stmdaeq	r0, {r0, r3, r4, r7, r8, ip}
 8001600:	08003375 	stmdaeq	r0, {r0, r2, r4, r5, r6, r8, r9, ip, sp}
 8001604:	08003469 	stmdaeq	r0, {r0, r3, r5, r6, sl, ip, sp}
 8001608:	080032df 	stmdaeq	r0, {r0, r1, r2, r3, r4, r6, r7, r9, ip, sp}
 800160c:	00000018 	andeq	r0, r0, r8, lsl r0
 8001610:	08003511 	stmdaeq	r0, {r0, r4, r8, sl, ip, sp}
 8001614:	0800331f 	stmdaeq	r0, {r0, r1, r2, r3, r4, r8, r9, ip, sp}
 8001618:	0800162c 	stmdaeq	r0, {r2, r3, r5, r9, sl, ip}
 800161c:	080035c5 	stmdaeq	r0, {r0, r2, r6, r7, r8, sl, ip, sp}
 8001620:	08001199 	stmdaeq	r0, {r0, r3, r4, r7, r8, ip}
 8001624:	08003361 	stmdaeq	r0, {r0, r5, r6, r8, r9, ip, sp}
 8001628:	080030bb 	stmdaeq	r0, {r0, r1, r3, r4, r5, r7, ip, sp}
 800162c:	08003459 	stmdaeq	r0, {r0, r3, r4, r6, sl, ip, sp}
 8001630:	08001349 	stmdaeq	r0, {r0, r3, r6, r8, r9, ip}
 8001634:	080030bb 	stmdaeq	r0, {r0, r1, r3, r4, r5, r7, ip, sp}

08001638 <BACK_SPACE>:
 8001638:	4750      	bx	sl
 800163a:	bf00      	nop
 800163c:	08001439 	stmdaeq	r0, {r0, r3, r4, r5, sl, ip}
 8001640:	08001659 	stmdaeq	r0, {r0, r3, r4, r6, r9, sl, ip}
 8001644:	080030bb 	stmdaeq	r0, {r0, r1, r3, r4, r5, r7, ip, sp}
 8001648:	080014e0 	stmdaeq	r0, {r5, r6, r7, sl, ip}

0800164c <_SHOW_CURSOR>:
 800164c:	4f48530b 	svcmi	0x0048530b
 8001650:	55432d57 	strbpl	r2, [r3, #-3415]	; 0xfffff2a9
 8001654:	524f5352 	subpl	r5, pc, #1207959553	; 0x48000001

08001658 <SHOW_CURSOR>:
 8001658:	4750      	bx	sl
 800165a:	bf00      	nop
 800165c:	080032df 	stmdaeq	r0, {r0, r1, r2, r3, r4, r6, r7, r9, ip, sp}
 8001660:	000000ff 	strdeq	r0, [r0], -pc	; <UNPREDICTABLE>
 8001664:	08001199 	stmdaeq	r0, {r0, r3, r4, r7, r8, ip}
 8001668:	08003375 	stmdaeq	r0, {r0, r2, r4, r5, r6, r8, r9, ip, sp}
 800166c:	080035c5 	stmdaeq	r0, {r0, r2, r6, r7, r8, sl, ip, sp}
 8001670:	080011b1 	stmdaeq	r0, {r0, r4, r5, r7, r8, ip}
 8001674:	080032df 	stmdaeq	r0, {r0, r1, r2, r3, r4, r6, r7, r9, ip, sp}
 8001678:	000000a0 	andeq	r0, r0, r0, lsr #1
 800167c:	08003589 	stmdaeq	r0, {r0, r3, r7, r8, sl, ip, sp}
 8001680:	080032df 	stmdaeq	r0, {r0, r1, r2, r3, r4, r6, r7, r9, ip, sp}
 8001684:	000000a0 	andeq	r0, r0, r0, lsr #1
 8001688:	08003579 	stmdaeq	r0, {r0, r3, r4, r5, r6, r8, sl, ip, sp}
 800168c:	08001185 	stmdaeq	r0, {r0, r2, r7, r8, ip}
 8001690:	08003375 	stmdaeq	r0, {r0, r2, r4, r5, r6, r8, r9, ip, sp}
 8001694:	080011c9 	stmdaeq	r0, {r0, r3, r6, r7, r8, ip}
 8001698:	08003669 	stmdaeq	r0, {r0, r3, r5, r6, r9, sl, ip, sp}
 800169c:	08003569 	stmdaeq	r0, {r0, r3, r5, r6, r8, sl, ip, sp}
 80016a0:	080011f9 	stmdaeq	r0, {r0, r3, r4, r5, r6, r7, r8, ip}
 80016a4:	08003569 	stmdaeq	r0, {r0, r3, r5, r6, r8, sl, ip, sp}
 80016a8:	080032df 	stmdaeq	r0, {r0, r1, r2, r3, r4, r6, r7, r9, ip, sp}
 80016ac:	00000002 	andeq	r0, r0, r2
 80016b0:	080033e5 	stmdaeq	r0, {r0, r2, r5, r6, r7, r8, r9, ip, sp}
 80016b4:	080036dd 	stmdaeq	r0, {r0, r2, r3, r4, r6, r7, r9, sl, ip, sp}
 80016b8:	08003381 	stmdaeq	r0, {r0, r7, r8, r9, ip, sp}
 80016bc:	080035c5 	stmdaeq	r0, {r0, r2, r6, r7, r8, sl, ip, sp}
 80016c0:	08003301 	stmdaeq	r0, {r0, r8, r9, ip, sp}
 80016c4:	080016b4 	stmdaeq	r0, {r2, r4, r5, r7, r9, sl, ip}
 80016c8:	080036b5 	stmdaeq	r0, {r0, r2, r4, r5, r7, r9, sl, ip, sp}
 80016cc:	080030bb 	stmdaeq	r0, {r0, r1, r3, r4, r5, r7, ip, sp}
 80016d0:	0800164c 	stmdaeq	r0, {r2, r3, r6, r9, sl, ip}

080016d4 <_HIDE_CURSOR>:
 80016d4:	4449480b 	strbmi	r4, [r9], #-2059	; 0xfffff7f5
 80016d8:	55432d45 	strbpl	r2, [r3, #-3397]	; 0xfffff2bb
 80016dc:	524f5352 	subpl	r5, pc, #1207959553	; 0x48000001

080016e0 <HIDE_CURSOR>:
 80016e0:	4750      	bx	sl
 80016e2:	bf00      	nop
 80016e4:	08001151 	stmdaeq	r0, {r0, r4, r6, r8, ip}
 80016e8:	08003375 	stmdaeq	r0, {r0, r2, r4, r5, r6, r8, r9, ip, sp}
 80016ec:	08003469 	stmdaeq	r0, {r0, r3, r5, r6, sl, ip, sp}
 80016f0:	080032df 	stmdaeq	r0, {r0, r1, r2, r3, r4, r6, r7, r9, ip, sp}
 80016f4:	00000004 	andeq	r0, r0, r4
 80016f8:	08003559 	stmdaeq	r0, {r0, r3, r4, r6, r8, sl, ip, sp}
 80016fc:	080034fd 	stmdaeq	r0, {r0, r2, r3, r4, r5, r6, r7, sl, ip, sp}
 8001700:	08003347 	stmdaeq	r0, {r0, r1, r2, r6, r8, r9, ip, sp}
 8001704:	08001664 	stmdaeq	r0, {r2, r5, r6, r9, sl, ip}
 8001708:	080016d4 	stmdaeq	r0, {r2, r4, r6, r7, r9, sl, ip}

0800170c <_TV_AT>:
 800170c:	2d565405 	cfldrdcs	mvd5, [r6, #-20]	; 0xffffffec
 8001710:	bf005441 	svclt	0x00005441

08001714 <TV_AT>:
 8001714:	2e35      	cmp	r6, #53	; 0x35
 8001716:	d401      	bmi.n	800171c <TV_AT+0x8>
 8001718:	f04f 0634 	mov.w	r6, #52	; 0x34
 800171c:	f8c4 609c 	str.w	r6, [r4, #156]	; 0x9c
 8001720:	f857 6b04 	ldr.w	r6, [r7], #4
 8001724:	2e19      	cmp	r6, #25
 8001726:	d401      	bmi.n	800172c <TV_AT+0x18>
 8001728:	f04f 0618 	mov.w	r6, #24
 800172c:	f8c4 6098 	str.w	r6, [r4, #152]	; 0x98
 8001730:	f857 6b04 	ldr.w	r6, [r7], #4
 8001734:	f001 bcbe 	b.w	80030b4 <INEXT>
 8001738:	0800170c 	stmdaeq	r0, {r2, r3, r8, r9, sl, ip}

0800173c <_INPUT>:
 800173c:	504e4905 	subpl	r4, lr, r5, lsl #18
 8001740:	bf005455 	svclt	0x00005455

08001744 <INPUT>:
 8001744:	4750      	bx	sl
 8001746:	bf00      	nop
 8001748:	08003fb9 	stmdaeq	r0, {r0, r3, r4, r5, r7, r8, r9, sl, fp, ip, sp}
 800174c:	08003469 	stmdaeq	r0, {r0, r3, r5, r6, sl, ip, sp}
 8001750:	080035c5 	stmdaeq	r0, {r0, r2, r6, r7, r8, sl, ip, sp}
 8001754:	080032df 	stmdaeq	r0, {r0, r1, r2, r3, r4, r6, r7, r9, ip, sp}
 8001758:	00000035 	andeq	r0, r0, r5, lsr r0
 800175c:	08004e31 	stmdaeq	r0, {r0, r4, r5, r9, sl, fp, lr}
 8001760:	08003479 	stmdaeq	r0, {r0, r3, r4, r5, r6, sl, ip, sp}
 8001764:	08003459 	stmdaeq	r0, {r0, r3, r4, r6, sl, ip, sp}
 8001768:	080034a9 	stmdaeq	r0, {r0, r3, r5, r7, sl, ip, sp}
 800176c:	08003381 	stmdaeq	r0, {r0, r7, r8, r9, ip, sp}
 8001770:	080030bb 	stmdaeq	r0, {r0, r1, r3, r4, r5, r7, ip, sp}
 8001774:	08006138 	stmdaeq	r0, {r3, r4, r5, r8, sp, lr}
 8001778:	08001290 	stmdaeq	r0, {r4, r7, r9, ip}
 800177c:	08001348 	stmdaeq	r0, {r3, r6, r8, r9, ip}

08001780 <sc_ascii>:
 8001780:	6232611c 	eorsvs	r6, r2, #28, 2
 8001784:	64236321 	strtvs	r6, [r3], #-801	; 0xfffffcdf
 8001788:	662b6524 	strtvs	r6, [fp], -r4, lsr #10
 800178c:	68336734 	ldmdavs	r3!, {r2, r4, r5, r8, r9, sl, sp, lr}
 8001790:	6a3b6943 	bvs	8edbca4 <OPTKEY1+0xd49269>
 8001794:	6c4b6b42 	mcrrvs	11, 4, r6, fp, cr2
 8001798:	6e316d3a 	mrcvs	13, 1, r6, cr1, cr10, {1}
 800179c:	704d6f44 	subvc	r6, sp, r4, asr #30
 80017a0:	722d7115 	eorvc	r7, sp, #1073741829	; 0x40000005
 80017a4:	742c731b 	strtvc	r7, [ip], #-795	; 0xfffffce5
 80017a8:	762a753c 			; <UNDEFINED> instruction: 0x762a753c
 80017ac:	7822771d 	stmdavc	r2!, {r0, r2, r3, r4, r8, r9, sl, ip, sp, lr}
 80017b0:	7a1a7935 	bvc	869fc8c <OPTKEY1+0x50d251>
 80017b4:	31163045 	tstcc	r6, r5, asr #32
 80017b8:	3326321e 			; <UNDEFINED> instruction: 0x3326321e
 80017bc:	352e3425 	strcc	r3, [lr, #-1061]!	; 0xfffffbdb
 80017c0:	373d3636 			; <UNDEFINED> instruction: 0x373d3636
 80017c4:	3946383e 	stmdbcc	r6, {r1, r2, r3, r4, r5, fp, ip, sp}^
 80017c8:	2d4e600e 	stclcs	0, cr6, [lr, #-56]	; 0xffffffc8
 80017cc:	5c5d3d55 	mrrcpl	13, 5, r3, sp, cr5
 80017d0:	5d5b5b54 	vldrpl	d21, [fp, #-336]	; 0xfffffeb0
 80017d4:	27523b4c 	ldrbcs	r3, [r2, -ip, asr #22]
 80017d8:	2e492c41 	cdpcs	12, 4, cr2, cr9, cr1, {2}
 80017dc:	2b792a7c 	blcs	9e4c1d4 <OPTKEY1+0x1cb9799>
 80017e0:	0d5a2029 	ldcleq	0, cr2, [sl, #-164]	; 0xffffff5c
 80017e4:	090d0866 	stmdbeq	sp, {r1, r2, r5, r6, fp}
 80017e8:	9e111b76 	vmovls.s16	r1, d1[1]
 80017ec:	9d149c12 	ldcls	12, cr9, [r4, #-72]	; 0xffffffb8
 80017f0:	9a77a47e 	bls	9dea9f0 <OPTKEY1+0x1c57fb5>
 80017f4:	80050058 	andhi	r0, r5, r8, asr r0
 80017f8:	82048106 	andhi	r8, r4, #-2147483647	; 0x80000001
 80017fc:	8403830c 	strhi	r8, [r3], #-780	; 0xfffffcf4
 8001800:	8683850b 	strhi	r8, [r3], fp, lsl #10
 8001804:	8801870a 	stmdahi	r1, {r1, r3, r8, r9, sl, pc}
 8001808:	8b788a09 	blhi	9e24034 <OPTKEY1+0x1c915f9>
 800180c:	30708c07 	rsbscc	r8, r0, r7, lsl #24
 8001810:	32723169 	rsbscc	r3, r2, #1073741850	; 0x4000001a
 8001814:	346b337a 	strbtcc	r3, [fp], #-890	; 0xfffffc86
 8001818:	36743573 			; <UNDEFINED> instruction: 0x36743573
 800181c:	3875376c 	ldmdacc	r5!, {r2, r3, r5, r6, r8, r9, sl, ip, sp}^
 8001820:	2a7c397d 	bcs	9f0fe1c <OPTKEY1+0x1d7d3e1>
 8001824:	2b792f4a 	blcs	9e4d554 <OPTKEY1+0x1cbab19>
 8001828:	2e712d7b 	mrccs	13, 3, r2, cr1, cr11, {3}
 800182c:	fafa0d5a 	blx	7e84d9c <FCLK+0x22f759c>
 8001830:	0000aaaa 	andeq	sl, r0, sl, lsr #21

08001834 <shifted>:
 8001834:	42624161 	rsbmi	r4, r2, #1073741848	; 0x40000018
 8001838:	44644363 	strbtmi	r4, [r4], #-867	; 0xfffffc9d
 800183c:	46664565 	strbtmi	r4, [r6], -r5, ror #10
 8001840:	48684767 	stmdami	r8!, {r0, r1, r2, r5, r6, r8, r9, sl, lr}^
 8001844:	4a6a4969 	bmi	9a93df0 <OPTKEY1+0x19013b5>
 8001848:	4c6c4b6b 			; <UNDEFINED> instruction: 0x4c6c4b6b
 800184c:	4e6e4d6d 	cdpmi	13, 6, cr4, cr14, cr13, {3}
 8001850:	50704f6f 	rsbspl	r4, r0, pc, ror #30
 8001854:	52725171 	rsbspl	r5, r2, #1073741852	; 0x4000001c
 8001858:	54745373 	ldrbtpl	r5, [r4], #-883	; 0xfffffc8d
 800185c:	56765575 			; <UNDEFINED> instruction: 0x56765575
 8001860:	58785777 	ldmdapl	r8!, {r0, r1, r2, r4, r5, r6, r8, r9, sl, ip, lr}^
 8001864:	5a7a5979 	bpl	9e97e50 <OPTKEY1+0x1d05415>
 8001868:	40322131 	eorsmi	r2, r2, r1, lsr r1
 800186c:	24342333 	ldrtcs	r2, [r4], #-819	; 0xfffffccd
 8001870:	5e362535 	mrcpl	5, 1, r2, cr6, cr5, {1}
 8001874:	2a382637 	bcs	8e0b158 <OPTKEY1+0xc7871d>
 8001878:	29302839 	ldmdbcs	r0!, {r0, r3, r4, r5, fp, sp}
 800187c:	2b3d5f2d 	blcs	8f59538 <OPTKEY1+0xdc6afd>
 8001880:	22277e60 	eorcs	r7, r7, #96, 28	; 0x600
 8001884:	3e2e3c2c 	cdpcc	12, 2, cr3, cr14, cr12, {1}
 8001888:	7c5c3f2f 	mrrcvc	15, 2, r3, ip, cr15
 800188c:	7b5b3a3b 	blvc	96d0180 <OPTKEY1+0x153d745>
 8001890:	00007d5d 	andeq	r7, r0, sp, asr sp

08001894 <altchar>:
 8001894:	40325c31 	eorsmi	r5, r2, r1, lsr ip
 8001898:	3f362f33 	svccc	0x00362f33
 800189c:	7b397c37 	blvc	8e60980 <OPTKEY1+0xccdf45>
 80018a0:	00007d30 	andeq	r7, r0, r0, lsr sp

080018a4 <extended>:
 80018a4:	a01fa114 	andsge	sl, pc, r4, lsl r1	; <UNPREDICTABLE>
 80018a8:	a311a227 	tstge	r1, #1879048194	; 0x70000002
 80018ac:	8d75972f 	ldclhi	7, cr9, [r5, #-188]!	; 0xffffff44
 80018b0:	8f6b8e72 	svchi	0x006b8e72
 80018b4:	95709074 	ldrbls	r9, [r0, #-116]!	; 0xffffff8c
 80018b8:	937d916c 	cmnls	sp, #108, 2
 80018bc:	7f71947a 	svcvc	0x0071947a
 80018c0:	2f4a9269 	svccs	0x004a9269
 80018c4:	00120d5a 	andseq	r0, r2, sl, asr sp
 80018c8:	0000007c 	andeq	r0, r0, ip, ror r0

080018cc <controls>:
 80018cc:	a01f0363 	andsge	r0, pc, r3, ror #6
 80018d0:	a227a114 	eorge	sl, r7, #20, 2
 80018d4:	972fa311 			; <UNDEFINED> instruction: 0x972fa311
 80018d8:	916c9570 	smcls	51536	; 0xc950
 80018dc:	7f71937d 	svcvc	0x0071937d
 80018e0:	947a9269 	ldrbtls	r9, [sl], #-617	; 0xfffffd97
 80018e4:	8f6b8d75 	svchi	0x006b8d75
 80018e8:	90748e72 	rsbsls	r8, r4, r2, ror lr
 80018ec:	0d5a2f4a 	ldcleq	15, cr2, [sl, #-296]	; 0xfffffed8
 80018f0:	9d149c12 	ldcls	12, cr9, [r4, #-72]	; 0xffffffb8
 80018f4:	9f599e11 	svcls	0x00599e11
 80018f8:	1b760d5a 	blne	9d84e68 <OPTKEY1+0x1bf242d>
 80018fc:	9b589a77 	blls	96282e0 <OPTKEY1+0x14958a5>
 8001900:	bf000000 	svclt	0x00000000

08001904 <kbd_isr>:
 8001904:	f44f 5270 	mov.w	r2, #15360	; 0x3c00
 8001908:	f2c4 0201 	movt	r2, #16385	; 0x4001
 800190c:	f44f 4000 	mov.w	r0, #32768	; 0x8000
 8001910:	6150      	str	r0, [r2, #20]
 8001912:	f44f 6300 	mov.w	r3, #2048	; 0x800
 8001916:	f2c4 0302 	movt	r3, #16386	; 0x4002
 800191a:	f8d4 007e 	ldr.w	r0, [r4, #126]	; 0x7e
 800191e:	f010 0f02 	tst.w	r0, #2
 8001922:	f040 8084 	bne.w	8001a2e <send_bit>
 8001926:	8a18      	ldrh	r0, [r3, #16]
 8001928:	f894 107c 	ldrb.w	r1, [r4, #124]	; 0x7c
 800192c:	f101 0201 	add.w	r2, r1, #1
 8001930:	f884 207c 	strb.w	r2, [r4, #124]	; 0x7c
 8001934:	2900      	cmp	r1, #0
 8001936:	d015      	beq.n	8001964 <start_bit>
 8001938:	2909      	cmp	r1, #9
 800193a:	d025      	beq.n	8001988 <parity_bit>
 800193c:	290a      	cmp	r1, #10
 800193e:	d02d      	beq.n	800199c <stop_bit>
 8001940:	f894 207d 	ldrb.w	r2, [r4, #125]	; 0x7d
 8001944:	ea4f 0252 	mov.w	r2, r2, lsr #1
 8001948:	f410 4f80 	tst.w	r0, #16384	; 0x4000
 800194c:	d007      	beq.n	800195e <kbd_isr+0x5a>
 800194e:	f042 0280 	orr.w	r2, r2, #128	; 0x80
 8001952:	f894 007f 	ldrb.w	r0, [r4, #127]	; 0x7f
 8001956:	f100 0001 	add.w	r0, r0, #1
 800195a:	f884 007f 	strb.w	r0, [r4, #127]	; 0x7f
 800195e:	f884 207d 	strb.w	r2, [r4, #125]	; 0x7d
 8001962:	e063      	b.n	8001a2c <store_code+0x3a>

08001964 <start_bit>:
 8001964:	f410 4f80 	tst.w	r0, #16384	; 0x4000
 8001968:	d160      	bne.n	8001a2c <store_code+0x3a>
 800196a:	ea80 0000 	eor.w	r0, r0, r0
 800196e:	f884 007d 	strb.w	r0, [r4, #125]	; 0x7d
 8001972:	f884 007f 	strb.w	r0, [r4, #127]	; 0x7f
 8001976:	f894 007e 	ldrb.w	r0, [r4, #126]	; 0x7e
 800197a:	f06f 0101 	mvn.w	r1, #1
 800197e:	ea00 0001 	and.w	r0, r0, r1
 8001982:	f884 007e 	strb.w	r0, [r4, #126]	; 0x7e
 8001986:	e051      	b.n	8001a2c <store_code+0x3a>

08001988 <parity_bit>:
 8001988:	f894 107f 	ldrb.w	r1, [r4, #127]	; 0x7f
 800198c:	f410 4f80 	tst.w	r0, #16384	; 0x4000
 8001990:	d04c      	beq.n	8001a2c <store_code+0x3a>
 8001992:	f101 0101 	add.w	r1, r1, #1
 8001996:	f884 107f 	strb.w	r1, [r4, #127]	; 0x7f
 800199a:	e047      	b.n	8001a2c <store_code+0x3a>

0800199c <stop_bit>:
 800199c:	f410 4f80 	tst.w	r0, #16384	; 0x4000
 80019a0:	d040      	beq.n	8001a24 <store_code+0x32>
 80019a2:	f894 107f 	ldrb.w	r1, [r4, #127]	; 0x7f
 80019a6:	f011 0f01 	tst.w	r1, #1
 80019aa:	d03b      	beq.n	8001a24 <store_code+0x32>
 80019ac:	f894 007d 	ldrb.w	r0, [r4, #125]	; 0x7d
 80019b0:	f894 107e 	ldrb.w	r1, [r4, #126]	; 0x7e
 80019b4:	28e0      	cmp	r0, #224	; 0xe0
 80019b6:	d104      	bne.n	80019c2 <stop_bit+0x26>
 80019b8:	f041 0140 	orr.w	r1, r1, #64	; 0x40
 80019bc:	f884 107e 	strb.w	r1, [r4, #126]	; 0x7e
 80019c0:	e030      	b.n	8001a24 <store_code+0x32>
 80019c2:	f011 0f80 	tst.w	r1, #128	; 0x80
 80019c6:	d014      	beq.n	80019f2 <store_code>
 80019c8:	2858      	cmp	r0, #88	; 0x58
 80019ca:	d104      	bne.n	80019d6 <stop_bit+0x3a>
 80019cc:	f081 0104 	eor.w	r1, r1, #4
 80019d0:	f041 0101 	orr.w	r1, r1, #1
 80019d4:	e006      	b.n	80019e4 <stop_bit+0x48>
 80019d6:	b500      	push	{lr}
 80019d8:	f000 f873 	bl	8001ac2 <do_async_key>
 80019dc:	f85d eb04 	ldr.w	lr, [sp], #4
 80019e0:	f894 107e 	ldrb.w	r1, [r4, #126]	; 0x7e
 80019e4:	f06f 02c0 	mvn.w	r2, #192	; 0xc0
 80019e8:	ea01 0102 	and.w	r1, r1, r2
 80019ec:	f884 107e 	strb.w	r1, [r4, #126]	; 0x7e
 80019f0:	e018      	b.n	8001a24 <store_code+0x32>

080019f2 <store_code>:
 80019f2:	28f0      	cmp	r0, #240	; 0xf0
 80019f4:	d104      	bne.n	8001a00 <store_code+0xe>
 80019f6:	f041 0180 	orr.w	r1, r1, #128	; 0x80
 80019fa:	f884 107e 	strb.w	r1, [r4, #126]	; 0x7e
 80019fe:	e011      	b.n	8001a24 <store_code+0x32>
 8001a00:	4601      	mov	r1, r0
 8001a02:	b500      	push	{lr}
 8001a04:	f000 f85d 	bl	8001ac2 <do_async_key>
 8001a08:	f85d eb04 	ldr.w	lr, [sp], #4
 8001a0c:	d10a      	bne.n	8001a24 <store_code+0x32>
 8001a0e:	f8d4 0094 	ldr.w	r0, [r4, #148]	; 0x94
 8001a12:	f104 0280 	add.w	r2, r4, #128	; 0x80
 8001a16:	5411      	strb	r1, [r2, r0]
 8001a18:	f100 0001 	add.w	r0, r0, #1
 8001a1c:	f000 000f 	and.w	r0, r0, #15
 8001a20:	f884 0094 	strb.w	r0, [r4, #148]	; 0x94
 8001a24:	ea80 0000 	eor.w	r0, r0, r0
 8001a28:	f8a4 007c 	strh.w	r0, [r4, #124]	; 0x7c
 8001a2c:	4770      	bx	lr

08001a2e <send_bit>:
 8001a2e:	f894 107c 	ldrb.w	r1, [r4, #124]	; 0x7c
 8001a32:	f101 0001 	add.w	r0, r1, #1
 8001a36:	f884 007c 	strb.w	r0, [r4, #124]	; 0x7c
 8001a3a:	f894 007d 	ldrb.w	r0, [r4, #125]	; 0x7d
 8001a3e:	f44f 4280 	mov.w	r2, #16384	; 0x4000
 8001a42:	2908      	cmp	r1, #8
 8001a44:	d015      	beq.n	8001a72 <send_parity>
 8001a46:	2909      	cmp	r1, #9
 8001a48:	d01c      	beq.n	8001a84 <send_stop>
 8001a4a:	290a      	cmp	r1, #10
 8001a4c:	d01f      	beq.n	8001a8e <rx_ack_bit>
 8001a4e:	f010 0f01 	tst.w	r0, #1
 8001a52:	ea4f 0050 	mov.w	r0, r0, lsr #1
 8001a56:	f884 007d 	strb.w	r0, [r4, #125]	; 0x7d
 8001a5a:	d102      	bne.n	8001a62 <send_bit+0x34>
 8001a5c:	ea4f 4202 	mov.w	r2, r2, lsl #16
 8001a60:	e005      	b.n	8001a6e <send_bit+0x40>
 8001a62:	f894 007f 	ldrb.w	r0, [r4, #127]	; 0x7f
 8001a66:	f100 0001 	add.w	r0, r0, #1
 8001a6a:	f884 007f 	strb.w	r0, [r4, #127]	; 0x7f
 8001a6e:	619a      	str	r2, [r3, #24]
 8001a70:	e01c      	b.n	8001aac <rx_ack_bit+0x1e>

08001a72 <send_parity>:
 8001a72:	f894 007f 	ldrb.w	r0, [r4, #127]	; 0x7f
 8001a76:	f010 0f01 	tst.w	r0, #1
 8001a7a:	d001      	beq.n	8001a80 <send_parity+0xe>
 8001a7c:	ea4f 4202 	mov.w	r2, r2, lsl #16
 8001a80:	619a      	str	r2, [r3, #24]
 8001a82:	e013      	b.n	8001aac <rx_ack_bit+0x1e>

08001a84 <send_stop>:
 8001a84:	6819      	ldr	r1, [r3, #0]
 8001a86:	f021 5140 	bic.w	r1, r1, #805306368	; 0x30000000
 8001a8a:	6019      	str	r1, [r3, #0]
 8001a8c:	e00e      	b.n	8001aac <rx_ack_bit+0x1e>

08001a8e <rx_ack_bit>:
 8001a8e:	f894 007e 	ldrb.w	r0, [r4, #126]	; 0x7e
 8001a92:	f06f 0102 	mvn.w	r1, #2
 8001a96:	ea00 0001 	and.w	r0, r0, r1
 8001a9a:	8a19      	ldrh	r1, [r3, #16]
 8001a9c:	f411 4f80 	tst.w	r1, #16384	; 0x4000
 8001aa0:	f884 007e 	strb.w	r0, [r4, #126]	; 0x7e
 8001aa4:	ea80 0000 	eor.w	r0, r0, r0
 8001aa8:	f884 007c 	strb.w	r0, [r4, #124]	; 0x7c
 8001aac:	4770      	bx	lr

08001aae <is_async_key>:
 8001aae:	b402      	push	{r1}
 8001ab0:	f8df 1464 	ldr.w	r1, [pc, #1124]	; 8001f18 <WKEY+0x1c>
 8001ab4:	b500      	push	{lr}
 8001ab6:	f000 f89f 	bl	8001bf8 <table_scan>
 8001aba:	f85d eb04 	ldr.w	lr, [sp], #4
 8001abe:	bc02      	pop	{r1}
 8001ac0:	4770      	bx	lr

08001ac2 <do_async_key>:
 8001ac2:	b500      	push	{lr}
 8001ac4:	f7ff fff3 	bl	8001aae <is_async_key>
 8001ac8:	f85d eb04 	ldr.w	lr, [sp], #4
 8001acc:	28ff      	cmp	r0, #255	; 0xff
 8001ace:	d101      	bne.n	8001ad4 <set_async_key>
 8001ad0:	2000      	movs	r0, #0
 8001ad2:	4770      	bx	lr

08001ad4 <set_async_key>:
 8001ad4:	b406      	push	{r1, r2}
 8001ad6:	f894 207e 	ldrb.w	r2, [r4, #126]	; 0x7e
 8001ada:	f8df 1440 	ldr.w	r1, [pc, #1088]	; 8001f1c <WKEY+0x20>
 8001ade:	e8d1 f000 	tbb	[r1, r0]

08001ae2 <shift_key>:
 8001ae2:	f04f 0008 	mov.w	r0, #8
 8001ae6:	e004      	b.n	8001af2 <set_reset>

08001ae8 <ctrl_key>:
 8001ae8:	f04f 0010 	mov.w	r0, #16
 8001aec:	e001      	b.n	8001af2 <set_reset>

08001aee <alt_key>:
 8001aee:	f04f 0020 	mov.w	r0, #32

08001af2 <set_reset>:
 8001af2:	f012 0f80 	tst.w	r2, #128	; 0x80
 8001af6:	d004      	beq.n	8001b02 <set_reset+0x10>
 8001af8:	ea6f 0000 	mvn.w	r0, r0
 8001afc:	ea02 0200 	and.w	r2, r2, r0
 8001b00:	e001      	b.n	8001b06 <set_reset+0x14>
 8001b02:	ea42 0200 	orr.w	r2, r2, r0
 8001b06:	f884 207e 	strb.w	r2, [r4, #126]	; 0x7e
 8001b0a:	f05f 30ff 	movs.w	r0, #4294967295	; 0xffffffff
 8001b0e:	bc06      	pop	{r1, r2}
 8001b10:	4770      	bx	lr

08001b12 <async_keys>:
 8001b12:	00590012 	subseq	r0, r9, r2, lsl r0
 8001b16:	01140114 	tsteq	r4, r4, lsl r1
 8001b1a:	02110211 	andseq	r0, r1, #268435457	; 0x10000001
 8001b1e:	 	movweq	pc, #3840	; 0xf00	; <UNPREDICTABLE>

08001b20 <async_jump>:
 8001b20:	00060300 	andeq	r0, r6, r0, lsl #6

08001b24 <kbd_init>:
 8001b24:	f44f 6300 	mov.w	r3, #2048	; 0x800
 8001b28:	f2c4 0302 	movt	r3, #16386	; 0x4002
 8001b2c:	4618      	mov	r0, r3
 8001b2e:	f04f 010f 	mov.w	r1, #15
 8001b32:	f04f 0200 	mov.w	r2, #0
 8001b36:	b500      	push	{lr}
 8001b38:	f7fe ff32 	bl	80009a0 <gpio_config>
 8001b3c:	f85d eb04 	ldr.w	lr, [sp], #4
 8001b40:	4618      	mov	r0, r3
 8001b42:	f04f 010e 	mov.w	r1, #14
 8001b46:	f04f 0200 	mov.w	r2, #0
 8001b4a:	b500      	push	{lr}
 8001b4c:	f7fe ff28 	bl	80009a0 <gpio_config>
 8001b50:	f85d eb04 	ldr.w	lr, [sp], #4
 8001b54:	f44f 5260 	mov.w	r2, #14336	; 0x3800
 8001b58:	f2c4 0201 	movt	r2, #16385	; 0x4001
 8001b5c:	f44f 5000 	mov.w	r0, #8192	; 0x2000
 8001b60:	8290      	strh	r0, [r2, #20]
 8001b62:	f44f 5270 	mov.w	r2, #15360	; 0x3c00
 8001b66:	f2c4 0201 	movt	r2, #16385	; 0x4001
 8001b6a:	f44f 4000 	mov.w	r0, #32768	; 0x8000
 8001b6e:	6010      	str	r0, [r2, #0]
 8001b70:	60d0      	str	r0, [r2, #12]
 8001b72:	ea80 0000 	eor.w	r0, r0, r0
 8001b76:	f8c4 0090 	str.w	r0, [r4, #144]	; 0x90
 8001b7a:	f8c4 0094 	str.w	r0, [r4, #148]	; 0x94
 8001b7e:	f04f 0028 	mov.w	r0, #40	; 0x28
 8001b82:	f04f 0101 	mov.w	r1, #1
 8001b86:	b500      	push	{lr}
 8001b88:	f7fe feae 	bl	80008e8 <nvic_set_priority>
 8001b8c:	f85d eb04 	ldr.w	lr, [sp], #4
 8001b90:	f04f 0028 	mov.w	r0, #40	; 0x28
 8001b94:	b500      	push	{lr}
 8001b96:	f7fe fec0 	bl	800091a <nvic_enable_irq>
 8001b9a:	f85d eb04 	ldr.w	lr, [sp], #4
 8001b9e:	4770      	bx	lr
 8001ba0:	0800173c 	stmdaeq	r0, {r2, r3, r4, r5, r8, r9, sl, ip}

08001ba4 <_KEY_ASYNC>:
 8001ba4:	59454b09 	stmdbpl	r5, {r0, r3, r8, r9, fp, lr}^
 8001ba8:	5953412d 	ldmdbpl	r3, {r0, r2, r3, r5, r8, lr}^
 8001bac:	bf00434e 	svclt	0x0000434e

08001bb0 <KEY_ASYNC>:
 8001bb0:	f847 6d04 	str.w	r6, [r7, #-4]!
 8001bb4:	f894 607e 	ldrb.w	r6, [r4, #126]	; 0x7e
 8001bb8:	f006 06fc 	and.w	r6, r6, #252	; 0xfc
 8001bbc:	f001 ba7a 	b.w	80030b4 <INEXT>

08001bc0 <keycode>:
 8001bc0:	b40e      	push	{r1, r2, r3}
 8001bc2:	ea80 0000 	eor.w	r0, r0, r0
 8001bc6:	f104 0380 	add.w	r3, r4, #128	; 0x80
 8001bca:	f8d4 1090 	ldr.w	r1, [r4, #144]	; 0x90
 8001bce:	f8d4 2094 	ldr.w	r2, [r4, #148]	; 0x94
 8001bd2:	4291      	cmp	r1, r2
 8001bd4:	d006      	beq.n	8001be4 <keycode+0x24>
 8001bd6:	5c58      	ldrb	r0, [r3, r1]
 8001bd8:	f101 0101 	add.w	r1, r1, #1
 8001bdc:	f001 010f 	and.w	r1, r1, #15
 8001be0:	f8c4 1090 	str.w	r1, [r4, #144]	; 0x90
 8001be4:	bc0e      	pop	{r1, r2, r3}
 8001be6:	4770      	bx	lr

08001be8 <wait_code>:
 8001be8:	b500      	push	{lr}
 8001bea:	f7ff ffe9 	bl	8001bc0 <keycode>
 8001bee:	f85d eb04 	ldr.w	lr, [sp], #4
 8001bf2:	0000      	movs	r0, r0
 8001bf4:	d0f8      	beq.n	8001be8 <wait_code>
 8001bf6:	4770      	bx	lr

08001bf8 <table_scan>:
 8001bf8:	b404      	push	{r2}
 8001bfa:	f811 2b01 	ldrb.w	r2, [r1], #1
 8001bfe:	b122      	cbz	r2, 8001c0a <table_scan+0x12>
 8001c00:	4282      	cmp	r2, r0
 8001c02:	d002      	beq.n	8001c0a <table_scan+0x12>
 8001c04:	f101 0101 	add.w	r1, r1, #1
 8001c08:	e7f7      	b.n	8001bfa <table_scan+0x2>
 8001c0a:	7808      	ldrb	r0, [r1, #0]
 8001c0c:	0000      	movs	r0, r0
 8001c0e:	bc04      	pop	{r2}
 8001c10:	4770      	bx	lr
 8001c12:	08001ba4 	stmdaeq	r0, {r2, r5, r7, r8, r9, fp, ip}

08001c16 <_PS2_QKEY>:
 8001c16:	32535008 	subscc	r5, r3, #8
 8001c1a:	59454b2d 	stmdbpl	r5, {r0, r2, r3, r5, r8, r9, fp, lr}^
 8001c1e:	 			; <UNDEFINED> instruction: 0xf847003f

08001c20 <PS2_QKEY>:
 8001c20:	f847 6d04 	str.w	r6, [r7, #-4]!
 8001c24:	ea86 0606 	eor.w	r6, r6, r6
 8001c28:	49bd      	ldr	r1, [pc, #756]	; (8001f20 <WKEY+0x24>)
 8001c2a:	f894 007e 	ldrb.w	r0, [r4, #126]	; 0x7e
 8001c2e:	f04f 0240 	mov.w	r2, #64	; 0x40
 8001c32:	4210      	tst	r0, r2
 8001c34:	d000      	beq.n	8001c38 <PS2_QKEY+0x18>
 8001c36:	49bb      	ldr	r1, [pc, #748]	; (8001f24 <WKEY+0x28>)
 8001c38:	b500      	push	{lr}
 8001c3a:	f7ff ffc1 	bl	8001bc0 <keycode>
 8001c3e:	f85d eb04 	ldr.w	lr, [sp], #4
 8001c42:	b198      	cbz	r0, 8001c6c <inkey_exit>
 8001c44:	28e1      	cmp	r0, #225	; 0xe1
 8001c46:	d013      	beq.n	8001c70 <pause_key>
 8001c48:	b500      	push	{lr}
 8001c4a:	f7ff ffd5 	bl	8001bf8 <table_scan>
 8001c4e:	f85d eb04 	ldr.w	lr, [sp], #4
 8001c52:	4606      	mov	r6, r0
 8001c54:	b500      	push	{lr}
 8001c56:	f000 f816 	bl	8001c86 <do_modifiers>
 8001c5a:	f85d eb04 	ldr.w	lr, [sp], #4
 8001c5e:	2e03      	cmp	r6, #3
 8001c60:	f43e ad19 	beq.w	8000696 <user_reboot>
 8001c64:	f847 6d04 	str.w	r6, [r7, #-4]!
 8001c68:	f04f 36ff 	mov.w	r6, #4294967295	; 0xffffffff

08001c6c <inkey_exit>:
 8001c6c:	f001 ba22 	b.w	80030b4 <INEXT>

08001c70 <pause_key>:
 8001c70:	f04f 0107 	mov.w	r1, #7
 8001c74:	b500      	push	{lr}
 8001c76:	f7ff ffb7 	bl	8001be8 <wait_code>
 8001c7a:	f85d eb04 	ldr.w	lr, [sp], #4
 8001c7e:	3901      	subs	r1, #1
 8001c80:	d1f8      	bne.n	8001c74 <pause_key+0x4>
 8001c82:	f001 ba17 	b.w	80030b4 <INEXT>

08001c86 <do_modifiers>:
 8001c86:	f894 007e 	ldrb.w	r0, [r4, #126]	; 0x7e
 8001c8a:	f010 0f08 	tst.w	r0, #8
 8001c8e:	d106      	bne.n	8001c9e <shift_down>
 8001c90:	f010 0f20 	tst.w	r0, #32
 8001c94:	d106      	bne.n	8001ca4 <altchar_down>
 8001c96:	f010 0f10 	tst.w	r0, #16
 8001c9a:	d106      	bne.n	8001caa <ctrl_down>
 8001c9c:	e00d      	b.n	8001cba <ctrl_down+0x10>

08001c9e <shift_down>:
 8001c9e:	4630      	mov	r0, r6
 8001ca0:	49a1      	ldr	r1, [pc, #644]	; (8001f28 <WKEY+0x2c>)
 8001ca2:	e004      	b.n	8001cae <ctrl_down+0x4>

08001ca4 <altchar_down>:
 8001ca4:	4630      	mov	r0, r6
 8001ca6:	49a1      	ldr	r1, [pc, #644]	; (8001f2c <WKEY+0x30>)
 8001ca8:	e001      	b.n	8001cae <ctrl_down+0x4>

08001caa <ctrl_down>:
 8001caa:	4630      	mov	r0, r6
 8001cac:	49a0      	ldr	r1, [pc, #640]	; (8001f30 <WKEY+0x34>)
 8001cae:	b500      	push	{lr}
 8001cb0:	f7ff ffa2 	bl	8001bf8 <table_scan>
 8001cb4:	f85d eb04 	ldr.w	lr, [sp], #4
 8001cb8:	4606      	mov	r6, r0
 8001cba:	b500      	push	{lr}
 8001cbc:	f000 f803 	bl	8001cc6 <do_capslock>
 8001cc0:	f85d eb04 	ldr.w	lr, [sp], #4
 8001cc4:	4770      	bx	lr

08001cc6 <do_capslock>:
 8001cc6:	f894 007e 	ldrb.w	r0, [r4, #126]	; 0x7e
 8001cca:	f010 0f04 	tst.w	r0, #4
 8001cce:	d00b      	beq.n	8001ce8 <do_capslock+0x22>
 8001cd0:	2e41      	cmp	r6, #65	; 0x41
 8001cd2:	d409      	bmi.n	8001ce8 <do_capslock+0x22>
 8001cd4:	2e5b      	cmp	r6, #91	; 0x5b
 8001cd6:	d403      	bmi.n	8001ce0 <do_capslock+0x1a>
 8001cd8:	2e61      	cmp	r6, #97	; 0x61
 8001cda:	d405      	bmi.n	8001ce8 <do_capslock+0x22>
 8001cdc:	2e7b      	cmp	r6, #123	; 0x7b
 8001cde:	d503      	bpl.n	8001ce8 <do_capslock+0x22>
 8001ce0:	f04f 0020 	mov.w	r0, #32
 8001ce4:	ea86 0600 	eor.w	r6, r6, r0
 8001ce8:	4770      	bx	lr

08001cea <kbd_send>:
 8001cea:	b40f      	push	{r0, r1, r2, r3}
 8001cec:	6f20      	ldr	r0, [r4, #112]	; 0x70
 8001cee:	2801      	cmp	r0, #1
 8001cf0:	d1fc      	bne.n	8001cec <kbd_send+0x2>
 8001cf2:	f04f 001d 	mov.w	r0, #29
 8001cf6:	b500      	push	{lr}
 8001cf8:	f7fe fe24 	bl	8000944 <nvic_disable_irq>
 8001cfc:	f85d eb04 	ldr.w	lr, [sp], #4
 8001d00:	f44f 6300 	mov.w	r3, #2048	; 0x800
 8001d04:	f2c4 0302 	movt	r3, #16386	; 0x4002
 8001d08:	4618      	mov	r0, r3
 8001d0a:	f04f 010f 	mov.w	r1, #15
 8001d0e:	f04f 0211 	mov.w	r2, #17
 8001d12:	b500      	push	{lr}
 8001d14:	f7fe fe44 	bl	80009a0 <gpio_config>
 8001d18:	f85d eb04 	ldr.w	lr, [sp], #4
 8001d1c:	4618      	mov	r0, r3
 8001d1e:	f04f 010f 	mov.w	r1, #15
 8001d22:	ea82 0202 	eor.w	r2, r2, r2
 8001d26:	b500      	push	{lr}
 8001d28:	f7fe fe90 	bl	8000a4c <gpio_out>
 8001d2c:	f85d eb04 	ldr.w	lr, [sp], #4
 8001d30:	f44f 50e1 	mov.w	r0, #7200	; 0x1c20
 8001d34:	3801      	subs	r0, #1
 8001d36:	d1fd      	bne.n	8001d34 <kbd_send+0x4a>
 8001d38:	bc01      	pop	{r0}
 8001d3a:	f884 007d 	strb.w	r0, [r4, #125]	; 0x7d
 8001d3e:	f8d4 007e 	ldr.w	r0, [r4, #126]	; 0x7e
 8001d42:	f040 0002 	orr.w	r0, r0, #2
 8001d46:	f884 007e 	strb.w	r0, [r4, #126]	; 0x7e
 8001d4a:	ea80 0000 	eor.w	r0, r0, r0
 8001d4e:	f884 007c 	strb.w	r0, [r4, #124]	; 0x7c
 8001d52:	f884 007f 	strb.w	r0, [r4, #127]	; 0x7f
 8001d56:	4618      	mov	r0, r3
 8001d58:	f04f 010e 	mov.w	r1, #14
 8001d5c:	f04f 0211 	mov.w	r2, #17
 8001d60:	b500      	push	{lr}
 8001d62:	f7fe fe1d 	bl	80009a0 <gpio_config>
 8001d66:	f85d eb04 	ldr.w	lr, [sp], #4
 8001d6a:	4618      	mov	r0, r3
 8001d6c:	f04f 010e 	mov.w	r1, #14
 8001d70:	ea82 0202 	eor.w	r2, r2, r2
 8001d74:	b500      	push	{lr}
 8001d76:	f7fe fe69 	bl	8000a4c <gpio_out>
 8001d7a:	f85d eb04 	ldr.w	lr, [sp], #4
 8001d7e:	4618      	mov	r0, r3
 8001d80:	f04f 010f 	mov.w	r1, #15
 8001d84:	f04f 0200 	mov.w	r2, #0
 8001d88:	b500      	push	{lr}
 8001d8a:	f7fe fe09 	bl	80009a0 <gpio_config>
 8001d8e:	f85d eb04 	ldr.w	lr, [sp], #4
 8001d92:	f04f 000a 	mov.w	r0, #10
 8001d96:	60e0      	str	r0, [r4, #12]
 8001d98:	68e0      	ldr	r0, [r4, #12]
 8001d9a:	b120      	cbz	r0, 8001da6 <kbd_send+0xbc>
 8001d9c:	f894 007e 	ldrb.w	r0, [r4, #126]	; 0x7e
 8001da0:	f010 0f02 	tst.w	r0, #2
 8001da4:	d1f8      	bne.n	8001d98 <kbd_send+0xae>
 8001da6:	f04f 001d 	mov.w	r0, #29
 8001daa:	b500      	push	{lr}
 8001dac:	f7fe fdb5 	bl	800091a <nvic_enable_irq>
 8001db0:	f85d eb04 	ldr.w	lr, [sp], #4
 8001db4:	f894 007e 	ldrb.w	r0, [r4, #126]	; 0x7e
 8001db8:	f020 0102 	bic.w	r1, r0, #2
 8001dbc:	f884 107e 	strb.w	r1, [r4, #126]	; 0x7e
 8001dc0:	f000 0002 	and.w	r0, r0, #2
 8001dc4:	b148      	cbz	r0, 8001dda <kbd_send+0xf0>
 8001dc6:	6819      	ldr	r1, [r3, #0]
 8001dc8:	f021 5140 	bic.w	r1, r1, #805306368	; 0x30000000
 8001dcc:	6019      	str	r1, [r3, #0]
 8001dce:	ea80 0000 	eor.w	r0, r0, r0
 8001dd2:	f884 007c 	strb.w	r0, [r4, #124]	; 0x7c
 8001dd6:	ea6f 0000 	mvn.w	r0, r0
 8001dda:	bc0e      	pop	{r1, r2, r3}
 8001ddc:	4770      	bx	lr

08001dde <kbd_clear_queue>:
 8001dde:	ea80 0000 	eor.w	r0, r0, r0
 8001de2:	f8c4 0090 	str.w	r0, [r4, #144]	; 0x90
 8001de6:	f8c4 0094 	str.w	r0, [r4, #148]	; 0x94
 8001dea:	f894 007e 	ldrb.w	r0, [r4, #126]	; 0x7e
 8001dee:	f06f 0103 	mvn.w	r1, #3
 8001df2:	ea00 0001 	and.w	r0, r0, r1
 8001df6:	f884 007e 	strb.w	r0, [r4, #126]	; 0x7e
 8001dfa:	4770      	bx	lr
 8001dfc:	08001c16 	stmdaeq	r0, {r1, r2, r4, sl, fp, ip}

08001e00 <_KBD_RST>:
 8001e00:	44424b07 	strbmi	r4, [r2], #-2823	; 0xfffff4f9
 8001e04:	5453522d 	ldrbpl	r5, [r3], #-557	; 0xfffffdd3

08001e08 <KBD_RST>:
 8001e08:	f04f 00ff 	mov.w	r0, #255	; 0xff
 8001e0c:	b500      	push	{lr}
 8001e0e:	f7ff ff6c 	bl	8001cea <kbd_send>
 8001e12:	f85d eb04 	ldr.w	lr, [sp], #4
 8001e16:	b9b8      	cbnz	r0, 8001e48 <KBD_RST+0x40>
 8001e18:	b500      	push	{lr}
 8001e1a:	f7ff ffe0 	bl	8001dde <kbd_clear_queue>
 8001e1e:	f85d eb04 	ldr.w	lr, [sp], #4
 8001e22:	b500      	push	{lr}
 8001e24:	f7ff fee0 	bl	8001be8 <wait_code>
 8001e28:	f85d eb04 	ldr.w	lr, [sp], #4
 8001e2c:	28fe      	cmp	r0, #254	; 0xfe
 8001e2e:	d0eb      	beq.n	8001e08 <KBD_RST>
 8001e30:	f44f 70fa 	mov.w	r0, #500	; 0x1f4
 8001e34:	60e0      	str	r0, [r4, #12]
 8001e36:	b500      	push	{lr}
 8001e38:	f7ff fec2 	bl	8001bc0 <keycode>
 8001e3c:	f85d eb04 	ldr.w	lr, [sp], #4
 8001e40:	b910      	cbnz	r0, 8001e48 <KBD_RST+0x40>
 8001e42:	68e0      	ldr	r0, [r4, #12]
 8001e44:	2800      	cmp	r0, #0
 8001e46:	d1f6      	bne.n	8001e36 <KBD_RST+0x2e>
 8001e48:	f847 6d04 	str.w	r6, [r7, #-4]!
 8001e4c:	4606      	mov	r6, r0
 8001e4e:	f001 b931 	b.w	80030b4 <INEXT>
 8001e52:	08001e00 	stmdaeq	r0, {r9, sl, fp, ip}

08001e56 <_KBD_LED>:
 8001e56:	44424b07 	strbmi	r4, [r2], #-2823	; 0xfffff4f9
 8001e5a:	44454c2d 	strbmi	r4, [r5], #-3117	; 0xfffff3d3
 8001e5e:	bf00      	nop

08001e60 <KBD_LED>:
 8001e60:	b500      	push	{lr}
 8001e62:	f7ff ffbc 	bl	8001dde <kbd_clear_queue>
 8001e66:	f85d eb04 	ldr.w	lr, [sp], #4
 8001e6a:	f04f 00ed 	mov.w	r0, #237	; 0xed
 8001e6e:	b500      	push	{lr}
 8001e70:	f7ff ff3b 	bl	8001cea <kbd_send>
 8001e74:	f85d eb04 	ldr.w	lr, [sp], #4
 8001e78:	b500      	push	{lr}
 8001e7a:	f7ff feb5 	bl	8001be8 <wait_code>
 8001e7e:	f85d eb04 	ldr.w	lr, [sp], #4
 8001e82:	28fe      	cmp	r0, #254	; 0xfe
 8001e84:	d0ec      	beq.n	8001e60 <KBD_LED>
 8001e86:	28fa      	cmp	r0, #250	; 0xfa
 8001e88:	d1f6      	bne.n	8001e78 <KBD_LED+0x18>
 8001e8a:	4630      	mov	r0, r6
 8001e8c:	f000 0007 	and.w	r0, r0, #7
 8001e90:	b500      	push	{lr}
 8001e92:	f7ff ff2a 	bl	8001cea <kbd_send>
 8001e96:	f85d eb04 	ldr.w	lr, [sp], #4
 8001e9a:	b500      	push	{lr}
 8001e9c:	f7ff fea4 	bl	8001be8 <wait_code>
 8001ea0:	f85d eb04 	ldr.w	lr, [sp], #4
 8001ea4:	28fe      	cmp	r0, #254	; 0xfe
 8001ea6:	d0f0      	beq.n	8001e8a <KBD_LED+0x2a>
 8001ea8:	28fa      	cmp	r0, #250	; 0xfa
 8001eaa:	d1f6      	bne.n	8001e9a <KBD_LED+0x3a>
 8001eac:	f857 6b04 	ldr.w	r6, [r7], #4
 8001eb0:	f001 b900 	b.w	80030b4 <INEXT>
 8001eb4:	08001e56 	stmdaeq	r0, {r1, r2, r4, r6, r9, sl, fp, ip}

08001eb8 <_CAPS_LED>:
 8001eb8:	50414308 	subpl	r4, r1, r8, lsl #6
 8001ebc:	454c2d53 	strbmi	r2, [ip, #-3411]	; 0xfffff2ad
 8001ec0:	bf000044 	svclt	0x00000044

08001ec4 <CAPS_LED>:
 8001ec4:	f894 007e 	ldrb.w	r0, [r4, #126]	; 0x7e
 8001ec8:	f010 0f01 	tst.w	r0, #1
 8001ecc:	d101      	bne.n	8001ed2 <CAPS_LED+0xe>
 8001ece:	f001 b8f1 	b.w	80030b4 <INEXT>
 8001ed2:	f847 6d04 	str.w	r6, [r7, #-4]!
 8001ed6:	f06f 0101 	mvn.w	r1, #1
 8001eda:	ea00 0001 	and.w	r0, r0, r1
 8001ede:	f884 007e 	strb.w	r0, [r4, #126]	; 0x7e
 8001ee2:	f000 0604 	and.w	r6, r0, #4
 8001ee6:	4d13      	ldr	r5, [pc, #76]	; (8001f34 <WKEY+0x38>)
 8001ee8:	f045 0501 	orr.w	r5, r5, #1
 8001eec:	e7b8      	b.n	8001e60 <KBD_LED>
 8001eee:	08001eb8 	stmdaeq	r0, {r3, r4, r5, r7, r9, sl, fp, ip}

08001ef2 <_WKEY>:
 8001ef2:	49415708 	stmdbmi	r1, {r3, r8, r9, sl, ip, lr}^
 8001ef6:	454b2d54 	strbmi	r2, [fp, #-3412]	; 0xfffff2ac
 8001efa:	 			; <UNDEFINED> instruction: 0x47500059

08001efc <WKEY>:
 8001efc:	4750      	bx	sl
 8001efe:	bf00      	nop
 8001f00:	08001ec5 	stmdaeq	r0, {r0, r2, r6, r7, r9, sl, fp, ip}
 8001f04:	08001c21 	stmdaeq	r0, {r0, r5, sl, fp, ip}
 8001f08:	08003679 	stmdaeq	r0, {r0, r3, r4, r5, r6, r9, sl, ip, sp}
 8001f0c:	0800331f 	stmdaeq	r0, {r0, r1, r2, r3, r4, r8, r9, ip, sp}
 8001f10:	08001f00 	stmdaeq	r0, {r8, r9, sl, fp, ip}
 8001f14:	080030bb 	stmdaeq	r0, {r0, r1, r3, r4, r5, r7, ip, sp}
 8001f18:	08001b12 	stmdaeq	r0, {r1, r4, r8, r9, fp, ip}
 8001f1c:	08001b20 	stmdaeq	r0, {r5, r8, r9, fp, ip}
 8001f20:	08001780 	stmdaeq	r0, {r7, r8, r9, sl, ip}
 8001f24:	080018a4 	stmdaeq	r0, {r2, r5, r7, fp, ip}
 8001f28:	08001834 	stmdaeq	r0, {r2, r4, r5, fp, ip}
 8001f2c:	08001894 	stmdaeq	r0, {r2, r4, r7, fp, ip}
 8001f30:	080018cc 	stmdaeq	r0, {r2, r3, r6, r7, fp, ip}
 8001f34:	08001e60 	stmdaeq	r0, {r5, r6, r9, sl, fp, ip}

08001f38 <flash_spi_init>:
 8001f38:	f04f 0000 	mov.w	r0, #0
 8001f3c:	f2c4 0002 	movt	r0, #16386	; 0x4002
 8001f40:	4603      	mov	r3, r0
 8001f42:	f04f 0104 	mov.w	r1, #4
 8001f46:	f04f 0201 	mov.w	r2, #1
 8001f4a:	b500      	push	{lr}
 8001f4c:	f7fe fd28 	bl	80009a0 <gpio_config>
 8001f50:	f85d eb04 	ldr.w	lr, [sp], #4
 8001f54:	4618      	mov	r0, r3
 8001f56:	f04f 0104 	mov.w	r1, #4
 8001f5a:	f04f 0201 	mov.w	r2, #1
 8001f5e:	b500      	push	{lr}
 8001f60:	f7fe fd74 	bl	8000a4c <gpio_out>
 8001f64:	f85d eb04 	ldr.w	lr, [sp], #4
 8001f68:	4618      	mov	r0, r3
 8001f6a:	f04f 0105 	mov.w	r1, #5
 8001f6e:	f04f 0202 	mov.w	r2, #2
 8001f72:	b500      	push	{lr}
 8001f74:	f7fe fd14 	bl	80009a0 <gpio_config>
 8001f78:	f85d eb04 	ldr.w	lr, [sp], #4
 8001f7c:	4618      	mov	r0, r3
 8001f7e:	f04f 0107 	mov.w	r1, #7
 8001f82:	f04f 0202 	mov.w	r2, #2
 8001f86:	b500      	push	{lr}
 8001f88:	f7fe fd0a 	bl	80009a0 <gpio_config>
 8001f8c:	f85d eb04 	ldr.w	lr, [sp], #4
 8001f90:	4618      	mov	r0, r3
 8001f92:	f04f 0106 	mov.w	r1, #6
 8001f96:	f04f 0202 	mov.w	r2, #2
 8001f9a:	b500      	push	{lr}
 8001f9c:	f7fe fd00 	bl	80009a0 <gpio_config>
 8001fa0:	f85d eb04 	ldr.w	lr, [sp], #4
 8001fa4:	f64c 40aa 	movw	r0, #52394	; 0xccaa
 8001fa8:	8118      	strh	r0, [r3, #8]
 8001faa:	f44f 5060 	mov.w	r0, #14336	; 0x3800
 8001fae:	f2c4 0002 	movt	r0, #16386	; 0x4002
 8001fb2:	6c41      	ldr	r1, [r0, #68]	; 0x44
 8001fb4:	f441 5180 	orr.w	r1, r1, #4096	; 0x1000
 8001fb8:	6441      	str	r1, [r0, #68]	; 0x44
 8001fba:	f44f 5040 	mov.w	r0, #12288	; 0x3000
 8001fbe:	f2c4 0001 	movt	r0, #16385	; 0x4001
 8001fc2:	f44f 7153 	mov.w	r1, #844	; 0x34c
 8001fc6:	8001      	strh	r1, [r0, #0]
 8001fc8:	6a19      	ldr	r1, [r3, #32]
 8001fca:	ea80 0000 	eor.w	r0, r0, r0
 8001fce:	f2c5 5050 	movt	r0, #21840	; 0x5550
 8001fd2:	ea40 0001 	orr.w	r0, r0, r1
 8001fd6:	6218      	str	r0, [r3, #32]
 8001fd8:	4770      	bx	lr
 8001fda:	08001ef2 	stmdaeq	r0, {r1, r4, r5, r6, r7, r9, sl, fp, ip}

08001fde <_CHIP_SEL>:
 8001fde:	49484308 	stmdbmi	r8, {r3, r8, r9, lr}^
 8001fe2:	45532d50 	ldrbmi	r2, [r3, #-3408]	; 0xfffff2b0
 8001fe6:	 			; <UNDEFINED> instruction: 0xf04f004c

08001fe8 <CHIP_SEL>:
 8001fe8:	f04f 0000 	mov.w	r0, #0
 8001fec:	f2c4 0002 	movt	r0, #16386	; 0x4002
 8001ff0:	f04f 0104 	mov.w	r1, #4
 8001ff4:	f04f 0200 	mov.w	r2, #0
 8001ff8:	b500      	push	{lr}
 8001ffa:	f7fe fd27 	bl	8000a4c <gpio_out>
 8001ffe:	f85d eb04 	ldr.w	lr, [sp], #4
 8002002:	f001 b857 	b.w	80030b4 <INEXT>
 8002006:	08001fde 	stmdaeq	r0, {r1, r2, r3, r4, r6, r7, r8, r9, sl, fp, ip}

0800200a <_CHIP_DSEL>:
 800200a:	49484309 	stmdbmi	r8, {r0, r3, r8, r9, lr}^
 800200e:	53442d50 	movtpl	r2, #19792	; 0x4d50
 8002012:	 			; <UNDEFINED> instruction: 0xf44f4c45

08002014 <CHIP_DSEL>:
 8002014:	f44f 5040 	mov.w	r0, #12288	; 0x3000
 8002018:	f2c4 0001 	movt	r0, #16385	; 0x4001
 800201c:	8901      	ldrh	r1, [r0, #8]
 800201e:	f011 0f80 	tst.w	r1, #128	; 0x80
 8002022:	d1fb      	bne.n	800201c <CHIP_DSEL+0x8>
 8002024:	f04f 0000 	mov.w	r0, #0
 8002028:	f2c4 0002 	movt	r0, #16386	; 0x4002
 800202c:	f04f 0104 	mov.w	r1, #4
 8002030:	f04f 0201 	mov.w	r2, #1
 8002034:	b500      	push	{lr}
 8002036:	f7fe fd09 	bl	8000a4c <gpio_out>
 800203a:	f85d eb04 	ldr.w	lr, [sp], #4
 800203e:	f001 b839 	b.w	80030b4 <INEXT>
 8002042:	0800200a 	stmdaeq	r0, {r1, r3, sp}

08002046 <_RD_BYTE>:
 8002046:	2d445207 	sfmcs	f5, 2, [r4, #-28]	; 0xffffffe4
 800204a:	45545942 	ldrbmi	r5, [r4, #-2370]	; 0xfffff6be
 800204e:	bf00      	nop

08002050 <RD_BYTE>:
 8002050:	f44f 5040 	mov.w	r0, #12288	; 0x3000
 8002054:	f2c4 0001 	movt	r0, #16385	; 0x4001
 8002058:	8901      	ldrh	r1, [r0, #8]
 800205a:	f011 0f02 	tst.w	r1, #2
 800205e:	d0fb      	beq.n	8002058 <RD_BYTE+0x8>
 8002060:	f06f 0100 	mvn.w	r1, #0
 8002064:	7301      	strb	r1, [r0, #12]
 8002066:	8901      	ldrh	r1, [r0, #8]
 8002068:	f011 0f01 	tst.w	r1, #1
 800206c:	d0fb      	beq.n	8002066 <RD_BYTE+0x16>
 800206e:	f847 6d04 	str.w	r6, [r7, #-4]!
 8002072:	7b06      	ldrb	r6, [r0, #12]
 8002074:	f001 b81e 	b.w	80030b4 <INEXT>
 8002078:	08002046 	stmdaeq	r0, {r1, r2, r6, sp}

0800207c <_WR_BYTE>:
 800207c:	2d525707 	ldclcs	7, cr5, [r2, #-28]	; 0xffffffe4
 8002080:	45545942 	ldrbmi	r5, [r4, #-2370]	; 0xfffff6be

08002084 <WR_BYTE>:
 8002084:	f44f 5040 	mov.w	r0, #12288	; 0x3000
 8002088:	f2c4 0001 	movt	r0, #16385	; 0x4001
 800208c:	8901      	ldrh	r1, [r0, #8]
 800208e:	f011 0f02 	tst.w	r1, #2
 8002092:	d0fb      	beq.n	800208c <WR_BYTE+0x8>
 8002094:	7306      	strb	r6, [r0, #12]
 8002096:	8901      	ldrh	r1, [r0, #8]
 8002098:	f011 0f01 	tst.w	r1, #1
 800209c:	d0fb      	beq.n	8002096 <WR_BYTE+0x12>
 800209e:	8981      	ldrh	r1, [r0, #12]
 80020a0:	f857 6b04 	ldr.w	r6, [r7], #4
 80020a4:	f001 b806 	b.w	80030b4 <INEXT>
 80020a8:	0800207c 	stmdaeq	r0, {r2, r3, r4, r5, r6, sp}

080020ac <_WR_DIS>:
 80020ac:	2d525706 	ldclcs	7, cr5, [r2, #-24]	; 0xffffffe8
 80020b0:	00534944 	subseq	r4, r3, r4, asr #18

080020b4 <WR_DIS>:
 80020b4:	4750      	bx	sl
 80020b6:	bf00      	nop
 80020b8:	08001fe9 	stmdaeq	r0, {r0, r3, r5, r6, r7, r8, r9, sl, fp, ip}
 80020bc:	080032df 	stmdaeq	r0, {r0, r1, r2, r3, r4, r6, r7, r9, ip, sp}
 80020c0:	00000004 	andeq	r0, r0, r4
 80020c4:	08002085 	stmdaeq	r0, {r0, r2, r7, sp}
 80020c8:	08002015 	stmdaeq	r0, {r0, r2, r4, sp}
 80020cc:	080030bb 	stmdaeq	r0, {r0, r1, r3, r4, r5, r7, ip, sp}
 80020d0:	080020ac 	stmdaeq	r0, {r2, r3, r5, r7, sp}

080020d4 <_WR_ENBL>:
 80020d4:	2d525707 	ldclcs	7, cr5, [r2, #-28]	; 0xffffffe4
 80020d8:	4c424e45 	mcrrmi	14, 4, r4, r2, cr5

080020dc <WR_ENBL>:
 80020dc:	4750      	bx	sl
 80020de:	bf00      	nop
 80020e0:	08001fe9 	stmdaeq	r0, {r0, r3, r5, r6, r7, r8, r9, sl, fp, ip}
 80020e4:	080032df 	stmdaeq	r0, {r0, r1, r2, r3, r4, r6, r7, r9, ip, sp}
 80020e8:	00000006 	andeq	r0, r0, r6
 80020ec:	08002085 	stmdaeq	r0, {r0, r2, r7, sp}
 80020f0:	08002015 	stmdaeq	r0, {r0, r2, r4, sp}
 80020f4:	080030bb 	stmdaeq	r0, {r0, r1, r3, r4, r5, r7, ip, sp}
 80020f8:	080020d4 	stmdaeq	r0, {r2, r4, r6, r7, sp}

080020fc <_RD_SR>:
 80020fc:	2d445205 	sfmcs	f5, 2, [r4, #-20]	; 0xffffffec
 8002100:	bf005253 	svclt	0x00005253

08002104 <RD_SR>:
 8002104:	4750      	bx	sl
 8002106:	bf00      	nop
 8002108:	08001fe9 	stmdaeq	r0, {r0, r3, r5, r6, r7, r8, r9, sl, fp, ip}
 800210c:	080032df 	stmdaeq	r0, {r0, r1, r2, r3, r4, r6, r7, r9, ip, sp}
 8002110:	0800212c 	stmdaeq	r0, {r2, r3, r5, r8, sp}
 8002114:	08003569 	stmdaeq	r0, {r0, r3, r5, r6, r8, sl, ip, sp}
 8002118:	08003395 	stmdaeq	r0, {r0, r2, r4, r7, r8, r9, ip, sp}
 800211c:	08002085 	stmdaeq	r0, {r0, r2, r7, sp}
 8002120:	08002051 	stmdaeq	r0, {r0, r4, r6, sp}
 8002124:	08002015 	stmdaeq	r0, {r0, r2, r4, sp}
 8002128:	080030bb 	stmdaeq	r0, {r0, r1, r3, r4, r5, r7, ip, sp}

0800212c <sr_cmd>:
 800212c:	fc153505 	ldc2	5, cr3, [r5], {5}
 8002130:	 	stmdaeq	r8, {r5}

08002133 <_SEND_ADR>:
 8002133:	4e455308 	cdpmi	3, 4, cr5, cr5, cr8, {0}
 8002137:	44412d44 	strbmi	r2, [r1], #-3396	; 0xfffff2bc
 800213b:	 	subeq	r5, r7, r2, asr r0

0800213c <SEND_ADR>:
 800213c:	4750      	bx	sl
 800213e:	bf00      	nop
 8002140:	08003469 	stmdaeq	r0, {r0, r3, r5, r6, sl, ip, sp}
 8002144:	080032df 	stmdaeq	r0, {r0, r1, r2, r3, r4, r6, r7, r9, ip, sp}
 8002148:	00000010 	andeq	r0, r0, r0, lsl r0
 800214c:	08003541 	stmdaeq	r0, {r0, r6, r8, sl, ip, sp}
 8002150:	08002085 	stmdaeq	r0, {r0, r2, r7, sp}
 8002154:	08003469 	stmdaeq	r0, {r0, r3, r5, r6, sl, ip, sp}
 8002158:	080032df 	stmdaeq	r0, {r0, r1, r2, r3, r4, r6, r7, r9, ip, sp}
 800215c:	00000008 	andeq	r0, r0, r8
 8002160:	08003541 	stmdaeq	r0, {r0, r6, r8, sl, ip, sp}
 8002164:	08002085 	stmdaeq	r0, {r0, r2, r7, sp}
 8002168:	08002085 	stmdaeq	r0, {r0, r2, r7, sp}
 800216c:	080030bb 	stmdaeq	r0, {r0, r1, r3, r4, r5, r7, ip, sp}
 8002170:	08002133 	stmdaeq	r0, {r0, r1, r4, r5, r8, sp}

08002174 <_WAIT_DONE>:
 8002174:	49415709 	stmdbmi	r1, {r0, r3, r8, r9, sl, ip, lr}^
 8002178:	4f442d54 	svcmi	0x00442d54
 800217c:	bf00454e 	svclt	0x0000454e

08002180 <WAIT_DONE>:
 8002180:	4750      	bx	sl
 8002182:	bf00      	nop
 8002184:	080032df 	stmdaeq	r0, {r0, r1, r2, r3, r4, r6, r7, r9, ip, sp}
 8002188:	00000000 	andeq	r0, r0, r0
 800218c:	08002105 	stmdaeq	r0, {r0, r2, r8, sp}
 8002190:	080032df 	stmdaeq	r0, {r0, r1, r2, r3, r4, r6, r7, r9, ip, sp}
 8002194:	00000003 	andeq	r0, r0, r3
 8002198:	080034e9 	stmdaeq	r0, {r0, r3, r5, r6, r7, sl, ip, sp}
 800219c:	0800331f 	stmdaeq	r0, {r0, r1, r2, r3, r4, r8, r9, ip, sp}
 80021a0:	080021ac 	stmdaeq	r0, {r2, r3, r5, r7, r8, sp}
 80021a4:	08003347 	stmdaeq	r0, {r0, r1, r2, r6, r8, r9, ip, sp}
 80021a8:	08002184 	stmdaeq	r0, {r2, r7, r8, sp}
 80021ac:	080030bb 	stmdaeq	r0, {r0, r1, r3, r4, r5, r7, ip, sp}
 80021b0:	08002174 	stmdaeq	r0, {r2, r4, r5, r6, r8, sp}

080021b4 <_ERASE_BLK>:
 80021b4:	41524509 	cmpmi	r2, r9, lsl #10
 80021b8:	422d4553 	eormi	r4, sp, #348127232	; 0x14c00000
 80021bc:	bf004b4c 	svclt	0x00004b4c

080021c0 <ERASE_BLK>:
 80021c0:	4750      	bx	sl
 80021c2:	bf00      	nop
 80021c4:	080020dd 	stmdaeq	r0, {r0, r2, r3, r4, r6, r7, sp}
 80021c8:	08001fe9 	stmdaeq	r0, {r0, r3, r5, r6, r7, r8, r9, sl, fp, ip}
 80021cc:	080032df 	stmdaeq	r0, {r0, r1, r2, r3, r4, r6, r7, r9, ip, sp}
 80021d0:	00000020 	andeq	r0, r0, r0, lsr #32
 80021d4:	08002085 	stmdaeq	r0, {r0, r2, r7, sp}
 80021d8:	0800213d 	stmdaeq	r0, {r0, r2, r3, r4, r5, r8, sp}
 80021dc:	08002015 	stmdaeq	r0, {r0, r2, r4, sp}
 80021e0:	08002181 	stmdaeq	r0, {r0, r7, r8, sp}
 80021e4:	080030bb 	stmdaeq	r0, {r0, r1, r3, r4, r5, r7, ip, sp}
 80021e8:	080021b4 	stmdaeq	r0, {r2, r4, r5, r7, r8, sp}

080021ec <_ERASE_CHIP>:
 80021ec:	4152450a 	cmpmi	r2, sl, lsl #10
 80021f0:	432d4553 			; <UNDEFINED> instruction: 0x432d4553
 80021f4:	00504948 	subseq	r4, r0, r8, asr #18

080021f8 <ERASE_CHIP>:
 80021f8:	4750      	bx	sl
 80021fa:	bf00      	nop
 80021fc:	080020dd 	stmdaeq	r0, {r0, r2, r3, r4, r6, r7, sp}
 8002200:	08001fe9 	stmdaeq	r0, {r0, r3, r5, r6, r7, r8, r9, sl, fp, ip}
 8002204:	080032df 	stmdaeq	r0, {r0, r1, r2, r3, r4, r6, r7, r9, ip, sp}
 8002208:	00000060 	andeq	r0, r0, r0, rrx
 800220c:	080032df 	stmdaeq	r0, {r0, r1, r2, r3, r4, r6, r7, r9, ip, sp}
 8002210:	000000c7 	andeq	r0, r0, r7, asr #1
 8002214:	08002085 	stmdaeq	r0, {r0, r2, r7, sp}
 8002218:	08002085 	stmdaeq	r0, {r0, r2, r7, sp}
 800221c:	08002015 	stmdaeq	r0, {r0, r2, r4, sp}
 8002220:	08002181 	stmdaeq	r0, {r0, r7, r8, sp}
 8002224:	080030bb 	stmdaeq	r0, {r0, r1, r3, r4, r5, r7, ip, sp}
 8002228:	080021ec 	stmdaeq	r0, {r2, r3, r5, r6, r7, r8, sp}

0800222c <_RD_BLK>:
 800222c:	2d445206 	sfmcs	f5, 2, [r4, #-24]	; 0xffffffe8
 8002230:	004b4c42 	subeq	r4, fp, r2, asr #24

08002234 <RD_BLK>:
 8002234:	4750      	bx	sl
 8002236:	bf00      	nop
 8002238:	08001fe9 	stmdaeq	r0, {r0, r3, r5, r6, r7, r8, r9, sl, fp, ip}
 800223c:	080032df 	stmdaeq	r0, {r0, r1, r2, r3, r4, r6, r7, r9, ip, sp}
 8002240:	00000003 	andeq	r0, r0, r3
 8002244:	08002085 	stmdaeq	r0, {r0, r2, r7, sp}
 8002248:	0800213d 	stmdaeq	r0, {r0, r2, r3, r4, r5, r8, sp}
 800224c:	080033e5 	stmdaeq	r0, {r0, r2, r5, r6, r7, r8, r9, ip, sp}
 8002250:	08003347 	stmdaeq	r0, {r0, r1, r2, r6, r8, r9, ip, sp}
 8002254:	08002268 	stmdaeq	r0, {r3, r5, r6, r9, sp}
 8002258:	08002051 	stmdaeq	r0, {r0, r4, r6, sp}
 800225c:	080034a9 	stmdaeq	r0, {r0, r3, r5, r7, sl, ip, sp}
 8002260:	08003381 	stmdaeq	r0, {r0, r7, r8, r9, ip, sp}
 8002264:	080035c5 	stmdaeq	r0, {r0, r2, r6, r7, r8, sl, ip, sp}
 8002268:	08003301 	stmdaeq	r0, {r0, r8, r9, ip, sp}
 800226c:	08002258 	stmdaeq	r0, {r3, r4, r6, r9, sp}
 8002270:	08003459 	stmdaeq	r0, {r0, r3, r4, r6, sl, ip, sp}
 8002274:	08002015 	stmdaeq	r0, {r0, r2, r4, sp}
 8002278:	080030bb 	stmdaeq	r0, {r0, r1, r3, r4, r5, r7, ip, sp}
 800227c:	0800222c 	stmdaeq	r0, {r2, r3, r5, r9, sp}

08002280 <_WR_BLK>:
 8002280:	2d525706 	ldclcs	7, cr5, [r2, #-24]	; 0xffffffe8
 8002284:	004b4c42 	subeq	r4, fp, r2, asr #24

08002288 <WR_BLK>:
 8002288:	4750      	bx	sl
 800228a:	bf00      	nop
 800228c:	080020dd 	stmdaeq	r0, {r0, r2, r3, r4, r6, r7, sp}
 8002290:	08001fe9 	stmdaeq	r0, {r0, r3, r5, r6, r7, r8, r9, sl, fp, ip}
 8002294:	080032df 	stmdaeq	r0, {r0, r1, r2, r3, r4, r6, r7, r9, ip, sp}
 8002298:	00000002 	andeq	r0, r0, r2
 800229c:	08002085 	stmdaeq	r0, {r0, r2, r7, sp}
 80022a0:	0800213d 	stmdaeq	r0, {r0, r2, r3, r4, r5, r8, sp}
 80022a4:	080033e5 	stmdaeq	r0, {r0, r2, r5, r6, r7, r8, r9, ip, sp}
 80022a8:	08003347 	stmdaeq	r0, {r0, r1, r2, r6, r8, r9, ip, sp}
 80022ac:	080022c8 	stmdaeq	r0, {r3, r6, r7, r9, sp}
 80022b0:	08003469 	stmdaeq	r0, {r0, r3, r5, r6, sl, ip, sp}
 80022b4:	08003395 	stmdaeq	r0, {r0, r2, r4, r7, r8, r9, ip, sp}
 80022b8:	08003469 	stmdaeq	r0, {r0, r3, r5, r6, sl, ip, sp}
 80022bc:	08004849 	stmdaeq	r0, {r0, r3, r6, fp, lr}
 80022c0:	08002085 	stmdaeq	r0, {r0, r2, r7, sp}
 80022c4:	080035c5 	stmdaeq	r0, {r0, r2, r6, r7, r8, sl, ip, sp}
 80022c8:	08003301 	stmdaeq	r0, {r0, r8, r9, ip, sp}
 80022cc:	080022b0 	stmdaeq	r0, {r4, r5, r7, r9, sp}
 80022d0:	08003459 	stmdaeq	r0, {r0, r3, r4, r6, sl, ip, sp}
 80022d4:	08002015 	stmdaeq	r0, {r0, r2, r4, sp}
 80022d8:	08002181 	stmdaeq	r0, {r0, r7, r8, sp}
 80022dc:	080030bb 	stmdaeq	r0, {r0, r1, r3, r4, r5, r7, ip, sp}
 80022e0:	08002280 	stmdaeq	r0, {r7, r9, sp}

080022e4 <_SEARCH_FILE>:
 80022e4:	4145530b 	cmpmi	r5, fp, lsl #6
 80022e8:	2d484352 	stclcs	3, cr4, [r8, #-328]	; 0xfffffeb8
 80022ec:	454c4946 	strbmi	r4, [ip, #-2374]	; 0xfffff6ba

080022f0 <SEARCH_FILE>:
 80022f0:	4750      	bx	sl
 80022f2:	bf00      	nop
 80022f4:	080030bb 	stmdaeq	r0, {r0, r1, r3, r4, r5, r7, ip, sp}
 80022f8:	080022e4 	stmdaeq	r0, {r2, r5, r6, r7, r9, sp}

080022fc <_ERASE_FILE>:
 80022fc:	4152450a 	cmpmi	r2, sl, lsl #10
 8002300:	462d4553 			; <UNDEFINED> instruction: 0x462d4553
 8002304:	00454c49 	subeq	r4, r5, r9, asr #24

08002308 <ERASE_FILE>:
 8002308:	4750      	bx	sl
 800230a:	bf00      	nop
 800230c:	080030bb 	stmdaeq	r0, {r0, r1, r3, r4, r5, r7, ip, sp}
 8002310:	080022fc 	stmdaeq	r0, {r2, r3, r4, r5, r6, r7, r9, sp}

08002314 <_DIR>:
 8002314:	52494403 	subpl	r4, r9, #50331648	; 0x3000000

08002318 <DIR>:
 8002318:	4750      	bx	sl
 800231a:	bf00      	nop
 800231c:	080030bb 	stmdaeq	r0, {r0, r1, r3, r4, r5, r7, ip, sp}
 8002320:	08002314 	stmdaeq	r0, {r2, r4, r8, r9, sp}

08002324 <_SAVE>:
 8002324:	56415304 	strbpl	r5, [r1], -r4, lsl #6
 8002328:	bf000045 	svclt	0x00000045

0800232c <SAVE>:
 800232c:	4750      	bx	sl
 800232e:	bf00      	nop
 8002330:	080030bb 	stmdaeq	r0, {r0, r1, r3, r4, r5, r7, ip, sp}
 8002334:	08002324 	stmdaeq	r0, {r2, r5, r8, r9, sp}

08002338 <_LOAD>:
 8002338:	414f4c04 	cmpmi	pc, r4, lsl #24
 800233c:	bf000044 	svclt	0x00000044

08002340 <LOAD>:
 8002340:	4750      	bx	sl
 8002342:	bf00      	nop
 8002344:	080030bb 	stmdaeq	r0, {r0, r1, r3, r4, r5, r7, ip, sp}
 8002348:	3089705f 	addcc	r7, r9, pc, asr r0
 800234c:	322bcc77 	eorcc	ip, fp, #30464	; 0x7700
 8002350:	33d6bf95 	bicscc	fp, r6, #596	; 0x254
 8002354:	358637bd 	strcc	r3, [r6, #1981]	; 0x7bd
 8002358:	3727c5ac 	strcc	ip, [r7, -ip, lsr #11]!
 800235c:	38d1b717 	ldmcc	r1, {r0, r1, r2, r4, r8, r9, sl, ip, sp, pc}^
 8002360:	3a83126f 	bcc	60c6d24 <FCLK+0x539524>
 8002364:	3c23d70a 	stccc	7, cr13, [r3], #-40	; 0xffffffd8
 8002368:	3dcccccd 	stclcc	12, cr12, [ip, #820]	; 0x334

0800236c <p10>:
 800236c:	3f800000 	svccc	0x00800000
 8002370:	41200000 			; <UNDEFINED> instruction: 0x41200000
 8002374:	42c80000 	sbcmi	r0, r8, #0
 8002378:	447a0000 	ldrbtmi	r0, [sl], #-0
 800237c:	461c4000 	ldrmi	r4, [ip], -r0
 8002380:	47c35000 	strbmi	r5, [r3, r0]
 8002384:	49742400 	ldmdbmi	r4!, {sl, sp}^
 8002388:	4b189680 	blmi	8627d90 <OPTKEY1+0x495355>
 800238c:	4cbebc20 	ldcmi	12, cr11, [lr], #128	; 0x80
 8002390:	4e6e6b28 	vmulmi.f64	d22, d14, d24
 8002394:	08002338 	stmdaeq	r0, {r3, r4, r5, r8, r9, sp}

08002398 <_PWR10>:
 8002398:	52575005 	subspl	r5, r7, #5
 800239c:	bf003031 	svclt	0x00003031

080023a0 <PWR10>:
 80023a0:	ea4f 0686 	mov.w	r6, r6, lsl #2
 80023a4:	48ff      	ldr	r0, [pc, #1020]	; (80027a4 <LOG2TO10+0x30>)
 80023a6:	4406      	add	r6, r0
 80023a8:	6836      	ldr	r6, [r6, #0]
 80023aa:	f000 be83 	b.w	80030b4 <INEXT>

080023ae <fpu_init>:
 80023ae:	f8df 03f8 	ldr.w	r0, [pc, #1016]	; 80027a8 <LOG2TO10+0x34>
 80023b2:	6801      	ldr	r1, [r0, #0]
 80023b4:	f441 0170 	orr.w	r1, r1, #15728640	; 0xf00000
 80023b8:	6001      	str	r1, [r0, #0]
 80023ba:	f3bf 8f4f 	dsb	sy
 80023be:	48fb      	ldr	r0, [pc, #1004]	; (80027ac <LOG2TO10+0x38>)
 80023c0:	ea81 0101 	eor.w	r1, r1, r1
 80023c4:	6001      	str	r1, [r0, #0]
 80023c6:	f3bf 8f4f 	dsb	sy
 80023ca:	4770      	bx	lr
 80023cc:	08002398 	stmdaeq	r0, {r3, r4, r7, r8, r9, sp}

080023d0 <_FDI>:
 80023d0:	49444603 	stmdbmi	r4, {r0, r1, r9, sl, lr}^

080023d4 <FDI>:
 80023d4:	f04f 0051 	mov.w	r0, #81	; 0x51
 80023d8:	b500      	push	{lr}
 80023da:	f7fe fab3 	bl	8000944 <nvic_disable_irq>
 80023de:	f85d eb04 	ldr.w	lr, [sp], #4
 80023e2:	f000 be67 	b.w	80030b4 <INEXT>
 80023e6:	080023d0 	stmdaeq	r0, {r4, r6, r7, r8, r9, sp}

080023ea <_FEI>:
 80023ea:	49454603 	stmdbmi	r5, {r0, r1, r9, sl, lr}^
 80023ee:	bf00      	nop

080023f0 <FEI>:
 80023f0:	f04f 0051 	mov.w	r0, #81	; 0x51
 80023f4:	b500      	push	{lr}
 80023f6:	f7fe fa90 	bl	800091a <nvic_enable_irq>
 80023fa:	f85d eb04 	ldr.w	lr, [sp], #4
 80023fe:	f000 be59 	b.w	80030b4 <INEXT>
 8002402:	080023ea 	stmdaeq	r0, {r1, r3, r5, r6, r7, r8, r9, sp}

08002406 <_FPSCR>:
 8002406:	53504605 	cmppl	r0, #5242880	; 0x500000
 800240a:	 			; <UNDEFINED> instruction: 0xf8475243

0800240c <FPSCR>:
 800240c:	f847 6d04 	str.w	r6, [r7, #-4]!
 8002410:	eef1 6a10 	vmrs	r6, fpscr
 8002414:	f3bf 8f4f 	dsb	sy
 8002418:	f000 be4c 	b.w	80030b4 <INEXT>
 800241c:	08002406 	stmdaeq	r0, {r1, r2, sl, sp}

08002420 <_CLR_FPSCR>:
 8002420:	524c4309 	subpl	r4, ip, #603979776	; 0x24000000
 8002424:	5350462d 	cmppl	r0, #47185920	; 0x2d00000
 8002428:	bf005243 	svclt	0x00005243

0800242c <CLR_FPSCR>:
 800242c:	eef1 0a10 	vmrs	r0, fpscr
 8002430:	f3bf 8f4f 	dsb	sy
 8002434:	ea06 0600 	and.w	r6, r6, r0
 8002438:	eee1 6a10 	vmsr	fpscr, r6
 800243c:	f3bf 8f4f 	dsb	sy
 8002440:	f000 be38 	b.w	80030b4 <INEXT>
 8002444:	08002420 	stmdaeq	r0, {r5, sl, sp}

08002448 <_TOS0>:
 8002448:	30533e03 	subscc	r3, r3, r3, lsl #28

0800244c <TOS0>:
 800244c:	ee00 6a10 	vmov	s0, r6
 8002450:	f857 6b04 	ldr.w	r6, [r7], #4
 8002454:	f000 be2e 	b.w	80030b4 <INEXT>
 8002458:	08002448 	stmdaeq	r0, {r3, r6, sl, sp}

0800245c <_TOS1>:
 800245c:	31533e03 	cmpcc	r3, r3, lsl #28

08002460 <TOS1>:
 8002460:	ee00 6a90 	vmov	s1, r6
 8002464:	f857 6b04 	ldr.w	r6, [r7], #4
 8002468:	f000 be24 	b.w	80030b4 <INEXT>
 800246c:	0800245c 	stmdaeq	r0, {r2, r3, r4, r6, sl, sp}

08002470 <_TOS2>:
 8002470:	32533e03 	subscc	r3, r3, #3, 28	; 0x30

08002474 <TOS2>:
 8002474:	ee01 6a10 	vmov	s2, r6
 8002478:	f857 6b04 	ldr.w	r6, [r7], #4
 800247c:	f000 be1a 	b.w	80030b4 <INEXT>
 8002480:	08002470 	stmdaeq	r0, {r4, r5, r6, sl, sp}

08002484 <_S0FROM>:
 8002484:	3e305303 	cdpcc	3, 3, cr5, cr0, cr3, {0}

08002488 <S0FROM>:
 8002488:	f847 6d04 	str.w	r6, [r7, #-4]!
 800248c:	ee10 6a10 	vmov	r6, s0
 8002490:	f000 be10 	b.w	80030b4 <INEXT>
 8002494:	08002484 	stmdaeq	r0, {r2, r7, sl, sp}

08002498 <_S1FROM>:
 8002498:	3e315303 	cdpcc	3, 3, cr5, cr1, cr3, {0}

0800249c <S1FROM>:
 800249c:	f847 6d04 	str.w	r6, [r7, #-4]!
 80024a0:	ee10 6a90 	vmov	r6, s1
 80024a4:	f000 be06 	b.w	80030b4 <INEXT>
 80024a8:	08002498 	stmdaeq	r0, {r3, r4, r7, sl, sp}

080024ac <_S2FROM>:
 80024ac:	3e325303 	cdpcc	3, 3, cr5, cr2, cr3, {0}

080024b0 <S2FROM>:
 80024b0:	f847 6d04 	str.w	r6, [r7, #-4]!
 80024b4:	ee11 6a10 	vmov	r6, s2
 80024b8:	f000 bdfc 	b.w	80030b4 <INEXT>
 80024bc:	080024ac 	stmdaeq	r0, {r2, r3, r5, r7, sl, sp}

080024c0 <_FTOS>:
 80024c0:	533e4603 	teqpl	lr, #3145728	; 0x300000

080024c4 <FTOS>:
 80024c4:	ee00 6a10 	vmov	s0, r6
 80024c8:	eebd 0a40 	vcvtr.s32.f32	s0, s0
 80024cc:	ee10 6a10 	vmov	r6, s0
 80024d0:	f000 bdf0 	b.w	80030b4 <INEXT>
 80024d4:	080024c0 	stmdaeq	r0, {r6, r7, sl, sp}

080024d8 <_TRUNC>:
 80024d8:	55525405 	ldrbpl	r5, [r2, #-1029]	; 0xfffffbfb
 80024dc:	bf00434e 	svclt	0x0000434e

080024e0 <TRUNC>:
 80024e0:	ee00 6a10 	vmov	s0, r6
 80024e4:	eebd 0ac0 	vcvt.s32.f32	s0, s0
 80024e8:	ee10 6a10 	vmov	r6, s0
 80024ec:	f000 bde2 	b.w	80030b4 <INEXT>
 80024f0:	080024d8 	stmdaeq	r0, {r3, r4, r6, r7, sl, sp}

080024f4 <_STOF>:
 80024f4:	463e5303 	ldrtmi	r5, [lr], -r3, lsl #6

080024f8 <STOF>:
 80024f8:	ee00 6a10 	vmov	s0, r6
 80024fc:	eeb8 0ac0 	vcvt.f32.s32	s0, s0
 8002500:	ee10 6a10 	vmov	r6, s0
 8002504:	f000 bdd6 	b.w	80030b4 <INEXT>
 8002508:	080024f4 	stmdaeq	r0, {r2, r4, r5, r6, r7, sl, sp}

0800250c <_FPLUS>:
 800250c:	002b4602 	eoreq	r4, fp, r2, lsl #12

08002510 <FPLUS>:
 8002510:	ee00 6a10 	vmov	s0, r6
 8002514:	f857 6b04 	ldr.w	r6, [r7], #4
 8002518:	ee00 6a90 	vmov	s1, r6
 800251c:	ee30 0a20 	vadd.f32	s0, s0, s1
 8002520:	ee10 6a10 	vmov	r6, s0
 8002524:	f000 bdc6 	b.w	80030b4 <INEXT>
 8002528:	0800250c 	stmdaeq	r0, {r2, r3, r8, sl, sp}

0800252c <_FSUBB>:
 800252c:	002d4602 	eoreq	r4, sp, r2, lsl #12

08002530 <FSUBB>:
 8002530:	ee00 6a10 	vmov	s0, r6
 8002534:	f857 6b04 	ldr.w	r6, [r7], #4
 8002538:	ee00 6a90 	vmov	s1, r6
 800253c:	ee30 0ac0 	vsub.f32	s0, s1, s0
 8002540:	ee10 6a10 	vmov	r6, s0
 8002544:	f000 bdb6 	b.w	80030b4 <INEXT>
 8002548:	0800252c 	stmdaeq	r0, {r2, r3, r5, r8, sl, sp}

0800254c <_FSTAR>:
 800254c:	002a4602 	eoreq	r4, sl, r2, lsl #12

08002550 <FSTAR>:
 8002550:	ee00 6a10 	vmov	s0, r6
 8002554:	f857 6b04 	ldr.w	r6, [r7], #4
 8002558:	ee00 6a90 	vmov	s1, r6
 800255c:	ee20 0a80 	vmul.f32	s0, s1, s0
 8002560:	ee10 6a10 	vmov	r6, s0
 8002564:	f000 bda6 	b.w	80030b4 <INEXT>
 8002568:	0800254c 	stmdaeq	r0, {r2, r3, r6, r8, sl, sp}

0800256c <_FSLH>:
 800256c:	002f4602 	eoreq	r4, pc, r2, lsl #12

08002570 <FSLH>:
 8002570:	ee00 6a10 	vmov	s0, r6
 8002574:	f857 6b04 	ldr.w	r6, [r7], #4
 8002578:	ee00 6a90 	vmov	s1, r6
 800257c:	ee80 0a80 	vdiv.f32	s0, s1, s0
 8002580:	ee10 6a10 	vmov	r6, s0
 8002584:	f000 bd96 	b.w	80030b4 <INEXT>
 8002588:	0800256c 	stmdaeq	r0, {r2, r3, r5, r6, r8, sl, sp}

0800258c <_FNEG>:
 800258c:	454e4607 	strbmi	r4, [lr, #-1543]	; 0xfffff9f9
 8002590:	45544147 	ldrbmi	r4, [r4, #-327]	; 0xfffffeb9

08002594 <FNEG>:
 8002594:	ee00 6a10 	vmov	s0, r6
 8002598:	eeb1 0a40 	vneg.f32	s0, s0
 800259c:	ee10 6a10 	vmov	r6, s0
 80025a0:	f000 bd88 	b.w	80030b4 <INEXT>
 80025a4:	0800258c 	stmdaeq	r0, {r2, r3, r7, r8, sl, sp}

080025a8 <_FABS>:
 80025a8:	42414604 	submi	r4, r1, #4, 12	; 0x400000
 80025ac:	bf000053 	svclt	0x00000053

080025b0 <FABS>:
 80025b0:	ea80 0000 	eor.w	r0, r0, r0
 80025b4:	ea6f 0000 	mvn.w	r0, r0
 80025b8:	ea4f 0050 	mov.w	r0, r0, lsr #1
 80025bc:	ea06 0600 	and.w	r6, r6, r0
 80025c0:	f000 bd78 	b.w	80030b4 <INEXT>
 80025c4:	080025a8 	stmdaeq	r0, {r3, r5, r7, r8, sl, sp}

080025c8 <_SQRT>:
 80025c8:	52515304 	subspl	r5, r1, #4, 6	; 0x10000000
 80025cc:	bf000054 	svclt	0x00000054

080025d0 <SQRT>:
 80025d0:	ee00 6a10 	vmov	s0, r6
 80025d4:	eeb1 0ac0 	vsqrt.f32	s0, s0
 80025d8:	ee10 6a10 	vmov	r6, s0
 80025dc:	f000 bd6a 	b.w	80030b4 <INEXT>
 80025e0:	080025c8 	stmdaeq	r0, {r3, r6, r7, r8, sl, sp}

080025e4 <_FZLESS>:
 80025e4:	3c304603 	ldccc	6, cr4, [r0], #-12

080025e8 <FZLESS>:
 80025e8:	ee00 6a10 	vmov	s0, r6
 80025ec:	eeb5 0a40 	vcmp.f32	s0, #0.0
 80025f0:	eef1 6a10 	vmrs	r6, fpscr
 80025f4:	f3bf 8f4f 	dsb	sy
 80025f8:	ea4f 76e6 	mov.w	r6, r6, asr #31
 80025fc:	f000 bd5a 	b.w	80030b4 <INEXT>
 8002600:	080025e4 	stmdaeq	r0, {r2, r5, r6, r7, r8, sl, sp}

08002604 <_FGREAT>:
 8002604:	003e4602 	eorseq	r4, lr, r2, lsl #12

08002608 <FGREAT>:
 8002608:	4750      	bx	sl
 800260a:	bf00      	nop
 800260c:	08002531 	stmdaeq	r0, {r0, r4, r5, r8, sl, sp}
 8002610:	080025e9 	stmdaeq	r0, {r0, r3, r5, r6, r7, r8, sl, sp}
 8002614:	08003779 	stmdaeq	r0, {r0, r3, r4, r5, r6, r8, r9, sl, ip, sp}
 8002618:	080030bb 	stmdaeq	r0, {r0, r1, r3, r4, r5, r7, ip, sp}
 800261c:	08002604 	stmdaeq	r0, {r2, r9, sl, sp}

08002620 <_FLESS>:
 8002620:	003c4602 	eorseq	r4, ip, r2, lsl #12

08002624 <FLESS>:
 8002624:	4750      	bx	sl
 8002626:	bf00      	nop
 8002628:	08002531 	stmdaeq	r0, {r0, r4, r5, r8, sl, sp}
 800262c:	080025e9 	stmdaeq	r0, {r0, r3, r5, r6, r7, r8, sl, sp}
 8002630:	080030bb 	stmdaeq	r0, {r0, r1, r3, r4, r5, r7, ip, sp}
 8002634:	08002620 	stmdaeq	r0, {r5, r9, sl, sp}

08002638 <_FMIN>:
 8002638:	494d4604 	stmdbmi	sp, {r2, r9, sl, lr}^
 800263c:	bf00004e 	svclt	0x0000004e

08002640 <FMIN>:
 8002640:	4750      	bx	sl
 8002642:	bf00      	nop
 8002644:	080034a9 	stmdaeq	r0, {r0, r3, r5, r7, sl, ip, sp}
 8002648:	080034a9 	stmdaeq	r0, {r0, r3, r5, r7, sl, ip, sp}
 800264c:	08002609 	stmdaeq	r0, {r0, r3, r9, sl, sp}
 8002650:	0800331f 	stmdaeq	r0, {r0, r1, r2, r3, r4, r8, r9, ip, sp}
 8002654:	0800265c 	stmdaeq	r0, {r2, r3, r4, r6, r9, sl, sp}
 8002658:	08003479 	stmdaeq	r0, {r0, r3, r4, r5, r6, sl, ip, sp}
 800265c:	08003459 	stmdaeq	r0, {r0, r3, r4, r6, sl, ip, sp}
 8002660:	080030bb 	stmdaeq	r0, {r0, r1, r3, r4, r5, r7, ip, sp}
 8002664:	08002638 	stmdaeq	r0, {r3, r4, r5, r9, sl, sp}

08002668 <_FMAX>:
 8002668:	414d4604 	cmpmi	sp, r4, lsl #12
 800266c:	bf000058 	svclt	0x00000058

08002670 <FMAX>:
 8002670:	4750      	bx	sl
 8002672:	bf00      	nop
 8002674:	080034a9 	stmdaeq	r0, {r0, r3, r5, r7, sl, ip, sp}
 8002678:	080034a9 	stmdaeq	r0, {r0, r3, r5, r7, sl, ip, sp}
 800267c:	08002625 	stmdaeq	r0, {r0, r2, r5, r9, sl, sp}
 8002680:	0800331f 	stmdaeq	r0, {r0, r1, r2, r3, r4, r8, r9, ip, sp}
 8002684:	0800268c 	stmdaeq	r0, {r2, r3, r7, r9, sl, sp}
 8002688:	08003479 	stmdaeq	r0, {r0, r3, r4, r5, r6, sl, ip, sp}
 800268c:	08003459 	stmdaeq	r0, {r0, r3, r4, r6, sl, ip, sp}
 8002690:	080030bb 	stmdaeq	r0, {r0, r1, r3, r4, r5, r7, ip, sp}
 8002694:	08002668 	stmdaeq	r0, {r3, r5, r6, r9, sl, sp}

08002698 <_FSIGN>:
 8002698:	49534605 	ldmdbmi	r3, {r0, r2, r9, sl, lr}^
 800269c:	bf004e47 	svclt	0x00004e47

080026a0 <FSIGN>:
 80026a0:	ea80 0000 	eor.w	r0, r0, r0
 80026a4:	f2c8 0000 	movt	r0, #32768	; 0x8000
 80026a8:	ea06 0600 	and.w	r6, r6, r0
 80026ac:	ea4f 76e6 	mov.w	r6, r6, asr #31
 80026b0:	f000 bd00 	b.w	80030b4 <INEXT>
 80026b4:	08002698 	stmdaeq	r0, {r3, r4, r7, r9, sl, sp}

080026b8 <_FEXP>:
 80026b8:	58454604 	stmdapl	r5, {r2, r9, sl, lr}^
 80026bc:	bf000050 	svclt	0x00000050

080026c0 <FEXP>:
 80026c0:	f04f 0000 	mov.w	r0, #0
 80026c4:	f6c7 7080 	movt	r0, #32640	; 0x7f80
 80026c8:	ea06 0600 	and.w	r6, r6, r0
 80026cc:	ea4f 56d6 	mov.w	r6, r6, lsr #23
 80026d0:	f1a6 067f 	sub.w	r6, r6, #127	; 0x7f
 80026d4:	f000 bcee 	b.w	80030b4 <INEXT>
 80026d8:	080026b8 	stmdaeq	r0, {r3, r4, r5, r7, r9, sl, sp}

080026dc <_FMANT>:
 80026dc:	414d4605 	cmpmi	sp, r5, lsl #12
 80026e0:	bf00544e 	svclt	0x0000544e

080026e4 <FMANT>:
 80026e4:	f64f 70ff 	movw	r0, #65535	; 0xffff
 80026e8:	f2c0 007f 	movt	r0, #127	; 0x7f
 80026ec:	ea06 0600 	and.w	r6, r6, r0
 80026f0:	ea80 0000 	eor.w	r0, r0, r0
 80026f4:	f2c0 0080 	movt	r0, #128	; 0x80
 80026f8:	ea46 0600 	orr.w	r6, r6, r0
 80026fc:	f000 bcda 	b.w	80030b4 <INEXT>
 8002700:	080026dc 	stmdaeq	r0, {r2, r3, r4, r6, r7, r9, sl, sp}

08002704 <_PI>:
 8002704:	00495002 	subeq	r5, r9, r2

08002708 <PI>:
 8002708:	f847 6d04 	str.w	r6, [r7, #-4]!
 800270c:	f640 76db 	movw	r6, #4059	; 0xfdb
 8002710:	f2c4 0649 	movt	r6, #16457	; 0x4049
 8002714:	f000 bcce 	b.w	80030b4 <INEXT>
 8002718:	08002704 	stmdaeq	r0, {r2, r8, r9, sl, sp}

0800271c <_LN2>:
 800271c:	324e4c03 	subcc	r4, lr, #768	; 0x300

08002720 <LN2>:
 8002720:	f847 6d04 	str.w	r6, [r7, #-4]!
 8002724:	f247 2618 	movw	r6, #29208	; 0x7218
 8002728:	f6c3 7631 	movt	r6, #16177	; 0x3f31
 800272c:	f000 bcc2 	b.w	80030b4 <INEXT>
 8002730:	0800271c 	stmdaeq	r0, {r2, r3, r4, r8, r9, sl, sp}

08002734 <_LN10>:
 8002734:	314e4c04 	cmpcc	lr, r4, lsl #24
 8002738:	bf000030 	svclt	0x00000030

0800273c <LN10>:
 800273c:	f847 6d04 	str.w	r6, [r7, #-4]!
 8002740:	f645 568e 	movw	r6, #23950	; 0x5d8e
 8002744:	f2c4 0613 	movt	r6, #16403	; 0x4013
 8002748:	f000 bcb4 	b.w	80030b4 <INEXT>
 800274c:	08002734 	stmdaeq	r0, {r2, r4, r5, r8, r9, sl, sp}

08002750 <_LOG2>:
 8002750:	474f4c04 	strbmi	r4, [pc, -r4, lsl #24]
 8002754:	bf000032 	svclt	0x00000032

08002758 <LOG2>:
 8002758:	f847 6d04 	str.w	r6, [r7, #-4]!
 800275c:	f242 069a 	movw	r6, #8346	; 0x209a
 8002760:	f6c3 669a 	movt	r6, #16026	; 0x3e9a
 8002764:	f000 bca6 	b.w	80030b4 <INEXT>
 8002768:	08002750 	stmdaeq	r0, {r4, r6, r8, r9, sl, sp}

0800276c <_LOG2TO10>:
 800276c:	474f4c07 	strbmi	r4, [pc, -r7, lsl #24]
 8002770:	30313e32 	eorscc	r3, r1, r2, lsr lr

08002774 <LOG2TO10>:
 8002774:	4750      	bx	sl
 8002776:	bf00      	nop
 8002778:	080026c1 	stmdaeq	r0, {r0, r6, r7, r9, sl, sp}
 800277c:	080024f9 	stmdaeq	r0, {r0, r3, r4, r5, r6, r7, sl, sp}
 8002780:	08002759 	stmdaeq	r0, {r0, r3, r4, r6, r8, r9, sl, sp}
 8002784:	08002551 	stmdaeq	r0, {r0, r4, r6, r8, sl, sp}
 8002788:	080024e1 	stmdaeq	r0, {r0, r5, r6, r7, sl, sp}
 800278c:	08003469 	stmdaeq	r0, {r0, r3, r5, r6, sl, ip, sp}
 8002790:	080034d9 	stmdaeq	r0, {r0, r3, r4, r6, r7, sl, ip, sp}
 8002794:	0800331f 	stmdaeq	r0, {r0, r1, r2, r3, r4, r8, r9, ip, sp}
 8002798:	080027a0 	stmdaeq	r0, {r5, r7, r8, r9, sl, sp}
 800279c:	080035d5 	stmdaeq	r0, {r0, r2, r4, r6, r7, r8, sl, ip, sp}
 80027a0:	080030bb 	stmdaeq	r0, {r0, r1, r3, r4, r5, r7, ip, sp}
 80027a4:	0800236c 	stmdaeq	r0, {r2, r3, r5, r6, r8, r9, sp}
 80027a8:	e000ed88 	and	lr, r0, r8, lsl #27
 80027ac:	e000ef34 	and	lr, r0, r4, lsr pc

080027b0 <p10p2n>:
 80027b0:	41200000 			; <UNDEFINED> instruction: 0x41200000
 80027b4:	42c80000 	sbcmi	r0, r8, #0
 80027b8:	461c4000 	ldrmi	r4, [ip], -r0
 80027bc:	4cbebc20 	ldcmi	12, cr11, [lr], #128	; 0x80
 80027c0:	5a0e1bca 	bpl	83896f0 <OPTKEY1+0x1f6cb5>
 80027c4:	749dc5ae 	ldrvc	ip, [sp], #1454	; 0x5ae

080027c8 <p10p2at>:
 80027c8:	4750      	bx	sl
 80027ca:	bf00      	nop
 80027cc:	080032df 	stmdaeq	r0, {r0, r1, r2, r3, r4, r6, r7, r9, ip, sp}
 80027d0:	00000002 	andeq	r0, r0, r2
 80027d4:	08003559 	stmdaeq	r0, {r0, r3, r4, r6, r8, sl, ip, sp}
 80027d8:	080032df 	stmdaeq	r0, {r0, r1, r2, r3, r4, r6, r7, r9, ip, sp}
 80027dc:	080027b0 	stmdaeq	r0, {r4, r5, r7, r8, r9, sl, sp}
 80027e0:	08003569 	stmdaeq	r0, {r0, r3, r5, r6, r8, sl, ip, sp}
 80027e4:	08003375 	stmdaeq	r0, {r0, r2, r4, r5, r6, r8, r9, ip, sp}
 80027e8:	080030bb 	stmdaeq	r0, {r0, r1, r3, r4, r5, r7, ip, sp}

080027ec <bit_state>:
 80027ec:	4750      	bx	sl
 80027ee:	bf00      	nop
 80027f0:	080032df 	stmdaeq	r0, {r0, r1, r2, r3, r4, r6, r7, r9, ip, sp}
 80027f4:	00000001 	andeq	r0, r0, r1
 80027f8:	080032df 	stmdaeq	r0, {r0, r1, r2, r3, r4, r6, r7, r9, ip, sp}
 80027fc:	00000003 	andeq	r0, r0, r3
 8002800:	08003f6d 	stmdaeq	r0, {r0, r2, r3, r5, r6, r8, r9, sl, fp, ip, sp}
 8002804:	08003559 	stmdaeq	r0, {r0, r3, r4, r6, r8, sl, ip, sp}
 8002808:	080034e9 	stmdaeq	r0, {r0, r3, r5, r6, r7, sl, ip, sp}
 800280c:	080030bb 	stmdaeq	r0, {r0, r1, r3, r4, r5, r7, ip, sp}

08002810 <mant_div>:
 8002810:	4750      	bx	sl
 8002812:	bf00      	nop
 8002814:	080033e5 	stmdaeq	r0, {r0, r2, r5, r6, r7, r8, r9, ip, sp}

08002818 <div_loop>:
 8002818:	080033d1 	stmdaeq	r0, {r0, r4, r6, r7, r8, r9, ip, sp}
 800281c:	080027ed 	stmdaeq	r0, {r0, r2, r3, r5, r6, r7, r8, r9, sl, sp}
 8002820:	0800331f 	stmdaeq	r0, {r0, r1, r2, r3, r4, r8, r9, ip, sp}
 8002824:	08002834 	stmdaeq	r0, {r2, r4, r5, fp, sp}
 8002828:	080034a9 	stmdaeq	r0, {r0, r3, r5, r7, sl, ip, sp}
 800282c:	080027c9 	stmdaeq	r0, {r0, r3, r6, r7, r8, r9, sl, sp}
 8002830:	08002571 	stmdaeq	r0, {r0, r4, r5, r6, r8, sl, sp}
 8002834:	08003479 	stmdaeq	r0, {r0, r3, r4, r5, r6, sl, ip, sp}
 8002838:	080035c5 	stmdaeq	r0, {r0, r2, r6, r7, r8, sl, ip, sp}
 800283c:	08003479 	stmdaeq	r0, {r0, r3, r4, r5, r6, sl, ip, sp}
 8002840:	080034a9 	stmdaeq	r0, {r0, r3, r5, r7, sl, ip, sp}
 8002844:	080032df 	stmdaeq	r0, {r0, r1, r2, r3, r4, r6, r7, r9, ip, sp}
 8002848:	00000005 	andeq	r0, r0, r5
 800284c:	08003875 	stmdaeq	r0, {r0, r2, r4, r5, r6, fp, ip, sp}
 8002850:	0800331f 	stmdaeq	r0, {r0, r1, r2, r3, r4, r8, r9, ip, sp}
 8002854:	08002818 	stmdaeq	r0, {r3, r4, fp, sp}
 8002858:	080033a1 	stmdaeq	r0, {r0, r5, r7, r8, r9, ip, sp}
 800285c:	08003459 	stmdaeq	r0, {r0, r3, r4, r6, sl, ip, sp}
 8002860:	080030bb 	stmdaeq	r0, {r0, r1, r3, r4, r5, r7, ip, sp}

08002864 <mant_mult>:
 8002864:	4750      	bx	sl
 8002866:	bf00      	nop
 8002868:	080033e5 	stmdaeq	r0, {r0, r2, r5, r6, r7, r8, r9, ip, sp}

0800286c <mult_loop>:
 800286c:	080033d1 	stmdaeq	r0, {r0, r4, r6, r7, r8, r9, ip, sp}
 8002870:	080027ed 	stmdaeq	r0, {r0, r2, r3, r5, r6, r7, r8, r9, sl, sp}
 8002874:	0800331f 	stmdaeq	r0, {r0, r1, r2, r3, r4, r8, r9, ip, sp}
 8002878:	08002888 	stmdaeq	r0, {r3, r7, fp, sp}
 800287c:	080034a9 	stmdaeq	r0, {r0, r3, r5, r7, sl, ip, sp}
 8002880:	080027c9 	stmdaeq	r0, {r0, r3, r6, r7, r8, r9, sl, sp}
 8002884:	08002551 	stmdaeq	r0, {r0, r4, r6, r8, sl, sp}
 8002888:	08003479 	stmdaeq	r0, {r0, r3, r4, r5, r6, sl, ip, sp}
 800288c:	080035c5 	stmdaeq	r0, {r0, r2, r6, r7, r8, sl, ip, sp}
 8002890:	08003479 	stmdaeq	r0, {r0, r3, r4, r5, r6, sl, ip, sp}
 8002894:	080034a9 	stmdaeq	r0, {r0, r3, r5, r7, sl, ip, sp}
 8002898:	080032df 	stmdaeq	r0, {r0, r1, r2, r3, r4, r6, r7, r9, ip, sp}
 800289c:	00000005 	andeq	r0, r0, r5
 80028a0:	08003875 	stmdaeq	r0, {r0, r2, r4, r5, r6, fp, ip, sp}
 80028a4:	0800331f 	stmdaeq	r0, {r0, r1, r2, r3, r4, r8, r9, ip, sp}
 80028a8:	0800286c 	stmdaeq	r0, {r2, r3, r5, r6, fp, sp}
 80028ac:	080033a1 	stmdaeq	r0, {r0, r5, r7, r8, r9, ip, sp}
 80028b0:	08003459 	stmdaeq	r0, {r0, r3, r4, r6, sl, ip, sp}
 80028b4:	080030bb 	stmdaeq	r0, {r0, r1, r3, r4, r5, r7, ip, sp}

080028b8 <exp_adjust>:
 80028b8:	4750      	bx	sl
 80028ba:	bf00      	nop
 80028bc:	080034a9 	stmdaeq	r0, {r0, r3, r5, r7, sl, ip, sp}
 80028c0:	0800331f 	stmdaeq	r0, {r0, r1, r2, r3, r4, r8, r9, ip, sp}
 80028c4:	080028fc 	stmdaeq	r0, {r2, r3, r4, r5, r6, r7, fp, sp}
 80028c8:	080032df 	stmdaeq	r0, {r0, r1, r2, r3, r4, r6, r7, r9, ip, sp}
 80028cc:	00000000 	andeq	r0, r0, r0
 80028d0:	080036a1 	stmdaeq	r0, {r0, r5, r7, r9, sl, ip, sp}
 80028d4:	08003479 	stmdaeq	r0, {r0, r3, r4, r5, r6, sl, ip, sp}
 80028d8:	08003469 	stmdaeq	r0, {r0, r3, r5, r6, sl, ip, sp}
 80028dc:	080034d9 	stmdaeq	r0, {r0, r3, r4, r6, r7, sl, ip, sp}
 80028e0:	0800331f 	stmdaeq	r0, {r0, r1, r2, r3, r4, r8, r9, ip, sp}
 80028e4:	080028f8 	stmdaeq	r0, {r3, r4, r5, r6, r7, fp, sp}
 80028e8:	0800379d 	stmdaeq	r0, {r0, r2, r3, r4, r7, r8, r9, sl, ip, sp}
 80028ec:	08002811 	stmdaeq	r0, {r0, r4, fp, sp}
 80028f0:	08003347 	stmdaeq	r0, {r0, r1, r2, r6, r8, r9, ip, sp}
 80028f4:	080028fc 	stmdaeq	r0, {r2, r3, r4, r5, r6, r7, fp, sp}

080028f8 <pos_exp>:
 80028f8:	08002865 	stmdaeq	r0, {r0, r2, r5, r6, fp, sp}
 80028fc:	08003479 	stmdaeq	r0, {r0, r3, r4, r5, r6, sl, ip, sp}
 8002900:	08003459 	stmdaeq	r0, {r0, r3, r4, r6, sl, ip, sp}
 8002904:	080030bb 	stmdaeq	r0, {r0, r1, r3, r4, r5, r7, ip, sp}

08002908 <integer>:
 8002908:	4750      	bx	sl
 800290a:	bf00      	nop
 800290c:	080032df 	stmdaeq	r0, {r0, r1, r2, r3, r4, r6, r7, r9, ip, sp}
 8002910:	00000000 	andeq	r0, r0, r0
 8002914:	08003469 	stmdaeq	r0, {r0, r3, r5, r6, sl, ip, sp}
 8002918:	0800348d 	stmdaeq	r0, {r0, r2, r3, r7, sl, ip, sp}
 800291c:	08004391 	stmdaeq	r0, {r0, r4, r7, r8, r9, lr}
 8002920:	080033f9 	stmdaeq	r0, {r0, r3, r4, r5, r6, r7, r8, r9, ip, sp}
 8002924:	08003459 	stmdaeq	r0, {r0, r3, r4, r6, sl, ip, sp}
 8002928:	080033b5 	stmdaeq	r0, {r0, r2, r4, r5, r7, r8, r9, ip, sp}
 800292c:	0800368d 	stmdaeq	r0, {r0, r2, r3, r7, r9, sl, ip, sp}
 8002930:	080024f9 	stmdaeq	r0, {r0, r3, r4, r5, r6, r7, sl, sp}
 8002934:	080030bb 	stmdaeq	r0, {r0, r1, r3, r4, r5, r7, ip, sp}

08002938 <decimals>:
 8002938:	4750      	bx	sl
 800293a:	bf00      	nop
 800293c:	08003469 	stmdaeq	r0, {r0, r3, r5, r6, sl, ip, sp}
 8002940:	080033e5 	stmdaeq	r0, {r0, r2, r5, r6, r7, r8, r9, ip, sp}
 8002944:	080032df 	stmdaeq	r0, {r0, r1, r2, r3, r4, r6, r7, r9, ip, sp}
 8002948:	00000000 	andeq	r0, r0, r0
 800294c:	08003469 	stmdaeq	r0, {r0, r3, r5, r6, sl, ip, sp}
 8002950:	0800348d 	stmdaeq	r0, {r0, r2, r3, r7, sl, ip, sp}
 8002954:	08004391 	stmdaeq	r0, {r0, r4, r7, r8, r9, lr}
 8002958:	0800348d 	stmdaeq	r0, {r0, r2, r3, r7, sl, ip, sp}
 800295c:	08003459 	stmdaeq	r0, {r0, r3, r4, r6, sl, ip, sp}
 8002960:	080024f9 	stmdaeq	r0, {r0, r3, r4, r5, r6, r7, sl, sp}
 8002964:	080033a1 	stmdaeq	r0, {r0, r5, r7, r8, r9, ip, sp}
 8002968:	080032df 	stmdaeq	r0, {r0, r1, r2, r3, r4, r6, r7, r9, ip, sp}
 800296c:	00000002 	andeq	r0, r0, r2
 8002970:	08003f6d 	stmdaeq	r0, {r0, r2, r3, r5, r6, r8, r9, sl, fp, ip, sp}
 8002974:	08003579 	stmdaeq	r0, {r0, r3, r4, r5, r6, r8, sl, ip, sp}
 8002978:	080032df 	stmdaeq	r0, {r0, r1, r2, r3, r4, r6, r7, r9, ip, sp}
 800297c:	00000009 	andeq	r0, r0, r9
 8002980:	080038a1 	stmdaeq	r0, {r0, r5, r7, fp, ip, sp}
 8002984:	080023a1 	stmdaeq	r0, {r0, r5, r7, r8, r9, sp}
 8002988:	08002571 	stmdaeq	r0, {r0, r4, r5, r6, r8, sl, sp}
 800298c:	080030bb 	stmdaeq	r0, {r0, r1, r3, r4, r5, r7, ip, sp}

08002990 <exponent>:
 8002990:	4750      	bx	sl
 8002992:	bf00      	nop
 8002994:	08004427 	stmdaeq	r0, {r0, r1, r2, r5, sl, lr}
 8002998:	080033e5 	stmdaeq	r0, {r0, r2, r5, r6, r7, r8, r9, ip, sp}
 800299c:	080032df 	stmdaeq	r0, {r0, r1, r2, r3, r4, r6, r7, r9, ip, sp}
 80029a0:	00000000 	andeq	r0, r0, r0
 80029a4:	08003469 	stmdaeq	r0, {r0, r3, r5, r6, sl, ip, sp}
 80029a8:	0800348d 	stmdaeq	r0, {r0, r2, r3, r7, sl, ip, sp}
 80029ac:	08004391 	stmdaeq	r0, {r0, r4, r7, r8, r9, lr}
 80029b0:	0800348d 	stmdaeq	r0, {r0, r2, r3, r7, sl, ip, sp}
 80029b4:	08003459 	stmdaeq	r0, {r0, r3, r4, r6, sl, ip, sp}
 80029b8:	080033a1 	stmdaeq	r0, {r0, r5, r7, r8, r9, ip, sp}
 80029bc:	0800331f 	stmdaeq	r0, {r0, r1, r2, r3, r4, r8, r9, ip, sp}
 80029c0:	080029c8 	stmdaeq	r0, {r3, r6, r7, r8, fp, sp}
 80029c4:	0800378d 	stmdaeq	r0, {r0, r2, r3, r7, r8, r9, sl, ip, sp}
 80029c8:	080030bb 	stmdaeq	r0, {r0, r1, r3, r4, r5, r7, ip, sp}
 80029cc:	0800276c 	stmdaeq	r0, {r2, r3, r5, r6, r8, r9, sl, sp}

080029d0 <_FLOATQ>:
 80029d0:	4f4c4606 	svcmi	0x004c4606
 80029d4:	003f5441 	eorseq	r5, pc, r1, asr #8

080029d8 <FLOATQ>:
 80029d8:	4750      	bx	sl
 80029da:	bf00      	nop
 80029dc:	080039d5 	stmdaeq	r0, {r0, r2, r4, r6, r7, r8, fp, ip, sp}
 80029e0:	08003375 	stmdaeq	r0, {r0, r2, r4, r5, r6, r8, r9, ip, sp}
 80029e4:	080033e5 	stmdaeq	r0, {r0, r2, r5, r6, r7, r8, r9, ip, sp}
 80029e8:	08004305 	stmdaeq	r0, {r0, r2, r8, r9, lr}
 80029ec:	080032df 	stmdaeq	r0, {r0, r1, r2, r3, r4, r6, r7, r9, ip, sp}
 80029f0:	00000000 	andeq	r0, r0, r0
 80029f4:	080034a9 	stmdaeq	r0, {r0, r3, r5, r7, sl, ip, sp}
 80029f8:	08003909 	stmdaeq	r0, {r0, r3, r8, fp, ip, sp}
 80029fc:	08004427 	stmdaeq	r0, {r0, r1, r2, r5, sl, lr}
 8002a00:	080033e5 	stmdaeq	r0, {r0, r2, r5, r6, r7, r8, r9, ip, sp}
 8002a04:	08003469 	stmdaeq	r0, {r0, r3, r5, r6, sl, ip, sp}
 8002a08:	080033e5 	stmdaeq	r0, {r0, r2, r5, r6, r7, r8, r9, ip, sp}
 8002a0c:	08002909 	stmdaeq	r0, {r0, r3, r8, fp, sp}
 8002a10:	080034a9 	stmdaeq	r0, {r0, r3, r5, r7, sl, ip, sp}
 8002a14:	080033a1 	stmdaeq	r0, {r0, r5, r7, r8, r9, ip, sp}
 8002a18:	080037f5 	stmdaeq	r0, {r0, r2, r4, r5, r6, r7, r8, r9, sl, ip, sp}
 8002a1c:	08003479 	stmdaeq	r0, {r0, r3, r4, r5, r6, sl, ip, sp}
 8002a20:	080033e5 	stmdaeq	r0, {r0, r2, r5, r6, r7, r8, r9, ip, sp}
 8002a24:	08003333 	stmdaeq	r0, {r0, r1, r4, r5, r8, r9, ip, sp}
 8002a28:	08002a5c 	stmdaeq	r0, {r2, r3, r4, r6, r9, fp, sp}
 8002a2c:	080032df 	stmdaeq	r0, {r0, r1, r2, r3, r4, r6, r7, r9, ip, sp}
 8002a30:	0000002e 	andeq	r0, r0, lr, lsr #32
 8002a34:	08004405 	stmdaeq	r0, {r0, r2, sl, lr}
 8002a38:	08003333 	stmdaeq	r0, {r0, r1, r4, r5, r8, r9, ip, sp}
 8002a3c:	08002a70 	stmdaeq	r0, {r4, r5, r6, r9, fp, sp}
 8002a40:	080032df 	stmdaeq	r0, {r0, r1, r2, r3, r4, r6, r7, r9, ip, sp}
 8002a44:	00000045 	andeq	r0, r0, r5, asr #32
 8002a48:	08004405 	stmdaeq	r0, {r0, r2, sl, lr}
 8002a4c:	08003333 	stmdaeq	r0, {r0, r1, r4, r5, r8, r9, ip, sp}
 8002a50:	08002ac4 	stmdaeq	r0, {r2, r6, r7, r9, fp, sp}
 8002a54:	08003347 	stmdaeq	r0, {r0, r1, r2, r6, r8, r9, ip, sp}
 8002a58:	08002b18 	stmdaeq	r0, {r3, r4, r8, r9, fp, sp}

08002a5c <expect_dot>:
 8002a5c:	080032df 	stmdaeq	r0, {r0, r1, r2, r3, r4, r6, r7, r9, ip, sp}
 8002a60:	0000002e 	andeq	r0, r0, lr, lsr #32
 8002a64:	08004405 	stmdaeq	r0, {r0, r2, sl, lr}
 8002a68:	0800331f 	stmdaeq	r0, {r0, r1, r2, r3, r4, r8, r9, ip, sp}
 8002a6c:	08002b18 	stmdaeq	r0, {r3, r4, r8, r9, fp, sp}

08002a70 <get_fraction>:
 8002a70:	080034a9 	stmdaeq	r0, {r0, r3, r5, r7, sl, ip, sp}
 8002a74:	08003395 	stmdaeq	r0, {r0, r2, r4, r7, r8, r9, ip, sp}
 8002a78:	080032df 	stmdaeq	r0, {r0, r1, r2, r3, r4, r6, r7, r9, ip, sp}
 8002a7c:	0000000a 	andeq	r0, r0, sl
 8002a80:	08004329 	stmdaeq	r0, {r0, r3, r5, r8, r9, lr}
 8002a84:	08003479 	stmdaeq	r0, {r0, r3, r4, r5, r6, sl, ip, sp}
 8002a88:	08003459 	stmdaeq	r0, {r0, r3, r4, r6, sl, ip, sp}
 8002a8c:	0800331f 	stmdaeq	r0, {r0, r1, r2, r3, r4, r8, r9, ip, sp}
 8002a90:	08002b18 	stmdaeq	r0, {r3, r4, r8, r9, fp, sp}
 8002a94:	08002939 	stmdaeq	r0, {r0, r3, r4, r5, r8, fp, sp}
 8002a98:	080033e5 	stmdaeq	r0, {r0, r2, r5, r6, r7, r8, r9, ip, sp}
 8002a9c:	080032df 	stmdaeq	r0, {r0, r1, r2, r3, r4, r6, r7, r9, ip, sp}
 8002aa0:	00000045 	andeq	r0, r0, r5, asr #32
 8002aa4:	08004405 	stmdaeq	r0, {r0, r2, sl, lr}
 8002aa8:	08003333 	stmdaeq	r0, {r0, r1, r4, r5, r8, r9, ip, sp}
 8002aac:	08002ac4 	stmdaeq	r0, {r2, r6, r7, r9, fp, sp}
 8002ab0:	080032df 	stmdaeq	r0, {r0, r1, r2, r3, r4, r6, r7, r9, ip, sp}
 8002ab4:	00000000 	andeq	r0, r0, r0
 8002ab8:	080033e5 	stmdaeq	r0, {r0, r2, r5, r6, r7, r8, r9, ip, sp}
 8002abc:	08003347 	stmdaeq	r0, {r0, r1, r2, r6, r8, r9, ip, sp}
 8002ac0:	08002ad8 	stmdaeq	r0, {r3, r4, r6, r7, r9, fp, sp}

08002ac4 <get_exponent>:
 8002ac4:	08002991 	stmdaeq	r0, {r0, r4, r7, r8, fp, sp}
 8002ac8:	080033e5 	stmdaeq	r0, {r0, r2, r5, r6, r7, r8, r9, ip, sp}
 8002acc:	08003469 	stmdaeq	r0, {r0, r3, r5, r6, sl, ip, sp}
 8002ad0:	08003333 	stmdaeq	r0, {r0, r1, r4, r5, r8, r9, ip, sp}
 8002ad4:	08002b38 	stmdaeq	r0, {r3, r4, r5, r8, r9, fp, sp}

08002ad8 <build_float>:
 8002ad8:	080036b5 	stmdaeq	r0, {r0, r2, r4, r5, r7, r9, sl, ip, sp}
 8002adc:	080036b5 	stmdaeq	r0, {r0, r2, r4, r5, r7, r9, sl, ip, sp}
 8002ae0:	080033a1 	stmdaeq	r0, {r0, r5, r7, r8, r9, ip, sp}
 8002ae4:	080033b5 	stmdaeq	r0, {r0, r2, r4, r5, r7, r8, r9, ip, sp}
 8002ae8:	08002511 	stmdaeq	r0, {r0, r4, r8, sl, sp}
 8002aec:	080028b9 	stmdaeq	r0, {r0, r3, r4, r5, r7, fp, sp}
 8002af0:	080033a1 	stmdaeq	r0, {r0, r5, r7, r8, r9, ip, sp}
 8002af4:	0800331f 	stmdaeq	r0, {r0, r1, r2, r3, r4, r8, r9, ip, sp}
 8002af8:	08002b08 	stmdaeq	r0, {r3, r8, r9, fp, sp}
 8002afc:	080032df 	stmdaeq	r0, {r0, r1, r2, r3, r4, r6, r7, r9, ip, sp}
 8002b00:	bf800000 	svclt	0x00800000
 8002b04:	08002551 	stmdaeq	r0, {r0, r4, r6, r8, sl, sp}
 8002b08:	080032df 	stmdaeq	r0, {r0, r1, r2, r3, r4, r6, r7, r9, ip, sp}
 8002b0c:	fffffffe 			; <UNDEFINED> instruction: 0xfffffffe
 8002b10:	08003347 	stmdaeq	r0, {r0, r1, r2, r6, r8, r9, ip, sp}
 8002b14:	08002b4c 	stmdaeq	r0, {r2, r3, r6, r8, r9, fp, sp}

08002b18 <error2>:
 8002b18:	080036b5 	stmdaeq	r0, {r0, r2, r4, r5, r7, r9, sl, ip, sp}
 8002b1c:	08003347 	stmdaeq	r0, {r0, r1, r2, r6, r8, r9, ip, sp}
 8002b20:	08002b44 	stmdaeq	r0, {r2, r6, r8, r9, fp, sp}

08002b24 <error3>:
 8002b24:	080036b5 	stmdaeq	r0, {r0, r2, r4, r5, r7, r9, sl, ip, sp}
 8002b28:	080033a1 	stmdaeq	r0, {r0, r5, r7, r8, r9, ip, sp}
 8002b2c:	08003459 	stmdaeq	r0, {r0, r3, r4, r6, sl, ip, sp}
 8002b30:	08003347 	stmdaeq	r0, {r0, r1, r2, r6, r8, r9, ip, sp}
 8002b34:	08002b44 	stmdaeq	r0, {r2, r6, r8, r9, fp, sp}

08002b38 <error4>:
 8002b38:	080036b5 	stmdaeq	r0, {r0, r2, r4, r5, r7, r9, sl, ip, sp}
 8002b3c:	080033b5 	stmdaeq	r0, {r0, r2, r4, r5, r7, r8, r9, ip, sp}
 8002b40:	080036b5 	stmdaeq	r0, {r0, r2, r4, r5, r7, r9, sl, ip, sp}

08002b44 <e4>:
 8002b44:	080033b5 	stmdaeq	r0, {r0, r2, r4, r5, r7, r8, r9, ip, sp}
 8002b48:	080036b5 	stmdaeq	r0, {r0, r2, r4, r5, r7, r9, sl, ip, sp}

08002b4c <restore_base>:
 8002b4c:	080033a1 	stmdaeq	r0, {r0, r5, r7, r8, r9, ip, sp}
 8002b50:	080039d5 	stmdaeq	r0, {r0, r2, r4, r6, r7, r8, fp, ip, sp}
 8002b54:	08003361 	stmdaeq	r0, {r0, r5, r6, r8, r9, ip, sp}
 8002b58:	080030bb 	stmdaeq	r0, {r0, r1, r3, r4, r5, r7, ip, sp}

08002b5c <rounding>:
 8002b5c:	3f000000 	svccc	0x00000000
 8002b60:	3d4ccccd 	stclcc	12, cr12, [ip, #-820]	; 0xfffffccc
 8002b64:	3ba3d70a 	blcc	68f8794 <FCLK+0xd6af94>
 8002b68:	3a03126f 	bcc	80c752c <FLASH_END+0x4752c>
 8002b6c:	3851b717 	ldmdacc	r1, {r0, r1, r2, r4, r8, r9, sl, ip, sp, pc}^
 8002b70:	36a7c5ac 	strtcc	ip, [r7], ip, lsr #11
 8002b74:	350637bd 	strcc	r3, [r6, #-1981]	; 0xfffff843
 8002b78:	3356bf95 	cmpcc	r6, #596	; 0x254
 8002b7c:	31abcc77 			; <UNDEFINED> instruction: 0x31abcc77
 8002b80:	080029d0 	stmdaeq	r0, {r4, r6, r7, r8, fp, sp}

08002b84 <_ROUND>:
 8002b84:	554f5205 	strbpl	r5, [pc, #-517]	; 8002987 <decimals+0x4f>
 8002b88:	bf00444e 	svclt	0x0000444e

08002b8c <ROUND>:
 8002b8c:	4750      	bx	sl
 8002b8e:	bf00      	nop
 8002b90:	080032df 	stmdaeq	r0, {r0, r1, r2, r3, r4, r6, r7, r9, ip, sp}
 8002b94:	00000001 	andeq	r0, r0, r1
 8002b98:	0800388d 	stmdaeq	r0, {r0, r2, r3, r7, fp, ip, sp}
 8002b9c:	080032df 	stmdaeq	r0, {r0, r1, r2, r3, r4, r6, r7, r9, ip, sp}
 8002ba0:	00000008 	andeq	r0, r0, r8
 8002ba4:	080038a1 	stmdaeq	r0, {r0, r5, r7, fp, ip, sp}
 8002ba8:	080032df 	stmdaeq	r0, {r0, r1, r2, r3, r4, r6, r7, r9, ip, sp}
 8002bac:	00000002 	andeq	r0, r0, r2
 8002bb0:	08003559 	stmdaeq	r0, {r0, r3, r4, r6, r8, sl, ip, sp}
 8002bb4:	080032df 	stmdaeq	r0, {r0, r1, r2, r3, r4, r6, r7, r9, ip, sp}
 8002bb8:	08002b5c 	stmdaeq	r0, {r2, r3, r4, r6, r8, r9, fp, sp}
 8002bbc:	08003569 	stmdaeq	r0, {r0, r3, r5, r6, r8, sl, ip, sp}
 8002bc0:	08003375 	stmdaeq	r0, {r0, r2, r4, r5, r6, r8, r9, ip, sp}
 8002bc4:	08002511 	stmdaeq	r0, {r0, r4, r8, sl, sp}
 8002bc8:	080030bb 	stmdaeq	r0, {r0, r1, r3, r4, r5, r7, ip, sp}
 8002bcc:	08002b84 	stmdaeq	r0, {r2, r7, r8, r9, fp, sp}

08002bd0 <_CSTOP>:
 8002bd0:	2b214303 	blcs	88537e4 <OPTKEY1+0x6c0da9>

08002bd4 <CSTOP>:
 8002bd4:	f857 0b04 	ldr.w	r0, [r7], #4
 8002bd8:	7030      	strb	r0, [r6, #0]
 8002bda:	f106 0601 	add.w	r6, r6, #1
 8002bde:	e269      	b.n	80030b4 <INEXT>

08002be0 <ITOA>:
 8002be0:	4750      	bx	sl
 8002be2:	bf00      	nop
 8002be4:	080033e5 	stmdaeq	r0, {r0, r2, r5, r6, r7, r8, r9, ip, sp}
 8002be8:	08003ce1 	stmdaeq	r0, {r0, r5, r6, r7, sl, fp, ip, sp}
 8002bec:	08003469 	stmdaeq	r0, {r0, r3, r5, r6, sl, ip, sp}
 8002bf0:	080033e5 	stmdaeq	r0, {r0, r2, r5, r6, r7, r8, r9, ip, sp}
 8002bf4:	08003711 	stmdaeq	r0, {r0, r4, r8, r9, sl, ip, sp}
 8002bf8:	080041a5 	stmdaeq	r0, {r0, r2, r5, r7, r8, lr}
 8002bfc:	08004211 	stmdaeq	r0, {r0, r4, r9, lr}
 8002c00:	080033a1 	stmdaeq	r0, {r0, r5, r7, r8, r9, ip, sp}
 8002c04:	08004245 	stmdaeq	r0, {r0, r2, r6, r9, lr}
 8002c08:	0800426d 	stmdaeq	r0, {r0, r2, r3, r5, r6, r9, lr}
 8002c0c:	08003469 	stmdaeq	r0, {r0, r3, r5, r6, sl, ip, sp}
 8002c10:	080036a1 	stmdaeq	r0, {r0, r5, r7, r9, sl, ip, sp}
 8002c14:	080033d1 	stmdaeq	r0, {r0, r4, r6, r7, r8, r9, ip, sp}
 8002c18:	08003479 	stmdaeq	r0, {r0, r3, r4, r5, r6, sl, ip, sp}
 8002c1c:	0800404d 	stmdaeq	r0, {r0, r2, r3, r6, lr}
 8002c20:	08003469 	stmdaeq	r0, {r0, r3, r5, r6, sl, ip, sp}
 8002c24:	080033a1 	stmdaeq	r0, {r0, r5, r7, r8, r9, ip, sp}
 8002c28:	08003569 	stmdaeq	r0, {r0, r3, r5, r6, r8, sl, ip, sp}
 8002c2c:	08003479 	stmdaeq	r0, {r0, r3, r4, r5, r6, sl, ip, sp}
 8002c30:	080030bb 	stmdaeq	r0, {r0, r1, r3, r4, r5, r7, ip, sp}
 8002c34:	08002bd0 	stmdaeq	r0, {r4, r6, r7, r8, r9, fp, sp}

08002c38 <_SCALEUP>:
 8002c38:	41435307 	cmpmi	r3, r7, lsl #6
 8002c3c:	5055454c 	subspl	r4, r5, ip, asr #10

08002c40 <SCALEUP>:
 8002c40:	4750      	bx	sl
 8002c42:	bf00      	nop
 8002c44:	080023a1 	stmdaeq	r0, {r0, r5, r7, r8, r9, sp}
 8002c48:	080033e5 	stmdaeq	r0, {r0, r2, r5, r6, r7, r8, r9, ip, sp}
 8002c4c:	080032df 	stmdaeq	r0, {r0, r1, r2, r3, r4, r6, r7, r9, ip, sp}
 8002c50:	00000000 	andeq	r0, r0, r0
 8002c54:	08003479 	stmdaeq	r0, {r0, r3, r4, r5, r6, sl, ip, sp}
 8002c58:	08003469 	stmdaeq	r0, {r0, r3, r5, r6, sl, ip, sp}
 8002c5c:	080033d1 	stmdaeq	r0, {r0, r4, r6, r7, r8, r9, ip, sp}
 8002c60:	08002625 	stmdaeq	r0, {r0, r2, r5, r9, sl, sp}
 8002c64:	0800331f 	stmdaeq	r0, {r0, r1, r2, r3, r4, r8, r9, ip, sp}
 8002c68:	08002c8c 	stmdaeq	r0, {r2, r3, r7, sl, fp, sp}
 8002c6c:	080032df 	stmdaeq	r0, {r0, r1, r2, r3, r4, r6, r7, r9, ip, sp}
 8002c70:	41200000 			; <UNDEFINED> instruction: 0x41200000
 8002c74:	08002551 	stmdaeq	r0, {r0, r4, r6, r8, sl, sp}
 8002c78:	08003479 	stmdaeq	r0, {r0, r3, r4, r5, r6, sl, ip, sp}
 8002c7c:	080035d5 	stmdaeq	r0, {r0, r2, r4, r6, r7, r8, sl, ip, sp}
 8002c80:	08003479 	stmdaeq	r0, {r0, r3, r4, r5, r6, sl, ip, sp}
 8002c84:	08003347 	stmdaeq	r0, {r0, r1, r2, r6, r8, r9, ip, sp}
 8002c88:	08002c58 	stmdaeq	r0, {r3, r4, r6, sl, fp, sp}
 8002c8c:	080033a1 	stmdaeq	r0, {r0, r5, r7, r8, r9, ip, sp}
 8002c90:	08003459 	stmdaeq	r0, {r0, r3, r4, r6, sl, ip, sp}
 8002c94:	08003479 	stmdaeq	r0, {r0, r3, r4, r5, r6, sl, ip, sp}
 8002c98:	080030bb 	stmdaeq	r0, {r0, r1, r3, r4, r5, r7, ip, sp}
 8002c9c:	08002c38 	stmdaeq	r0, {r3, r4, r5, sl, fp, sp}

08002ca0 <_SCALEDOWN>:
 8002ca0:	41435309 	cmpmi	r3, r9, lsl #6
 8002ca4:	4f44454c 	svcmi	0x0044454c
 8002ca8:	bf004e57 	svclt	0x00004e57

08002cac <SCALEDOWN>:
 8002cac:	4750      	bx	sl
 8002cae:	bf00      	nop
 8002cb0:	080023a1 	stmdaeq	r0, {r0, r5, r7, r8, r9, sp}
 8002cb4:	080033e5 	stmdaeq	r0, {r0, r2, r5, r6, r7, r8, r9, ip, sp}
 8002cb8:	080032df 	stmdaeq	r0, {r0, r1, r2, r3, r4, r6, r7, r9, ip, sp}
 8002cbc:	00000000 	andeq	r0, r0, r0
 8002cc0:	08003479 	stmdaeq	r0, {r0, r3, r4, r5, r6, sl, ip, sp}
 8002cc4:	080033d1 	stmdaeq	r0, {r0, r4, r6, r7, r8, r9, ip, sp}
 8002cc8:	080034a9 	stmdaeq	r0, {r0, r3, r5, r7, sl, ip, sp}
 8002ccc:	08002609 	stmdaeq	r0, {r0, r3, r9, sl, sp}
 8002cd0:	08003333 	stmdaeq	r0, {r0, r1, r4, r5, r8, r9, ip, sp}
 8002cd4:	08002cf8 	stmdaeq	r0, {r3, r4, r5, r6, r7, sl, fp, sp}
 8002cd8:	080032df 	stmdaeq	r0, {r0, r1, r2, r3, r4, r6, r7, r9, ip, sp}
 8002cdc:	41200000 			; <UNDEFINED> instruction: 0x41200000
 8002ce0:	08002571 	stmdaeq	r0, {r0, r4, r5, r6, r8, sl, sp}
 8002ce4:	08003479 	stmdaeq	r0, {r0, r3, r4, r5, r6, sl, ip, sp}
 8002ce8:	080035c5 	stmdaeq	r0, {r0, r2, r6, r7, r8, sl, ip, sp}
 8002cec:	08003479 	stmdaeq	r0, {r0, r3, r4, r5, r6, sl, ip, sp}
 8002cf0:	08003347 	stmdaeq	r0, {r0, r1, r2, r6, r8, r9, ip, sp}
 8002cf4:	08002cc4 	stmdaeq	r0, {r2, r6, r7, sl, fp, sp}
 8002cf8:	080033a1 	stmdaeq	r0, {r0, r5, r7, r8, r9, ip, sp}
 8002cfc:	08003459 	stmdaeq	r0, {r0, r3, r4, r6, sl, ip, sp}
 8002d00:	08003479 	stmdaeq	r0, {r0, r3, r4, r5, r6, sl, ip, sp}
 8002d04:	080030bb 	stmdaeq	r0, {r0, r1, r3, r4, r5, r7, ip, sp}

08002d08 <EPART>:
 8002d08:	4750      	bx	sl
 8002d0a:	bf00      	nop
 8002d0c:	08003479 	stmdaeq	r0, {r0, r3, r4, r5, r6, sl, ip, sp}
 8002d10:	08003679 	stmdaeq	r0, {r0, r3, r4, r5, r6, r9, sl, ip, sp}
 8002d14:	0800331f 	stmdaeq	r0, {r0, r1, r2, r3, r4, r8, r9, ip, sp}
 8002d18:	08002d38 	stmdaeq	r0, {r3, r4, r5, r8, sl, fp, sp}
 8002d1c:	08003479 	stmdaeq	r0, {r0, r3, r4, r5, r6, sl, ip, sp}
 8002d20:	080032df 	stmdaeq	r0, {r0, r1, r2, r3, r4, r6, r7, r9, ip, sp}
 8002d24:	00000045 	andeq	r0, r0, r5, asr #32
 8002d28:	08003479 	stmdaeq	r0, {r0, r3, r4, r5, r6, sl, ip, sp}
 8002d2c:	08002bd5 	stmdaeq	r0, {r0, r2, r4, r6, r7, r8, r9, fp, sp}
 8002d30:	08002be1 	stmdaeq	r0, {r0, r5, r6, r7, r8, r9, fp, sp}
 8002d34:	08003459 	stmdaeq	r0, {r0, r3, r4, r6, sl, ip, sp}
 8002d38:	080030bb 	stmdaeq	r0, {r0, r1, r3, r4, r5, r7, ip, sp}

08002d3c <FPART>:
 8002d3c:	4750      	bx	sl
 8002d3e:	bf00      	nop
 8002d40:	080032df 	stmdaeq	r0, {r0, r1, r2, r3, r4, r6, r7, r9, ip, sp}
 8002d44:	00000002 	andeq	r0, r0, r2
 8002d48:	08003f6d 	stmdaeq	r0, {r0, r2, r3, r5, r6, r8, r9, sl, fp, ip, sp}
 8002d4c:	080034d9 	stmdaeq	r0, {r0, r3, r4, r6, r7, sl, ip, sp}
 8002d50:	0800331f 	stmdaeq	r0, {r0, r1, r2, r3, r4, r8, r9, ip, sp}
 8002d54:	08002d68 	stmdaeq	r0, {r3, r5, r6, r8, sl, fp, sp}
 8002d58:	080033e5 	stmdaeq	r0, {r0, r2, r5, r6, r7, r8, r9, ip, sp}
 8002d5c:	08003459 	stmdaeq	r0, {r0, r3, r4, r6, sl, ip, sp}
 8002d60:	08003347 	stmdaeq	r0, {r0, r1, r2, r6, r8, r9, ip, sp}
 8002d64:	08002dd4 	stmdaeq	r0, {r2, r4, r6, r7, r8, sl, fp, sp}
 8002d68:	080032df 	stmdaeq	r0, {r0, r1, r2, r3, r4, r6, r7, r9, ip, sp}
 8002d6c:	0000002e 	andeq	r0, r0, lr, lsr #32
 8002d70:	08003479 	stmdaeq	r0, {r0, r3, r4, r5, r6, sl, ip, sp}
 8002d74:	08002bd5 	stmdaeq	r0, {r0, r2, r4, r6, r7, r8, r9, fp, sp}
 8002d78:	080033e5 	stmdaeq	r0, {r0, r2, r5, r6, r7, r8, r9, ip, sp}
 8002d7c:	08003479 	stmdaeq	r0, {r0, r3, r4, r5, r6, sl, ip, sp}
 8002d80:	08003679 	stmdaeq	r0, {r0, r3, r4, r5, r6, r9, sl, ip, sp}
 8002d84:	0800331f 	stmdaeq	r0, {r0, r1, r2, r3, r4, r8, r9, ip, sp}
 8002d88:	08002dd4 	stmdaeq	r0, {r2, r4, r6, r7, r8, sl, fp, sp}
 8002d8c:	080035d5 	stmdaeq	r0, {r0, r2, r4, r6, r7, r8, sl, ip, sp}
 8002d90:	08003479 	stmdaeq	r0, {r0, r3, r4, r5, r6, sl, ip, sp}
 8002d94:	080032df 	stmdaeq	r0, {r0, r1, r2, r3, r4, r6, r7, r9, ip, sp}
 8002d98:	41200000 			; <UNDEFINED> instruction: 0x41200000
 8002d9c:	08002551 	stmdaeq	r0, {r0, r4, r6, r8, sl, sp}
 8002da0:	08003469 	stmdaeq	r0, {r0, r3, r5, r6, sl, ip, sp}
 8002da4:	080024e1 	stmdaeq	r0, {r0, r5, r6, r7, sl, sp}
 8002da8:	08003469 	stmdaeq	r0, {r0, r3, r5, r6, sl, ip, sp}
 8002dac:	080032df 	stmdaeq	r0, {r0, r1, r2, r3, r4, r6, r7, r9, ip, sp}
 8002db0:	00000030 	andeq	r0, r0, r0, lsr r0
 8002db4:	08003569 	stmdaeq	r0, {r0, r3, r5, r6, r8, sl, ip, sp}
 8002db8:	080033a1 	stmdaeq	r0, {r0, r5, r7, r8, r9, ip, sp}
 8002dbc:	08002bd5 	stmdaeq	r0, {r0, r2, r4, r6, r7, r8, r9, fp, sp}
 8002dc0:	080033e5 	stmdaeq	r0, {r0, r2, r5, r6, r7, r8, r9, ip, sp}
 8002dc4:	080024f9 	stmdaeq	r0, {r0, r3, r4, r5, r6, r7, sl, sp}
 8002dc8:	08002531 	stmdaeq	r0, {r0, r4, r5, r8, sl, sp}
 8002dcc:	08003347 	stmdaeq	r0, {r0, r1, r2, r6, r8, r9, ip, sp}
 8002dd0:	08002d7c 	stmdaeq	r0, {r2, r3, r4, r5, r6, r8, sl, fp, sp}
 8002dd4:	08003459 	stmdaeq	r0, {r0, r3, r4, r6, sl, ip, sp}
 8002dd8:	080033a1 	stmdaeq	r0, {r0, r5, r7, r8, r9, ip, sp}
 8002ddc:	080030bb 	stmdaeq	r0, {r0, r1, r3, r4, r5, r7, ip, sp}

08002de0 <IPART>:
 8002de0:	4750      	bx	sl
 8002de2:	bf00      	nop
 8002de4:	080033e5 	stmdaeq	r0, {r0, r2, r5, r6, r7, r8, r9, ip, sp}
 8002de8:	08003469 	stmdaeq	r0, {r0, r3, r5, r6, sl, ip, sp}
 8002dec:	080032df 	stmdaeq	r0, {r0, r1, r2, r3, r4, r6, r7, r9, ip, sp}
 8002df0:	3f800000 	svccc	0x00800000
 8002df4:	08002625 	stmdaeq	r0, {r0, r2, r5, r9, sl, sp}
 8002df8:	0800331f 	stmdaeq	r0, {r0, r1, r2, r3, r4, r8, r9, ip, sp}
 8002dfc:	08002e58 	stmdaeq	r0, {r3, r4, r6, r9, sl, fp, sp}
 8002e00:	080032df 	stmdaeq	r0, {r0, r1, r2, r3, r4, r6, r7, r9, ip, sp}
 8002e04:	ffffffff 			; <UNDEFINED> instruction: 0xffffffff
 8002e08:	08002c41 	stmdaeq	r0, {r0, r6, sl, fp, sp}
 8002e0c:	080036a1 	stmdaeq	r0, {r0, r5, r7, r9, sl, ip, sp}
 8002e10:	080034a9 	stmdaeq	r0, {r0, r3, r5, r7, sl, ip, sp}
 8002e14:	08002b8d 	stmdaeq	r0, {r0, r2, r3, r7, r8, r9, fp, sp}
 8002e18:	08003469 	stmdaeq	r0, {r0, r3, r5, r6, sl, ip, sp}
 8002e1c:	080032df 	stmdaeq	r0, {r0, r1, r2, r3, r4, r6, r7, r9, ip, sp}
 8002e20:	3f800000 	svccc	0x00800000
 8002e24:	08002625 	stmdaeq	r0, {r0, r2, r5, r9, sl, sp}
 8002e28:	0800331f 	stmdaeq	r0, {r0, r1, r2, r3, r4, r8, r9, ip, sp}
 8002e2c:	08002e64 	stmdaeq	r0, {r2, r5, r6, r9, sl, fp, sp}
 8002e30:	080032df 	stmdaeq	r0, {r0, r1, r2, r3, r4, r6, r7, r9, ip, sp}
 8002e34:	00000030 	andeq	r0, r0, r0, lsr r0
 8002e38:	080033a1 	stmdaeq	r0, {r0, r5, r7, r8, r9, ip, sp}
 8002e3c:	08002bd5 	stmdaeq	r0, {r0, r2, r4, r6, r7, r8, r9, fp, sp}
 8002e40:	080033e5 	stmdaeq	r0, {r0, r2, r5, r6, r7, r8, r9, ip, sp}
 8002e44:	08003479 	stmdaeq	r0, {r0, r3, r4, r5, r6, sl, ip, sp}
 8002e48:	080035d5 	stmdaeq	r0, {r0, r2, r4, r6, r7, r8, sl, ip, sp}
 8002e4c:	08003479 	stmdaeq	r0, {r0, r3, r4, r5, r6, sl, ip, sp}
 8002e50:	080033a1 	stmdaeq	r0, {r0, r5, r7, r8, r9, ip, sp}
 8002e54:	080030bb 	stmdaeq	r0, {r0, r1, r3, r4, r5, r7, ip, sp}
 8002e58:	080034a9 	stmdaeq	r0, {r0, r3, r5, r7, sl, ip, sp}
 8002e5c:	08002cad 	stmdaeq	r0, {r0, r2, r3, r5, r7, sl, fp, sp}
 8002e60:	080036a1 	stmdaeq	r0, {r0, r5, r7, r9, sl, ip, sp}
 8002e64:	08003469 	stmdaeq	r0, {r0, r3, r5, r6, sl, ip, sp}
 8002e68:	080024e1 	stmdaeq	r0, {r0, r5, r6, r7, sl, sp}
 8002e6c:	08003469 	stmdaeq	r0, {r0, r3, r5, r6, sl, ip, sp}
 8002e70:	080033e5 	stmdaeq	r0, {r0, r2, r5, r6, r7, r8, r9, ip, sp}
 8002e74:	080024f9 	stmdaeq	r0, {r0, r3, r4, r5, r6, r7, sl, sp}
 8002e78:	08002531 	stmdaeq	r0, {r0, r4, r5, r8, sl, sp}
 8002e7c:	080033a1 	stmdaeq	r0, {r0, r5, r7, r8, r9, ip, sp}
 8002e80:	080033a1 	stmdaeq	r0, {r0, r5, r7, r8, r9, ip, sp}
 8002e84:	08002be1 	stmdaeq	r0, {r0, r5, r6, r7, r8, r9, fp, sp}
 8002e88:	080033e5 	stmdaeq	r0, {r0, r2, r5, r6, r7, r8, r9, ip, sp}
 8002e8c:	0800368d 	stmdaeq	r0, {r0, r2, r3, r7, r9, sl, ip, sp}
 8002e90:	080033a1 	stmdaeq	r0, {r0, r5, r7, r8, r9, ip, sp}
 8002e94:	08003579 	stmdaeq	r0, {r0, r3, r4, r5, r6, r8, sl, ip, sp}
 8002e98:	080036a1 	stmdaeq	r0, {r0, r5, r7, r9, sl, ip, sp}
 8002e9c:	080030bb 	stmdaeq	r0, {r0, r1, r3, r4, r5, r7, ip, sp}
 8002ea0:	08002ca0 	stmdaeq	r0, {r5, r7, sl, fp, sp}

08002ea4 <_FTOA>:
 8002ea4:	413e4603 	teqmi	lr, r3, lsl #12

08002ea8 <FTOA>:
 8002ea8:	4750      	bx	sl
 8002eaa:	bf00      	nop
 8002eac:	080034a9 	stmdaeq	r0, {r0, r3, r5, r7, sl, ip, sp}
 8002eb0:	080026c1 	stmdaeq	r0, {r0, r6, r7, r9, sl, sp}
 8002eb4:	080032df 	stmdaeq	r0, {r0, r1, r2, r3, r4, r6, r7, r9, ip, sp}
 8002eb8:	00000080 	andeq	r0, r0, r0, lsl #1
 8002ebc:	080037f5 	stmdaeq	r0, {r0, r2, r4, r5, r6, r7, r8, r9, sl, ip, sp}
 8002ec0:	0800331f 	stmdaeq	r0, {r0, r1, r2, r3, r4, r8, r9, ip, sp}
 8002ec4:	08002ed0 	stmdaeq	r0, {r4, r6, r7, r9, sl, fp, sp}
 8002ec8:	08003347 	stmdaeq	r0, {r0, r1, r2, r6, r8, r9, ip, sp}
 8002ecc:	08002f8c 	stmdaeq	r0, {r2, r3, r7, r8, r9, sl, fp, sp}
 8002ed0:	08003469 	stmdaeq	r0, {r0, r3, r5, r6, sl, ip, sp}
 8002ed4:	080033e5 	stmdaeq	r0, {r0, r2, r5, r6, r7, r8, r9, ip, sp}
 8002ed8:	08003625 	stmdaeq	r0, {r0, r2, r5, r9, sl, ip, sp}
 8002edc:	08003479 	stmdaeq	r0, {r0, r3, r4, r5, r6, sl, ip, sp}
 8002ee0:	08002bd5 	stmdaeq	r0, {r0, r2, r4, r6, r7, r8, r9, fp, sp}
 8002ee4:	080034a9 	stmdaeq	r0, {r0, r3, r5, r7, sl, ip, sp}
 8002ee8:	0800331f 	stmdaeq	r0, {r0, r1, r2, r3, r4, r8, r9, ip, sp}
 8002eec:	08002f3c 	stmdaeq	r0, {r2, r3, r4, r5, r8, r9, sl, fp, sp}
 8002ef0:	080034a9 	stmdaeq	r0, {r0, r3, r5, r7, sl, ip, sp}
 8002ef4:	080026a1 	stmdaeq	r0, {r0, r5, r7, r9, sl, sp}
 8002ef8:	0800331f 	stmdaeq	r0, {r0, r1, r2, r3, r4, r8, r9, ip, sp}
 8002efc:	08002f1c 	stmdaeq	r0, {r2, r3, r4, r8, r9, sl, fp, sp}
 8002f00:	08003479 	stmdaeq	r0, {r0, r3, r4, r5, r6, sl, ip, sp}
 8002f04:	080025b1 	stmdaeq	r0, {r0, r4, r5, r7, r8, sl, sp}
 8002f08:	08003479 	stmdaeq	r0, {r0, r3, r4, r5, r6, sl, ip, sp}
 8002f0c:	080032df 	stmdaeq	r0, {r0, r1, r2, r3, r4, r6, r7, r9, ip, sp}
 8002f10:	0000002d 	andeq	r0, r0, sp, lsr #32
 8002f14:	08003479 	stmdaeq	r0, {r0, r3, r4, r5, r6, sl, ip, sp}
 8002f18:	08002bd5 	stmdaeq	r0, {r0, r2, r4, r6, r7, r8, r9, fp, sp}
 8002f1c:	08002de1 	stmdaeq	r0, {r0, r5, r6, r7, r8, sl, fp, sp}
 8002f20:	08002d3d 	stmdaeq	r0, {r0, r2, r3, r4, r5, r8, sl, fp, sp}
 8002f24:	08002d09 	stmdaeq	r0, {r0, r3, r8, sl, fp, sp}
 8002f28:	080033d1 	stmdaeq	r0, {r0, r4, r6, r7, r8, r9, ip, sp}
 8002f2c:	08003579 	stmdaeq	r0, {r0, r3, r4, r5, r6, r8, sl, ip, sp}
 8002f30:	080033a1 	stmdaeq	r0, {r0, r5, r7, r8, r9, ip, sp}
 8002f34:	08003479 	stmdaeq	r0, {r0, r3, r4, r5, r6, sl, ip, sp}
 8002f38:	080030bb 	stmdaeq	r0, {r0, r1, r3, r4, r5, r7, ip, sp}

08002f3c <zdz>:
 8002f3c:	080033e5 	stmdaeq	r0, {r0, r2, r5, r6, r7, r8, r9, ip, sp}
 8002f40:	080036b5 	stmdaeq	r0, {r0, r2, r4, r5, r7, r9, sl, ip, sp}
 8002f44:	080033a1 	stmdaeq	r0, {r0, r5, r7, r8, r9, ip, sp}
 8002f48:	080032df 	stmdaeq	r0, {r0, r1, r2, r3, r4, r6, r7, r9, ip, sp}
 8002f4c:	00000030 	andeq	r0, r0, r0, lsr r0
 8002f50:	08003479 	stmdaeq	r0, {r0, r3, r4, r5, r6, sl, ip, sp}
 8002f54:	08002bd5 	stmdaeq	r0, {r0, r2, r4, r6, r7, r8, r9, fp, sp}
 8002f58:	080032df 	stmdaeq	r0, {r0, r1, r2, r3, r4, r6, r7, r9, ip, sp}
 8002f5c:	0000002e 	andeq	r0, r0, lr, lsr #32
 8002f60:	08003479 	stmdaeq	r0, {r0, r3, r4, r5, r6, sl, ip, sp}
 8002f64:	08002bd5 	stmdaeq	r0, {r0, r2, r4, r6, r7, r8, r9, fp, sp}
 8002f68:	080032df 	stmdaeq	r0, {r0, r1, r2, r3, r4, r6, r7, r9, ip, sp}
 8002f6c:	00000030 	andeq	r0, r0, r0, lsr r0
 8002f70:	08003479 	stmdaeq	r0, {r0, r3, r4, r5, r6, sl, ip, sp}
 8002f74:	08002bd5 	stmdaeq	r0, {r0, r2, r4, r6, r7, r8, r9, fp, sp}
 8002f78:	08003459 	stmdaeq	r0, {r0, r3, r4, r6, sl, ip, sp}
 8002f7c:	080033a1 	stmdaeq	r0, {r0, r5, r7, r8, r9, ip, sp}
 8002f80:	080032df 	stmdaeq	r0, {r0, r1, r2, r3, r4, r6, r7, r9, ip, sp}
 8002f84:	00000004 	andeq	r0, r0, r4
 8002f88:	080030bb 	stmdaeq	r0, {r0, r1, r3, r4, r5, r7, ip, sp}

08002f8c <nan>:
 8002f8c:	080033e5 	stmdaeq	r0, {r0, r2, r5, r6, r7, r8, r9, ip, sp}
 8002f90:	08003479 	stmdaeq	r0, {r0, r3, r4, r5, r6, sl, ip, sp}
 8002f94:	08003459 	stmdaeq	r0, {r0, r3, r4, r6, sl, ip, sp}
 8002f98:	08003625 	stmdaeq	r0, {r0, r2, r5, r9, sl, ip, sp}
 8002f9c:	080033d1 	stmdaeq	r0, {r0, r4, r6, r7, r8, r9, ip, sp}
 8002fa0:	08002bd5 	stmdaeq	r0, {r0, r2, r4, r6, r7, r8, r9, fp, sp}
 8002fa4:	08003479 	stmdaeq	r0, {r0, r3, r4, r5, r6, sl, ip, sp}
 8002fa8:	080026e5 	stmdaeq	r0, {r0, r2, r5, r6, r7, r9, sl, sp}
 8002fac:	080032df 	stmdaeq	r0, {r0, r1, r2, r3, r4, r6, r7, r9, ip, sp}
 8002fb0:	007fffff 	ldrshteq	pc, [pc], #-255	; <UNPREDICTABLE>
 8002fb4:	080034e9 	stmdaeq	r0, {r0, r3, r5, r6, r7, sl, ip, sp}
 8002fb8:	0800331f 	stmdaeq	r0, {r0, r1, r2, r3, r4, r8, r9, ip, sp}
 8002fbc:	08002ff8 	stmdaeq	r0, {r3, r4, r5, r6, r7, r8, r9, sl, fp, sp}
 8002fc0:	080032df 	stmdaeq	r0, {r0, r1, r2, r3, r4, r6, r7, r9, ip, sp}
 8002fc4:	0000004e 	andeq	r0, r0, lr, asr #32
 8002fc8:	08003479 	stmdaeq	r0, {r0, r3, r4, r5, r6, sl, ip, sp}
 8002fcc:	08002bd5 	stmdaeq	r0, {r0, r2, r4, r6, r7, r8, r9, fp, sp}
 8002fd0:	080032df 	stmdaeq	r0, {r0, r1, r2, r3, r4, r6, r7, r9, ip, sp}
 8002fd4:	00000061 	andeq	r0, r0, r1, rrx
 8002fd8:	08003479 	stmdaeq	r0, {r0, r3, r4, r5, r6, sl, ip, sp}
 8002fdc:	08002bd5 	stmdaeq	r0, {r0, r2, r4, r6, r7, r8, r9, fp, sp}
 8002fe0:	080032df 	stmdaeq	r0, {r0, r1, r2, r3, r4, r6, r7, r9, ip, sp}
 8002fe4:	0000004e 	andeq	r0, r0, lr, asr #32
 8002fe8:	08003479 	stmdaeq	r0, {r0, r3, r4, r5, r6, sl, ip, sp}
 8002fec:	08002bd5 	stmdaeq	r0, {r0, r2, r4, r6, r7, r8, r9, fp, sp}
 8002ff0:	08003347 	stmdaeq	r0, {r0, r1, r2, r6, r8, r9, ip, sp}
 8002ff4:	08003028 	stmdaeq	r0, {r3, r5, ip, sp}

08002ff8 <infinity>:
 8002ff8:	080032df 	stmdaeq	r0, {r0, r1, r2, r3, r4, r6, r7, r9, ip, sp}
 8002ffc:	00000049 	andeq	r0, r0, r9, asr #32
 8003000:	08003479 	stmdaeq	r0, {r0, r3, r4, r5, r6, sl, ip, sp}
 8003004:	08002bd5 	stmdaeq	r0, {r0, r2, r4, r6, r7, r8, r9, fp, sp}
 8003008:	080032df 	stmdaeq	r0, {r0, r1, r2, r3, r4, r6, r7, r9, ip, sp}
 800300c:	0000004e 	andeq	r0, r0, lr, asr #32
 8003010:	08003479 	stmdaeq	r0, {r0, r3, r4, r5, r6, sl, ip, sp}
 8003014:	08002bd5 	stmdaeq	r0, {r0, r2, r4, r6, r7, r8, r9, fp, sp}
 8003018:	080032df 	stmdaeq	r0, {r0, r1, r2, r3, r4, r6, r7, r9, ip, sp}
 800301c:	00000046 	andeq	r0, r0, r6, asr #32
 8003020:	08003479 	stmdaeq	r0, {r0, r3, r4, r5, r6, sl, ip, sp}
 8003024:	08002bd5 	stmdaeq	r0, {r0, r2, r4, r6, r7, r8, r9, fp, sp}
 8003028:	08003459 	stmdaeq	r0, {r0, r3, r4, r6, sl, ip, sp}
 800302c:	080033a1 	stmdaeq	r0, {r0, r5, r7, r8, r9, ip, sp}
 8003030:	080032df 	stmdaeq	r0, {r0, r1, r2, r3, r4, r6, r7, r9, ip, sp}
 8003034:	00000004 	andeq	r0, r0, r4
 8003038:	080030bb 	stmdaeq	r0, {r0, r1, r3, r4, r5, r7, ip, sp}
 800303c:	08002ea4 	stmdaeq	r0, {r2, r5, r7, r9, sl, fp, sp}

08003040 <_FDOT>:
 8003040:	002e4602 	eoreq	r4, lr, r2, lsl #12

08003044 <FDOT>:
 8003044:	4750      	bx	sl
 8003046:	bf00      	nop
 8003048:	080032df 	stmdaeq	r0, {r0, r1, r2, r3, r4, r6, r7, r9, ip, sp}
 800304c:	00000001 	andeq	r0, r0, r1
 8003050:	0800388d 	stmdaeq	r0, {r0, r2, r3, r7, fp, ip, sp}
 8003054:	080032df 	stmdaeq	r0, {r0, r1, r2, r3, r4, r6, r7, r9, ip, sp}
 8003058:	00000007 	andeq	r0, r0, r7
 800305c:	080038a1 	stmdaeq	r0, {r0, r5, r7, fp, ip, sp}
 8003060:	08003479 	stmdaeq	r0, {r0, r3, r4, r5, r6, sl, ip, sp}
 8003064:	08003fa1 	stmdaeq	r0, {r0, r5, r7, r8, r9, sl, fp, ip, sp}
 8003068:	080033e5 	stmdaeq	r0, {r0, r2, r5, r6, r7, r8, r9, ip, sp}
 800306c:	080032df 	stmdaeq	r0, {r0, r1, r2, r3, r4, r6, r7, r9, ip, sp}
 8003070:	00000010 	andeq	r0, r0, r0, lsl r0
 8003074:	080052a9 	stmdaeq	r0, {r0, r3, r5, r7, r9, ip, lr}
 8003078:	080033d1 	stmdaeq	r0, {r0, r4, r6, r7, r8, r9, ip, sp}
 800307c:	080032df 	stmdaeq	r0, {r0, r1, r2, r3, r4, r6, r7, r9, ip, sp}
 8003080:	00000010 	andeq	r0, r0, r0, lsl r0
 8003084:	080032df 	stmdaeq	r0, {r0, r1, r2, r3, r4, r6, r7, r9, ip, sp}
 8003088:	00000000 	andeq	r0, r0, r0
 800308c:	080040c5 	stmdaeq	r0, {r0, r2, r6, r7, lr}
 8003090:	080033a1 	stmdaeq	r0, {r0, r5, r7, r8, r9, ip, sp}
 8003094:	08002ea9 	stmdaeq	r0, {r0, r3, r5, r7, r9, sl, fp, sp}
 8003098:	080045b1 	stmdaeq	r0, {r0, r4, r5, r7, r8, sl, lr}
 800309c:	080032df 	stmdaeq	r0, {r0, r1, r2, r3, r4, r6, r7, r9, ip, sp}
 80030a0:	fffffff0 			; <UNDEFINED> instruction: 0xfffffff0
 80030a4:	080052a9 	stmdaeq	r0, {r0, r3, r5, r7, r9, ip, lr}
 80030a8:	080030bb 	stmdaeq	r0, {r0, r1, r3, r4, r5, r7, ip, sp}

080030ac <NEST>:
 80030ac:	f848 cd04 	str.w	ip, [r8, #-4]!
 80030b0:	f105 0c03 	add.w	ip, r5, #3

080030b4 <INEXT>:
 80030b4:	f85c 5b04 	ldr.w	r5, [ip], #4
 80030b8:	4728      	bx	r5

080030ba <UNNEST>:
 80030ba:	f858 cb04 	ldr.w	ip, [r8], #4
 80030be:	f85c 5b04 	ldr.w	r5, [ip], #4
 80030c2:	4728      	bx	r5

080030c4 <COMPI_NEST>:
 80030c4:	f104 014c 	add.w	r1, r4, #76	; 0x4c
 80030c8:	6809      	ldr	r1, [r1, #0]
 80030ca:	f244 7250 	movw	r2, #18256	; 0x4750
 80030ce:	f821 2b02 	strh.w	r2, [r1], #2
 80030d2:	f44f 423f 	mov.w	r2, #48896	; 0xbf00
 80030d6:	f821 2b02 	strh.w	r2, [r1], #2
 80030da:	f104 024c 	add.w	r2, r4, #76	; 0x4c
 80030de:	6011      	str	r1, [r2, #0]
 80030e0:	e7e8      	b.n	80030b4 <INEXT>

080030e2 <TSTDIN>:
 80030e2:	f847 6d04 	str.w	r6, [r7, #-4]!
 80030e6:	f104 0614 	add.w	r6, r4, #20
 80030ea:	e7e3      	b.n	80030b4 <INEXT>

080030ec <TSTDOUT>:
 80030ec:	f847 6d04 	str.w	r6, [r7, #-4]!
 80030f0:	f104 0618 	add.w	r6, r4, #24
 80030f4:	e7de      	b.n	80030b4 <INEXT>
 80030f6:	08003040 	stmdaeq	r0, {r6, ip, sp}

080030fa <_CFSR>:
 80030fa:	53464304 	movtpl	r4, #25348	; 0x6304
 80030fe:	 	vst4.16	{d16-d19}, [pc :64], r2

08003100 <CFSR>:
 8003100:	f44f 406d 	mov.w	r0, #60672	; 0xed00
 8003104:	f2ce 0000 	movt	r0, #57344	; 0xe000
 8003108:	f847 6d04 	str.w	r6, [r7, #-4]!
 800310c:	6a86      	ldr	r6, [r0, #40]	; 0x28
 800310e:	ea81 0101 	eor.w	r1, r1, r1
 8003112:	6281      	str	r1, [r0, #40]	; 0x28
 8003114:	e7ce      	b.n	80030b4 <INEXT>
 8003116:	080030fa 	stmdaeq	r0, {r1, r3, r4, r5, r6, r7, ip, sp}

0800311a <_BFAR>:
 800311a:	41464204 	cmpmi	r6, r4, lsl #4
 800311e:	 	vst4.16	{d16-d19}, [pc :64], r2

08003120 <BFAR>:
 8003120:	f44f 406d 	mov.w	r0, #60672	; 0xed00
 8003124:	f2ce 0000 	movt	r0, #57344	; 0xe000
 8003128:	f847 6d04 	str.w	r6, [r7, #-4]!
 800312c:	6b86      	ldr	r6, [r0, #56]	; 0x38
 800312e:	ea81 0101 	eor.w	r1, r1, r1
 8003132:	6381      	str	r1, [r0, #56]	; 0x38
 8003134:	e7be      	b.n	80030b4 <INEXT>
 8003136:	0800311a 	stmdaeq	r0, {r1, r3, r4, r8, ip, sp}

0800313a <_QKEY>:
 800313a:	59454b04 	stmdbpl	r5, {r2, r8, r9, fp, lr}^
 800313e:	 	smmlarmi	r0, pc, r0, r0	; <UNPREDICTABLE>

08003140 <QKEY>:
 8003140:	4750      	bx	sl
 8003142:	bf00      	nop
 8003144:	080030e3 	stmdaeq	r0, {r0, r1, r5, r6, r7, ip, sp}
 8003148:	0800402d 	stmdaeq	r0, {r0, r2, r3, r5, lr}
 800314c:	080030bb 	stmdaeq	r0, {r0, r1, r3, r4, r5, r7, ip, sp}
 8003150:	0800313a 	stmdaeq	r0, {r1, r3, r4, r5, r8, ip, sp}

08003154 <_KEY>:
 8003154:	59454b03 	stmdbpl	r5, {r0, r1, r8, r9, fp, lr}^

08003158 <KEY>:
 8003158:	4750      	bx	sl
 800315a:	bf00      	nop

0800315c <KEY1>:
 800315c:	08001ec5 	stmdaeq	r0, {r0, r2, r6, r7, r9, sl, fp, ip}
 8003160:	08003141 	stmdaeq	r0, {r0, r6, r8, ip, sp}
 8003164:	0800331f 	stmdaeq	r0, {r0, r1, r2, r3, r4, r8, r9, ip, sp}
 8003168:	0800315c 	stmdaeq	r0, {r2, r3, r4, r6, r8, ip, sp}
 800316c:	080030bb 	stmdaeq	r0, {r0, r1, r3, r4, r5, r7, ip, sp}
 8003170:	08003154 	stmdaeq	r0, {r2, r4, r6, r8, ip, sp}

08003174 <_EMIT>:
 8003174:	494d4504 	stmdbmi	sp, {r2, r8, sl, lr}^
 8003178:	bf000054 	svclt	0x00000054

0800317c <EMIT>:
 800317c:	4750      	bx	sl
 800317e:	bf00      	nop
 8003180:	080030ed 	stmdaeq	r0, {r0, r2, r3, r5, r6, r7, ip, sp}
 8003184:	0800402d 	stmdaeq	r0, {r0, r2, r3, r5, lr}
 8003188:	080030bb 	stmdaeq	r0, {r0, r1, r3, r4, r5, r7, ip, sp}
 800318c:	08003174 	stmdaeq	r0, {r2, r4, r5, r6, r8, ip, sp}

08003190 <_RAND>:
 8003190:	4e415206 	cdpmi	2, 4, cr5, cr1, cr6, {0}
 8003194:	004d4f44 	subeq	r4, sp, r4, asr #30

08003198 <RAND>:
 8003198:	4750      	bx	sl
 800319a:	bf00      	nop
 800319c:	0800379d 	stmdaeq	r0, {r0, r2, r3, r4, r7, r8, r9, sl, ip, sp}
 80031a0:	08003975 	stmdaeq	r0, {r0, r2, r4, r5, r6, r8, fp, ip, sp}
 80031a4:	08003375 	stmdaeq	r0, {r0, r2, r4, r5, r6, r8, r9, ip, sp}
 80031a8:	08003469 	stmdaeq	r0, {r0, r3, r5, r6, sl, ip, sp}
 80031ac:	080032df 	stmdaeq	r0, {r0, r1, r2, r3, r4, r6, r7, r9, ip, sp}
 80031b0:	0000000d 	andeq	r0, r0, sp
 80031b4:	08003559 	stmdaeq	r0, {r0, r3, r4, r6, r8, sl, ip, sp}
 80031b8:	08003511 	stmdaeq	r0, {r0, r4, r8, sl, ip, sp}
 80031bc:	08003469 	stmdaeq	r0, {r0, r3, r5, r6, sl, ip, sp}
 80031c0:	080032df 	stmdaeq	r0, {r0, r1, r2, r3, r4, r6, r7, r9, ip, sp}
 80031c4:	00000011 	andeq	r0, r0, r1, lsl r0
 80031c8:	08003541 	stmdaeq	r0, {r0, r6, r8, sl, ip, sp}
 80031cc:	08003511 	stmdaeq	r0, {r0, r4, r8, sl, ip, sp}
 80031d0:	08003469 	stmdaeq	r0, {r0, r3, r5, r6, sl, ip, sp}
 80031d4:	080032df 	stmdaeq	r0, {r0, r1, r2, r3, r4, r6, r7, r9, ip, sp}
 80031d8:	00000005 	andeq	r0, r0, r5
 80031dc:	08003559 	stmdaeq	r0, {r0, r3, r4, r6, r8, sl, ip, sp}
 80031e0:	08003511 	stmdaeq	r0, {r0, r4, r8, sl, ip, sp}
 80031e4:	08003469 	stmdaeq	r0, {r0, r3, r5, r6, sl, ip, sp}
 80031e8:	08003975 	stmdaeq	r0, {r0, r2, r4, r5, r6, r8, fp, ip, sp}
 80031ec:	08003361 	stmdaeq	r0, {r0, r5, r6, r8, r9, ip, sp}
 80031f0:	080032df 	stmdaeq	r0, {r0, r1, r2, r3, r4, r6, r7, r9, ip, sp}
 80031f4:	7fffffff 	svcvc	0x00ffffff
 80031f8:	080034e9 	stmdaeq	r0, {r0, r3, r5, r6, r7, sl, ip, sp}
 80031fc:	08003479 	stmdaeq	r0, {r0, r3, r4, r5, r6, sl, ip, sp}
 8003200:	08003e29 	stmdaeq	r0, {r0, r3, r5, r9, sl, fp, ip, sp}
 8003204:	080030bb 	stmdaeq	r0, {r0, r1, r3, r4, r5, r7, ip, sp}
 8003208:	08003190 	stmdaeq	r0, {r4, r7, r8, ip, sp}

0800320c <_PAUSE>:
 800320c:	55415005 	strbpl	r5, [r1, #-5]
 8003210:	bf004553 	svclt	0x00004553

08003214 <PAUSE>:
 8003214:	4750      	bx	sl
 8003216:	bf00      	nop
 8003218:	080039a5 	stmdaeq	r0, {r0, r2, r5, r7, r8, fp, ip, sp}
 800321c:	08003361 	stmdaeq	r0, {r0, r5, r6, r8, r9, ip, sp}

08003220 <PAUSE_LOOP>:
 8003220:	080039a5 	stmdaeq	r0, {r0, r2, r5, r7, r8, fp, ip, sp}
 8003224:	08003375 	stmdaeq	r0, {r0, r2, r4, r5, r6, r8, r9, ip, sp}
 8003228:	0800331f 	stmdaeq	r0, {r0, r1, r2, r3, r4, r8, r9, ip, sp}
 800322c:	08003238 	stmdaeq	r0, {r3, r4, r5, r9, ip, sp}
 8003230:	08003347 	stmdaeq	r0, {r0, r1, r2, r6, r8, r9, ip, sp}
 8003234:	08003220 	stmdaeq	r0, {r5, r9, ip, sp}

08003238 <PAUSE_EXIT>:
 8003238:	080030bb 	stmdaeq	r0, {r0, r1, r3, r4, r5, r7, ip, sp}
 800323c:	0800320c 	stmdaeq	r0, {r2, r3, r9, ip, sp}

08003240 <_ULED>:
 8003240:	454c5504 	strbmi	r5, [ip, #-1284]	; 0xfffffafc
 8003244:	bf000044 	svclt	0x00000044

08003248 <ULED>:
 8003248:	f44f 5000 	mov.w	r0, #8192	; 0x2000
 800324c:	f44f 6100 	mov.w	r1, #2048	; 0x800
 8003250:	f2c4 0102 	movt	r1, #16386	; 0x4002
 8003254:	0036      	movs	r6, r6
 8003256:	f857 6b04 	ldr.w	r6, [r7], #4
 800325a:	d003      	beq.n	8003264 <ULED_OFF>
 800325c:	ea4f 4000 	mov.w	r0, r0, lsl #16
 8003260:	6188      	str	r0, [r1, #24]
 8003262:	e727      	b.n	80030b4 <INEXT>

08003264 <ULED_OFF>:
 8003264:	6188      	str	r0, [r1, #24]
 8003266:	e725      	b.n	80030b4 <INEXT>
 8003268:	08003240 	stmdaeq	r0, {r6, r9, ip, sp}

0800326c <_JOYSTK>:
 800326c:	594f4a06 	stmdbpl	pc, {r1, r2, r9, fp, lr}^	; <UNPREDICTABLE>
 8003270:	004b5453 	subeq	r5, fp, r3, asr r4

08003274 <JOYSTK>:
 8003274:	4750      	bx	sl
 8003276:	bf00      	nop
 8003278:	080032df 	stmdaeq	r0, {r0, r1, r2, r3, r4, r6, r7, r9, ip, sp}
 800327c:	40020010 	andmi	r0, r2, r0, lsl r0
 8003280:	08003375 	stmdaeq	r0, {r0, r2, r4, r5, r6, r8, r9, ip, sp}
 8003284:	080032df 	stmdaeq	r0, {r0, r1, r2, r3, r4, r6, r7, r9, ip, sp}
 8003288:	0000100f 	andeq	r1, r0, pc
 800328c:	080034e9 	stmdaeq	r0, {r0, r3, r5, r6, r7, sl, ip, sp}
 8003290:	080030bb 	stmdaeq	r0, {r0, r1, r3, r4, r5, r7, ip, sp}
 8003294:	0800326c 	stmdaeq	r0, {r2, r3, r5, r6, r9, ip, sp}

08003298 <_BEEP>:
 8003298:	45454204 	strbmi	r4, [r5, #-516]	; 0xfffffdfc
 800329c:	bf000050 	svclt	0x00000050

080032a0 <BEEP>:
 80032a0:	f648 5080 	movw	r0, #36224	; 0x8d80
 80032a4:	f2c0 005b 	movt	r0, #91	; 0x5b
 80032a8:	fbb0 f0f6 	udiv	r0, r0, r6
 80032ac:	f857 6b04 	ldr.w	r6, [r7], #4
 80032b0:	f44f 6100 	mov.w	r1, #2048	; 0x800
 80032b4:	f2c4 0100 	movt	r1, #16384	; 0x4000
 80032b8:	62c8      	str	r0, [r1, #44]	; 0x2c
 80032ba:	ea4f 0050 	mov.w	r0, r0, lsr #1
 80032be:	6348      	str	r0, [r1, #52]	; 0x34
 80032c0:	f04f 0001 	mov.w	r0, #1
 80032c4:	6208      	str	r0, [r1, #32]
 80032c6:	6008      	str	r0, [r1, #0]
 80032c8:	68c8      	ldr	r0, [r1, #12]
 80032ca:	f8c4 60b0 	str.w	r6, [r4, #176]	; 0xb0
 80032ce:	f857 6b04 	ldr.w	r6, [r7], #4
 80032d2:	e6ef      	b.n	80030b4 <INEXT>
 80032d4:	08003298 	stmdaeq	r0, {r3, r4, r7, r9, ip, sp}

080032d8 <_NOP>:
 80032d8:	504f4e03 	subpl	r4, pc, r3, lsl #28

080032dc <NOP>:
 80032dc:	e6ea      	b.n	80030b4 <INEXT>

080032de <DOLIT>:
 80032de:	f847 6d04 	str.w	r6, [r7, #-4]!
 80032e2:	f85c 6b04 	ldr.w	r6, [ip], #4
 80032e6:	e6e5      	b.n	80030b4 <INEXT>
 80032e8:	080032d8 	stmdaeq	r0, {r3, r4, r6, r7, r9, ip, sp}

080032ec <_EXECU>:
 80032ec:	45584507 	ldrbmi	r4, [r8, #-1287]	; 0xfffffaf9
 80032f0:	45545543 	ldrbmi	r5, [r4, #-1347]	; 0xfffffabd

080032f4 <EXECU>:
 80032f4:	f046 0501 	orr.w	r5, r6, #1
 80032f8:	f857 6b04 	ldr.w	r6, [r7], #4
 80032fc:	4728      	bx	r5
 80032fe:	e6d9      	b.n	80030b4 <INEXT>

08003300 <DONXT>:
 8003300:	f8d8 2000 	ldr.w	r2, [r8]
 8003304:	b922      	cbnz	r2, 8003310 <NEXT1>
 8003306:	f108 0804 	add.w	r8, r8, #4
 800330a:	f10c 0c04 	add.w	ip, ip, #4
 800330e:	e6d1      	b.n	80030b4 <INEXT>

08003310 <NEXT1>:
 8003310:	f1a2 0201 	sub.w	r2, r2, #1
 8003314:	f8c8 2000 	str.w	r2, [r8]
 8003318:	f8dc c000 	ldr.w	ip, [ip]
 800331c:	e6ca      	b.n	80030b4 <INEXT>

0800331e <QBRAN>:
 800331e:	0036      	movs	r6, r6
 8003320:	f857 6b04 	ldr.w	r6, [r7], #4
 8003324:	d102      	bne.n	800332c <QBRAN1>
 8003326:	f8dc c000 	ldr.w	ip, [ip]
 800332a:	e6c3      	b.n	80030b4 <INEXT>

0800332c <QBRAN1>:
 800332c:	f10c 0c04 	add.w	ip, ip, #4
 8003330:	e6c0      	b.n	80030b4 <INEXT>

08003332 <TBRAN>:
 8003332:	0036      	movs	r6, r6
 8003334:	f857 6b04 	ldr.w	r6, [r7], #4
 8003338:	d002      	beq.n	8003340 <TBRAN+0xe>
 800333a:	f8dc c000 	ldr.w	ip, [ip]
 800333e:	e6b9      	b.n	80030b4 <INEXT>
 8003340:	f10c 0c04 	add.w	ip, ip, #4
 8003344:	e6b6      	b.n	80030b4 <INEXT>

08003346 <BRAN>:
 8003346:	f8dc c000 	ldr.w	ip, [ip]
 800334a:	e6b3      	b.n	80030b4 <INEXT>
 800334c:	080032ec 	stmdaeq	r0, {r2, r3, r5, r6, r7, r9, ip, sp}

08003350 <_EXIT>:
 8003350:	49584504 	ldmdbmi	r8, {r2, r8, sl, lr}^
 8003354:	bf000054 	svclt	0x00000054

08003358 <EXIT>:
 8003358:	e6af      	b.n	80030ba <UNNEST>
 800335a:	08003350 	stmdaeq	r0, {r4, r6, r8, r9, ip, sp}

0800335e <_STORE>:
 800335e:	 			; <UNDEFINED> instruction: 0xf8572101

08003360 <STORE>:
 8003360:	f857 5b04 	ldr.w	r5, [r7], #4
 8003364:	6035      	str	r5, [r6, #0]
 8003366:	f857 6b04 	ldr.w	r6, [r7], #4
 800336a:	e6a3      	b.n	80030b4 <INEXT>
 800336c:	0800335e 	stmdaeq	r0, {r1, r2, r3, r4, r6, r8, r9, ip, sp}

08003370 <_AT>:
 8003370:	bf004001 	svclt	0x00004001

08003374 <AT>:
 8003374:	6836      	ldr	r6, [r6, #0]
 8003376:	e69d      	b.n	80030b4 <INEXT>
 8003378:	08003370 	stmdaeq	r0, {r4, r5, r6, r8, r9, ip, sp}

0800337c <_CSTOR>:
 800337c:	00214302 	eoreq	r4, r1, r2, lsl #6

08003380 <CSTOR>:
 8003380:	f857 5b04 	ldr.w	r5, [r7], #4
 8003384:	7035      	strb	r5, [r6, #0]
 8003386:	f857 6b04 	ldr.w	r6, [r7], #4
 800338a:	e693      	b.n	80030b4 <INEXT>
 800338c:	0800337c 	stmdaeq	r0, {r2, r3, r4, r5, r6, r8, r9, ip, sp}

08003390 <_CAT>:
 8003390:	00404302 	subeq	r4, r0, r2, lsl #6

08003394 <CAT>:
 8003394:	7836      	ldrb	r6, [r6, #0]
 8003396:	e68d      	b.n	80030b4 <INEXT>
 8003398:	08003390 	stmdaeq	r0, {r4, r7, r8, r9, ip, sp}

0800339c <_RFROM>:
 800339c:	003e5202 	eorseq	r5, lr, r2, lsl #4

080033a0 <RFROM>:
 80033a0:	f847 6d04 	str.w	r6, [r7, #-4]!
 80033a4:	f858 6b04 	ldr.w	r6, [r8], #4
 80033a8:	e684      	b.n	80030b4 <INEXT>
 80033aa:	0800339c 	stmdaeq	r0, {r2, r3, r4, r7, r8, r9, ip, sp}

080033ae <_DRFROM>:
 80033ae:	3e523203 	cdpcc	2, 5, cr3, cr2, cr3, {0}
 80033b2:	bf00      	nop

080033b4 <DRFROM>:
 80033b4:	f847 6d04 	str.w	r6, [r7, #-4]!
 80033b8:	f858 6b04 	ldr.w	r6, [r8], #4
 80033bc:	f847 6d04 	str.w	r6, [r7, #-4]!
 80033c0:	f858 6b04 	ldr.w	r6, [r8], #4
 80033c4:	e676      	b.n	80030b4 <INEXT>
 80033c6:	080033ae 	stmdaeq	r0, {r1, r2, r3, r5, r7, r8, r9, ip, sp}

080033ca <_RAT>:
 80033ca:	00405202 	subeq	r5, r0, r2, lsl #4
 80033ce:	bf00      	nop

080033d0 <RAT>:
 80033d0:	f847 6d04 	str.w	r6, [r7, #-4]!
 80033d4:	f8d8 6000 	ldr.w	r6, [r8]
 80033d8:	e66c      	b.n	80030b4 <INEXT>
 80033da:	080033ca 	stmdaeq	r0, {r1, r3, r6, r7, r8, r9, ip, sp}

080033de <_TOR>:
 80033de:	00523e02 	subseq	r3, r2, r2, lsl #28
 80033e2:	bf00      	nop

080033e4 <TOR>:
 80033e4:	f848 6d04 	str.w	r6, [r8, #-4]!
 80033e8:	f857 6b04 	ldr.w	r6, [r7], #4
 80033ec:	e662      	b.n	80030b4 <INEXT>
 80033ee:	080033de 	stmdaeq	r0, {r1, r2, r3, r4, r6, r7, r8, r9, ip, sp}

080033f2 <_DTOR>:
 80033f2:	523e3203 	eorspl	r3, lr, #805306368	; 0x30000000
 80033f6:	bf00      	nop

080033f8 <DTOR>:
 80033f8:	f848 6d04 	str.w	r6, [r8, #-4]!
 80033fc:	f857 6b04 	ldr.w	r6, [r7], #4
 8003400:	f848 6d04 	str.w	r6, [r8, #-4]!
 8003404:	f857 6b04 	ldr.w	r6, [r7], #4
 8003408:	e654      	b.n	80030b4 <INEXT>
 800340a:	080033f2 	stmdaeq	r0, {r1, r4, r5, r6, r7, r8, r9, ip, sp}

0800340e <_RPSTOR>:
 800340e:	21505203 	cmpcs	r0, r3, lsl #4
 8003412:	bf00      	nop

08003414 <RPSTOR>:
 8003414:	46b0      	mov	r8, r6
 8003416:	f857 6b04 	ldr.w	r6, [r7], #4
 800341a:	e64b      	b.n	80030b4 <INEXT>
 800341c:	0800340e 	stmdaeq	r0, {r1, r2, r3, sl, ip, sp}

08003420 <_SPSTOR>:
 8003420:	21505303 	cmpcs	r0, r3, lsl #6

08003424 <SPSTOR>:
 8003424:	4637      	mov	r7, r6
 8003426:	ea86 0606 	eor.w	r6, r6, r6
 800342a:	e643      	b.n	80030b4 <INEXT>
 800342c:	08003420 	stmdaeq	r0, {r5, sl, ip, sp}

08003430 <_SPAT>:
 8003430:	40505303 	subsmi	r5, r0, r3, lsl #6

08003434 <SPAT>:
 8003434:	f847 6d04 	str.w	r6, [r7, #-4]!
 8003438:	463e      	mov	r6, r7
 800343a:	e63b      	b.n	80030b4 <INEXT>
 800343c:	08003430 	stmdaeq	r0, {r4, r5, sl, ip, sp}

08003440 <_RPAT>:
 8003440:	40505203 	subsmi	r5, r0, r3, lsl #4

08003444 <RPAT>:
 8003444:	f847 6d04 	str.w	r6, [r7, #-4]!
 8003448:	4646      	mov	r6, r8
 800344a:	e633      	b.n	80030b4 <INEXT>
 800344c:	08003440 	stmdaeq	r0, {r6, sl, ip, sp}

08003450 <_DROP>:
 8003450:	4f524404 	svcmi	0x00524404
 8003454:	bf000050 	svclt	0x00000050

08003458 <DROP>:
 8003458:	f857 6b04 	ldr.w	r6, [r7], #4
 800345c:	e62a      	b.n	80030b4 <INEXT>
 800345e:	08003450 	stmdaeq	r0, {r4, r6, sl, ip, sp}

08003462 <_DUPP>:
 8003462:	50554403 	subspl	r4, r5, r3, lsl #8
 8003466:	bf00      	nop

08003468 <DUPP>:
 8003468:	f847 6d04 	str.w	r6, [r7, #-4]!
 800346c:	e622      	b.n	80030b4 <INEXT>
 800346e:	08003462 	stmdaeq	r0, {r1, r5, r6, sl, ip, sp}

08003472 <_SWAP>:
 8003472:	41575304 	cmpmi	r7, r4, lsl #6
 8003476:	 	ldmdavs	sp!, {r4, r6}

08003478 <SWAP>:
 8003478:	683d      	ldr	r5, [r7, #0]
 800347a:	603e      	str	r6, [r7, #0]
 800347c:	462e      	mov	r6, r5
 800347e:	e619      	b.n	80030b4 <INEXT>
 8003480:	08003472 	stmdaeq	r0, {r1, r4, r5, r6, sl, ip, sp}

08003484 <_DSWAP>:
 8003484:	57533205 	ldrbpl	r3, [r3, -r5, lsl #4]
 8003488:	bf005041 	svclt	0x00005041

0800348c <DSWAP>:
 800348c:	4630      	mov	r0, r6
 800348e:	6839      	ldr	r1, [r7, #0]
 8003490:	687e      	ldr	r6, [r7, #4]
 8003492:	68bd      	ldr	r5, [r7, #8]
 8003494:	603d      	str	r5, [r7, #0]
 8003496:	6078      	str	r0, [r7, #4]
 8003498:	60b9      	str	r1, [r7, #8]
 800349a:	e60b      	b.n	80030b4 <INEXT>
 800349c:	08003484 	stmdaeq	r0, {r2, r7, sl, ip, sp}

080034a0 <_OVER>:
 80034a0:	45564f04 	ldrbmi	r4, [r6, #-3844]	; 0xfffff0fc
 80034a4:	bf000052 	svclt	0x00000052

080034a8 <OVER>:
 80034a8:	f847 6d04 	str.w	r6, [r7, #-4]!
 80034ac:	687e      	ldr	r6, [r7, #4]
 80034ae:	e601      	b.n	80030b4 <INEXT>
 80034b0:	080034a0 	stmdaeq	r0, {r5, r7, sl, ip, sp}

080034b4 <_DOVER>:
 80034b4:	564f3205 	strbpl	r3, [pc], -r5, lsl #4
 80034b8:	bf005245 	svclt	0x00005245

080034bc <DOVER>:
 80034bc:	6878      	ldr	r0, [r7, #4]
 80034be:	68bd      	ldr	r5, [r7, #8]
 80034c0:	f847 6d04 	str.w	r6, [r7, #-4]!
 80034c4:	462e      	mov	r6, r5
 80034c6:	f847 6d04 	str.w	r6, [r7, #-4]!
 80034ca:	4606      	mov	r6, r0
 80034cc:	e5f2      	b.n	80030b4 <INEXT>
 80034ce:	080034b4 	stmdaeq	r0, {r2, r4, r5, r7, sl, ip, sp}

080034d2 <_ZLESS>:
 80034d2:	003c3002 	eorseq	r3, ip, r2
 80034d6:	bf00      	nop

080034d8 <ZLESS>:
 80034d8:	ea4f 76e6 	mov.w	r6, r6, asr #31
 80034dc:	e5ea      	b.n	80030b4 <INEXT>
 80034de:	080034d2 	stmdaeq	r0, {r1, r4, r6, r7, sl, ip, sp}

080034e2 <_ANDD>:
 80034e2:	444e4103 	strbmi	r4, [lr], #-259	; 0xfffffefd
 80034e6:	bf00      	nop

080034e8 <ANDD>:
 80034e8:	f857 5b04 	ldr.w	r5, [r7], #4
 80034ec:	ea06 0605 	and.w	r6, r6, r5
 80034f0:	e5e0      	b.n	80030b4 <INEXT>
 80034f2:	080034e2 	stmdaeq	r0, {r1, r5, r6, r7, sl, ip, sp}

080034f6 <_ORR>:
 80034f6:	00524f02 	subseq	r4, r2, r2, lsl #30
 80034fa:	bf00      	nop

080034fc <ORR>:
 80034fc:	f857 5b04 	ldr.w	r5, [r7], #4
 8003500:	ea46 0605 	orr.w	r6, r6, r5
 8003504:	e5d6      	b.n	80030b4 <INEXT>
 8003506:	080034f6 	stmdaeq	r0, {r1, r2, r4, r5, r6, r7, sl, ip, sp}

0800350a <_XORR>:
 800350a:	524f5803 	subpl	r5, pc, #196608	; 0x30000
 800350e:	bf00      	nop

08003510 <XORR>:
 8003510:	f857 5b04 	ldr.w	r5, [r7], #4
 8003514:	ea86 0605 	eor.w	r6, r6, r5
 8003518:	e5cc      	b.n	80030b4 <INEXT>
 800351a:	0800350a 	stmdaeq	r0, {r1, r3, r8, sl, ip, sp}

0800351e <_UPLUS>:
 800351e:	2b4d5503 	blcs	9358932 <OPTKEY1+0x11c5ef7>
 8003522:	bf00      	nop

08003524 <UPLUS>:
 8003524:	683d      	ldr	r5, [r7, #0]
 8003526:	19ad      	adds	r5, r5, r6
 8003528:	f04f 0600 	mov.w	r6, #0
 800352c:	f146 0600 	adc.w	r6, r6, #0
 8003530:	603d      	str	r5, [r7, #0]
 8003532:	e5bf      	b.n	80030b4 <INEXT>
 8003534:	0800351e 	stmdaeq	r0, {r1, r2, r3, r4, r8, sl, ip, sp}

08003538 <_RSHIFT>:
 8003538:	48535206 	ldmdami	r3, {r1, r2, r9, ip, lr}^
 800353c:	00544649 	subseq	r4, r4, r9, asr #12

08003540 <RSHIFT>:
 8003540:	f857 5b04 	ldr.w	r5, [r7], #4
 8003544:	fa25 f606 	lsr.w	r6, r5, r6
 8003548:	e5b4      	b.n	80030b4 <INEXT>
 800354a:	08003538 	stmdaeq	r0, {r3, r4, r5, r8, sl, ip, sp}

0800354e <_LSHIFT>:
 800354e:	48534c06 	ldmdami	r3, {r1, r2, sl, fp, lr}^
 8003552:	00544649 	subseq	r4, r4, r9, asr #12
 8003556:	bf00      	nop

08003558 <LSHIFT>:
 8003558:	f857 5b04 	ldr.w	r5, [r7], #4
 800355c:	fa05 f606 	lsl.w	r6, r5, r6
 8003560:	e5a8      	b.n	80030b4 <INEXT>
 8003562:	0800354e 	stmdaeq	r0, {r1, r2, r3, r6, r8, sl, ip, sp}

08003566 <_PLUS>:
 8003566:	 			; <UNDEFINED> instruction: 0xf8572b01

08003568 <PLUS>:
 8003568:	f857 5b04 	ldr.w	r5, [r7], #4
 800356c:	442e      	add	r6, r5
 800356e:	e5a1      	b.n	80030b4 <INEXT>
 8003570:	08003566 	stmdaeq	r0, {r1, r2, r5, r6, r8, sl, ip, sp}

08003574 <_SUBB>:
 8003574:	bf002d01 	svclt	0x00002d01

08003578 <SUBB>:
 8003578:	f857 5b04 	ldr.w	r5, [r7], #4
 800357c:	ebc6 0605 	rsb	r6, r6, r5
 8003580:	e598      	b.n	80030b4 <INEXT>
 8003582:	08003574 	stmdaeq	r0, {r2, r4, r5, r6, r8, sl, ip, sp}

08003586 <_STAR>:
 8003586:	 			; <UNDEFINED> instruction: 0xf8572a01

08003588 <STAR>:
 8003588:	f857 5b04 	ldr.w	r5, [r7], #4
 800358c:	fb05 f606 	mul.w	r6, r5, r6
 8003590:	e590      	b.n	80030b4 <INEXT>
 8003592:	08003586 	stmdaeq	r0, {r1, r2, r7, r8, sl, ip, sp}

08003596 <_UMSTA>:
 8003596:	2a4d5503 	bcs	93589aa <OPTKEY1+0x11c5f6f>
 800359a:	bf00      	nop

0800359c <UMSTA>:
 800359c:	683d      	ldr	r5, [r7, #0]
 800359e:	fba6 2305 	umull	r2, r3, r6, r5
 80035a2:	603a      	str	r2, [r7, #0]
 80035a4:	461e      	mov	r6, r3
 80035a6:	e585      	b.n	80030b4 <INEXT>
 80035a8:	08003596 	stmdaeq	r0, {r1, r2, r4, r7, r8, sl, ip, sp}

080035ac <_MSTAR>:
 80035ac:	002a4d02 	eoreq	r4, sl, r2, lsl #26

080035b0 <MSTAR>:
 80035b0:	683d      	ldr	r5, [r7, #0]
 80035b2:	fb86 2305 	smull	r2, r3, r6, r5
 80035b6:	603a      	str	r2, [r7, #0]
 80035b8:	461e      	mov	r6, r3
 80035ba:	e57b      	b.n	80030b4 <INEXT>
 80035bc:	080035ac 	stmdaeq	r0, {r2, r3, r5, r7, r8, sl, ip, sp}

080035c0 <_ONEP>:
 80035c0:	002b3102 	eoreq	r3, fp, r2, lsl #2

080035c4 <ONEP>:
 80035c4:	f106 0601 	add.w	r6, r6, #1
 80035c8:	e574      	b.n	80030b4 <INEXT>
 80035ca:	080035c0 	stmdaeq	r0, {r6, r7, r8, sl, ip, sp}

080035ce <_ONEM>:
 80035ce:	002d3102 	eoreq	r3, sp, r2, lsl #2
 80035d2:	bf00      	nop

080035d4 <ONEM>:
 80035d4:	f1a6 0601 	sub.w	r6, r6, #1
 80035d8:	e56c      	b.n	80030b4 <INEXT>
 80035da:	080035ce 	stmdaeq	r0, {r1, r2, r3, r6, r7, r8, sl, ip, sp}

080035de <_TWOP>:
 80035de:	002b3202 	eoreq	r3, fp, r2, lsl #4
 80035e2:	bf00      	nop

080035e4 <TWOP>:
 80035e4:	f106 0602 	add.w	r6, r6, #2
 80035e8:	e564      	b.n	80030b4 <INEXT>
 80035ea:	080035de 	stmdaeq	r0, {r1, r2, r3, r4, r6, r7, r8, sl, ip, sp}

080035ee <_TWOM>:
 80035ee:	002d3202 	eoreq	r3, sp, r2, lsl #4
 80035f2:	bf00      	nop

080035f4 <TWOM>:
 80035f4:	f1a6 0602 	sub.w	r6, r6, #2
 80035f8:	e55c      	b.n	80030b4 <INEXT>
 80035fa:	080035ee 	stmdaeq	r0, {r1, r2, r3, r5, r6, r7, r8, sl, ip, sp}

080035fe <_CELLP>:
 80035fe:	4c454305 	mcrrmi	3, 0, r4, r5, cr5
 8003602:	 			; <UNDEFINED> instruction: 0xf1062b4c

08003604 <CELLP>:
 8003604:	f106 0604 	add.w	r6, r6, #4
 8003608:	e554      	b.n	80030b4 <INEXT>
 800360a:	080035fe 	stmdaeq	r0, {r1, r2, r3, r4, r5, r6, r7, r8, sl, ip, sp}

0800360e <_CELLM>:
 800360e:	4c454305 	mcrrmi	3, 0, r4, r5, cr5
 8003612:	 			; <UNDEFINED> instruction: 0xf1a62d4c

08003614 <CELLM>:
 8003614:	f1a6 0604 	sub.w	r6, r6, #4
 8003618:	e54c      	b.n	80030b4 <INEXT>
 800361a:	0800360e 	stmdaeq	r0, {r1, r2, r3, r9, sl, ip, sp}

0800361e <_BLANK>:
 800361e:	004c4202 	subeq	r4, ip, r2, lsl #4
 8003622:	bf00      	nop

08003624 <BLANK>:
 8003624:	f847 6d04 	str.w	r6, [r7, #-4]!
 8003628:	f04f 0620 	mov.w	r6, #32
 800362c:	e542      	b.n	80030b4 <INEXT>
 800362e:	0800361e 	stmdaeq	r0, {r1, r2, r3, r4, r9, sl, ip, sp}

08003632 <_CELLS>:
 8003632:	4c454305 	mcrrmi	3, 0, r4, r5, cr5
 8003636:	 	b	93d836e <OPTKEY1+0x1245933>

08003638 <CELLS>:
 8003638:	ea4f 0686 	mov.w	r6, r6, lsl #2
 800363c:	e53a      	b.n	80030b4 <INEXT>
 800363e:	08003632 	stmdaeq	r0, {r1, r4, r5, r9, sl, ip, sp}

08003642 <_CELLSL>:
 8003642:	4c454305 	mcrrmi	3, 0, r4, r5, cr5
 8003646:	 	b	93cf37e <OPTKEY1+0x123c943>

08003648 <CELLSL>:
 8003648:	ea4f 06a6 	mov.w	r6, r6, asr #2
 800364c:	e532      	b.n	80030b4 <INEXT>
 800364e:	08003642 	stmdaeq	r0, {r1, r6, r9, sl, ip, sp}

08003652 <_TWOST>:
 8003652:	002a3202 	eoreq	r3, sl, r2, lsl #4
 8003656:	bf00      	nop

08003658 <TWOST>:
 8003658:	ea4f 0646 	mov.w	r6, r6, lsl #1
 800365c:	e52a      	b.n	80030b4 <INEXT>
 800365e:	08003652 	stmdaeq	r0, {r1, r4, r6, r9, sl, ip, sp}

08003662 <_TWOSL>:
 8003662:	002f3202 	eoreq	r3, pc, r2, lsl #4
 8003666:	bf00      	nop

08003668 <TWOSL>:
 8003668:	ea4f 0666 	mov.w	r6, r6, asr #1
 800366c:	e522      	b.n	80030b4 <INEXT>
 800366e:	08003662 	stmdaeq	r0, {r1, r5, r6, r9, sl, ip, sp}

08003672 <_QDUP>:
 8003672:	55443f04 	strbpl	r3, [r4, #-3844]	; 0xfffff0fc
 8003676:	 	eorseq	r0, r5, r0, asr r0

08003678 <QDUP>:
 8003678:	0035      	movs	r5, r6
 800367a:	bf18      	it	ne
 800367c:	f847 6d04 	strne.w	r6, [r7, #-4]!
 8003680:	e518      	b.n	80030b4 <INEXT>
 8003682:	08003672 	stmdaeq	r0, {r1, r4, r5, r6, r9, sl, ip, sp}

08003686 <_ROT>:
 8003686:	544f5203 	strbpl	r5, [pc], #-515	; 800368e <ROT+0x2>
 800368a:	bf00      	nop

0800368c <ROT>:
 800368c:	6838      	ldr	r0, [r7, #0]
 800368e:	603e      	str	r6, [r7, #0]
 8003690:	687e      	ldr	r6, [r7, #4]
 8003692:	6078      	str	r0, [r7, #4]
 8003694:	e50e      	b.n	80030b4 <INEXT>
 8003696:	08003686 	stmdaeq	r0, {r1, r2, r7, r9, sl, ip, sp}

0800369a <_NROT>:
 800369a:	4f522d04 	svcmi	0x00522d04
 800369e:	 	ldmdavs	r8!, {r2, r4, r6}^

080036a0 <NROT>:
 80036a0:	6878      	ldr	r0, [r7, #4]
 80036a2:	607e      	str	r6, [r7, #4]
 80036a4:	683e      	ldr	r6, [r7, #0]
 80036a6:	6038      	str	r0, [r7, #0]
 80036a8:	e504      	b.n	80030b4 <INEXT>
 80036aa:	0800369a 	stmdaeq	r0, {r1, r3, r4, r7, r9, sl, ip, sp}

080036ae <_DDROP>:
 80036ae:	52443205 	subpl	r3, r4, #1342177280	; 0x50000000
 80036b2:	 			; <UNDEFINED> instruction: 0xf857504f

080036b4 <DDROP>:
 80036b4:	f857 6b04 	ldr.w	r6, [r7], #4
 80036b8:	f857 6b04 	ldr.w	r6, [r7], #4
 80036bc:	e4fa      	b.n	80030b4 <INEXT>
 80036be:	080036ae 	stmdaeq	r0, {r1, r2, r3, r5, r7, r9, sl, ip, sp}

080036c2 <_TDROP>:
 80036c2:	52443305 	subpl	r3, r4, #335544320	; 0x14000000
 80036c6:	 			; <UNDEFINED> instruction: 0xf107504f

080036c8 <TDROP>:
 80036c8:	f107 0708 	add.w	r7, r7, #8
 80036cc:	f857 6b04 	ldr.w	r6, [r7], #4
 80036d0:	e4f0      	b.n	80030b4 <INEXT>
 80036d2:	080036c2 	stmdaeq	r0, {r1, r6, r7, r9, sl, ip, sp}

080036d6 <_DDUP>:
 80036d6:	55443204 	strbpl	r3, [r4, #-516]	; 0xfffffdfc
 80036da:	 	ldmdavs	r8!, {r4, r6}

080036dc <DDUP>:
 80036dc:	6838      	ldr	r0, [r7, #0]
 80036de:	f847 6d04 	str.w	r6, [r7, #-4]!
 80036e2:	f847 0d04 	str.w	r0, [r7, #-4]!
 80036e6:	e4e5      	b.n	80030b4 <INEXT>
 80036e8:	080036d6 	stmdaeq	r0, {r1, r2, r4, r6, r7, r9, sl, ip, sp}

080036ec <_DPLUS>:
 80036ec:	002b4402 	eoreq	r4, fp, r2, lsl #8

080036f0 <DPLUS>:
 80036f0:	f857 5b04 	ldr.w	r5, [r7], #4
 80036f4:	f857 2b04 	ldr.w	r2, [r7], #4
 80036f8:	683b      	ldr	r3, [r7, #0]
 80036fa:	18ed      	adds	r5, r5, r3
 80036fc:	603d      	str	r5, [r7, #0]
 80036fe:	eb46 0602 	adc.w	r6, r6, r2
 8003702:	e4d7      	b.n	80030b4 <INEXT>
 8003704:	080036ec 	stmdaeq	r0, {r2, r3, r5, r6, r7, r9, sl, ip, sp}

08003708 <_DABS>:
 8003708:	42414404 	submi	r4, r1, #4, 8	; 0x4000000
 800370c:	bf000053 	svclt	0x00000053

08003710 <DABS>:
 8003710:	f016 4f00 	tst.w	r6, #2147483648	; 0x80000000
 8003714:	d009      	beq.n	800372a <DABS+0x1a>
 8003716:	ea6f 0606 	mvn.w	r6, r6
 800371a:	683d      	ldr	r5, [r7, #0]
 800371c:	ea6f 0505 	mvn.w	r5, r5
 8003720:	3501      	adds	r5, #1
 8003722:	603d      	str	r5, [r7, #0]
 8003724:	d301      	bcc.n	800372a <DABS+0x1a>
 8003726:	f106 0601 	add.w	r6, r6, #1
 800372a:	e4c3      	b.n	80030b4 <INEXT>
 800372c:	08003708 	stmdaeq	r0, {r3, r8, r9, sl, ip, sp}

08003730 <_UDGREAT>:
 8003730:	3e445503 	cdpcc	5, 4, cr5, cr4, cr3, {0}

08003734 <UDGREAT>:
 8003734:	f857 5b04 	ldr.w	r5, [r7], #4
 8003738:	cf03      	ldmia	r7!, {r0, r1}
 800373a:	42b0      	cmp	r0, r6
 800373c:	d802      	bhi.n	8003744 <UDGREAT+0x10>
 800373e:	d404      	bmi.n	800374a <UDGREAT+0x16>
 8003740:	42a9      	cmp	r1, r5
 8003742:	d902      	bls.n	800374a <UDGREAT+0x16>
 8003744:	f04f 36ff 	mov.w	r6, #4294967295	; 0xffffffff
 8003748:	e4b4      	b.n	80030b4 <INEXT>
 800374a:	f04f 0600 	mov.w	r6, #0
 800374e:	e4b1      	b.n	80030b4 <INEXT>
 8003750:	08003730 	stmdaeq	r0, {r4, r5, r8, r9, sl, ip, sp}

08003754 <_DZEQUAL>:
 8003754:	3d304403 	cfldrscc	mvf4, [r0, #-12]!

08003758 <DZEQUAL>:
 8003758:	4630      	mov	r0, r6
 800375a:	f857 6b04 	ldr.w	r6, [r7], #4
 800375e:	ea46 0600 	orr.w	r6, r6, r0
 8003762:	d001      	beq.n	8003768 <DZEQUAL+0x10>
 8003764:	f06f 0600 	mvn.w	r6, #0
 8003768:	e4a4      	b.n	80030b4 <INEXT>
 800376a:	08003754 	stmdaeq	r0, {r2, r4, r6, r8, r9, sl, ip, sp}

0800376e <_INVER>:
 800376e:	564e4906 	strbpl	r4, [lr], -r6, lsl #18
 8003772:	00545245 	subseq	r5, r4, r5, asr #4
 8003776:	bf00      	nop

08003778 <INVER>:
 8003778:	ea6f 0606 	mvn.w	r6, r6
 800377c:	e49a      	b.n	80030b4 <INEXT>
 800377e:	0800376e 	stmdaeq	r0, {r1, r2, r3, r5, r6, r8, r9, sl, ip, sp}

08003782 <_NEGAT>:
 8003782:	47454e06 	strbmi	r4, [r5, -r6, lsl #28]
 8003786:	00455441 	subeq	r5, r5, r1, asr #8
 800378a:	bf00      	nop

0800378c <NEGAT>:
 800378c:	f1c6 0600 	rsb	r6, r6, #0
 8003790:	e490      	b.n	80030b4 <INEXT>
 8003792:	08003782 	stmdaeq	r0, {r1, r7, r8, r9, sl, ip, sp}

08003796 <_ABSS>:
 8003796:	53424103 	movtpl	r4, #8451	; 0x2103
 800379a:	bf00      	nop

0800379c <ABSS>:
 800379c:	f016 4f00 	tst.w	r6, #2147483648	; 0x80000000
 80037a0:	bf18      	it	ne
 80037a2:	4276      	negne	r6, r6
 80037a4:	e486      	b.n	80030b4 <INEXT>
 80037a6:	08003796 	stmdaeq	r0, {r1, r2, r4, r7, r8, r9, sl, ip, sp}

080037aa <_CLZ>:
 80037aa:	5a4c4303 	bpl	93143be <OPTKEY1+0x1181983>
 80037ae:	bf00      	nop

080037b0 <CLZ>:
 80037b0:	fab6 f686 	clz	r6, r6
 80037b4:	e47e      	b.n	80030b4 <INEXT>
 80037b6:	080037aa 	stmdaeq	r0, {r1, r3, r5, r7, r8, r9, sl, ip, sp}

080037ba <_CTZ>:
 80037ba:	5a544303 	bpl	95143ce <OPTKEY1+0x1381993>
 80037be:	bf00      	nop

080037c0 <CTZ>:
 80037c0:	ea80 0000 	eor.w	r0, r0, r0
 80037c4:	f016 0f01 	tst.w	r6, #1
 80037c8:	d104      	bne.n	80037d4 <CTZ+0x14>
 80037ca:	ea4f 0656 	mov.w	r6, r6, lsr #1
 80037ce:	f100 0001 	add.w	r0, r0, #1
 80037d2:	e7f7      	b.n	80037c4 <CTZ+0x4>
 80037d4:	4606      	mov	r6, r0
 80037d6:	e46d      	b.n	80030b4 <INEXT>
 80037d8:	080037ba 	stmdaeq	r0, {r1, r3, r4, r5, r7, r8, r9, sl, ip, sp}

080037dc <_ZEQUAL>:
 80037dc:	003d3002 	eorseq	r3, sp, r2

080037e0 <ZEQUAL>:
 80037e0:	b916      	cbnz	r6, 80037e8 <ZEQUAL+0x8>
 80037e2:	f04f 36ff 	mov.w	r6, #4294967295	; 0xffffffff
 80037e6:	e465      	b.n	80030b4 <INEXT>
 80037e8:	ea86 0606 	eor.w	r6, r6, r6
 80037ec:	e462      	b.n	80030b4 <INEXT>
 80037ee:	080037dc 	stmdaeq	r0, {r2, r3, r4, r6, r7, r8, r9, sl, ip, sp}

080037f2 <_EQUAL>:
 80037f2:	 			; <UNDEFINED> instruction: 0xf8573d01

080037f4 <EQUAL>:
 80037f4:	f857 5b04 	ldr.w	r5, [r7], #4
 80037f8:	42ae      	cmp	r6, r5
 80037fa:	bf0c      	ite	eq
 80037fc:	f06f 0600 	mvneq.w	r6, #0
 8003800:	2600      	movne	r6, #0
 8003802:	e457      	b.n	80030b4 <INEXT>
 8003804:	080037f2 	stmdaeq	r0, {r1, r4, r5, r6, r7, r8, r9, sl, ip, sp}

08003808 <_DIFF>:
 8003808:	003e3c02 	eorseq	r3, lr, r2, lsl #24

0800380c <DIFF>:
 800380c:	4630      	mov	r0, r6
 800380e:	f857 6b04 	ldr.w	r6, [r7], #4
 8003812:	ea86 0600 	eor.w	r6, r6, r0
 8003816:	fab6 f086 	clz	r0, r6
 800381a:	fa06 f600 	lsl.w	r6, r6, r0
 800381e:	ea4f 76e6 	mov.w	r6, r6, asr #31
 8003822:	e447      	b.n	80030b4 <INEXT>
 8003824:	08003808 	stmdaeq	r0, {r3, fp, ip, sp}

08003828 <_ULESS>:
 8003828:	003c5502 	eorseq	r5, ip, r2, lsl #10

0800382c <ULESS>:
 800382c:	f857 5b04 	ldr.w	r5, [r7], #4
 8003830:	42b5      	cmp	r5, r6
 8003832:	bf34      	ite	cc
 8003834:	f06f 0600 	mvncc.w	r6, #0
 8003838:	2600      	movcs	r6, #0
 800383a:	e43b      	b.n	80030b4 <INEXT>
 800383c:	08003828 	stmdaeq	r0, {r3, r5, fp, ip, sp}

08003840 <_LESS>:
 8003840:	bf003c01 	svclt	0x00003c01

08003844 <LESS>:
 8003844:	f857 5b04 	ldr.w	r5, [r7], #4
 8003848:	42b5      	cmp	r5, r6
 800384a:	bfb4      	ite	lt
 800384c:	f06f 0600 	mvnlt.w	r6, #0
 8003850:	2600      	movge	r6, #0
 8003852:	e42f      	b.n	80030b4 <INEXT>
 8003854:	08003840 	stmdaeq	r0, {r6, fp, ip, sp}

08003858 <_UGREAT>:
 8003858:	003e5502 	eorseq	r5, lr, r2, lsl #10

0800385c <UGREAT>:
 800385c:	f857 5b04 	ldr.w	r5, [r7], #4
 8003860:	42ae      	cmp	r6, r5
 8003862:	bf34      	ite	cc
 8003864:	f06f 0600 	mvncc.w	r6, #0
 8003868:	2600      	movcs	r6, #0
 800386a:	e423      	b.n	80030b4 <INEXT>
 800386c:	08003858 	stmdaeq	r0, {r3, r4, r6, fp, ip, sp}

08003870 <_GREAT>:
 8003870:	bf003e01 	svclt	0x00003e01

08003874 <GREAT>:
 8003874:	f857 5b04 	ldr.w	r5, [r7], #4
 8003878:	42b5      	cmp	r5, r6
 800387a:	bfcc      	ite	gt
 800387c:	f06f 0600 	mvngt.w	r6, #0
 8003880:	2600      	movle	r6, #0
 8003882:	e417      	b.n	80030b4 <INEXT>
 8003884:	08003870 	stmdaeq	r0, {r4, r5, r6, fp, ip, sp}

08003888 <_MAX>:
 8003888:	58414d03 	stmdapl	r1, {r0, r1, r8, sl, fp, lr}^

0800388c <MAX>:
 800388c:	f857 5b04 	ldr.w	r5, [r7], #4
 8003890:	42b5      	cmp	r5, r6
 8003892:	bfc8      	it	gt
 8003894:	462e      	movgt	r6, r5
 8003896:	e40d      	b.n	80030b4 <INEXT>
 8003898:	08003888 	stmdaeq	r0, {r3, r7, fp, ip, sp}

0800389c <_MIN>:
 800389c:	4e494d03 	cdpmi	13, 4, cr4, cr9, cr3, {0}

080038a0 <MIN>:
 80038a0:	f857 5b04 	ldr.w	r5, [r7], #4
 80038a4:	42b5      	cmp	r5, r6
 80038a6:	bfb8      	it	lt
 80038a8:	462e      	movlt	r6, r5
 80038aa:	e403      	b.n	80030b4 <INEXT>
 80038ac:	0800389c 	stmdaeq	r0, {r2, r3, r4, r7, fp, ip, sp}

080038b0 <_PSTOR>:
 80038b0:	00212b02 	eoreq	r2, r1, r2, lsl #22

080038b4 <PSTOR>:
 80038b4:	f857 5b04 	ldr.w	r5, [r7], #4
 80038b8:	6832      	ldr	r2, [r6, #0]
 80038ba:	442a      	add	r2, r5
 80038bc:	6032      	str	r2, [r6, #0]
 80038be:	f857 6b04 	ldr.w	r6, [r7], #4
 80038c2:	f7ff bbf7 	b.w	80030b4 <INEXT>
 80038c6:	080038b0 	stmdaeq	r0, {r4, r5, r7, fp, ip, sp}

080038ca <_DSTOR>:
 80038ca:	00213202 	eoreq	r3, r1, r2, lsl #4
 80038ce:	bf00      	nop

080038d0 <DSTOR>:
 80038d0:	f857 5b04 	ldr.w	r5, [r7], #4
 80038d4:	f857 2b04 	ldr.w	r2, [r7], #4
 80038d8:	f846 5b04 	str.w	r5, [r6], #4
 80038dc:	6032      	str	r2, [r6, #0]
 80038de:	f857 6b04 	ldr.w	r6, [r7], #4
 80038e2:	f7ff bbe7 	b.w	80030b4 <INEXT>
 80038e6:	080038ca 	stmdaeq	r0, {r1, r3, r6, r7, fp, ip, sp}

080038ea <_DAT>:
 80038ea:	00403202 	subeq	r3, r0, r2, lsl #4
 80038ee:	bf00      	nop

080038f0 <DAT>:
 80038f0:	6875      	ldr	r5, [r6, #4]
 80038f2:	f847 5d04 	str.w	r5, [r7, #-4]!
 80038f6:	6836      	ldr	r6, [r6, #0]
 80038f8:	f7ff bbdc 	b.w	80030b4 <INEXT>
 80038fc:	080038ea 	stmdaeq	r0, {r1, r3, r5, r6, r7, fp, ip, sp}

08003900 <_COUNT>:
 8003900:	554f4305 	strbpl	r4, [pc, #-773]	; 8003603 <_CELLP+0x5>
 8003904:	bf00544e 	svclt	0x0000544e

08003908 <COUNT>:
 8003908:	f816 5b01 	ldrb.w	r5, [r6], #1
 800390c:	f847 6d04 	str.w	r6, [r7, #-4]!
 8003910:	462e      	mov	r6, r5
 8003912:	f7ff bbcf 	b.w	80030b4 <INEXT>
 8003916:	08003900 	stmdaeq	r0, {r8, fp, ip, sp}

0800391a <_DNEGA>:
 800391a:	454e4407 	strbmi	r4, [lr, #-1031]	; 0xfffffbf9
 800391e:	45544147 	ldrbmi	r4, [r4, #-327]	; 0xfffffeb9
 8003922:	bf00      	nop

08003924 <DNEGA>:
 8003924:	683d      	ldr	r5, [r7, #0]
 8003926:	eba2 0202 	sub.w	r2, r2, r2
 800392a:	1b55      	subs	r5, r2, r5
 800392c:	eb62 0606 	sbc.w	r6, r2, r6
 8003930:	603d      	str	r5, [r7, #0]
 8003932:	f7ff bbbf 	b.w	80030b4 <INEXT>

08003936 <DOVAR>:
 8003936:	f847 6d04 	str.w	r6, [r7, #-4]!
 800393a:	4666      	mov	r6, ip
 800393c:	f10c 0c04 	add.w	ip, ip, #4
 8003940:	f7ff bbbb 	b.w	80030ba <UNNEST>

08003944 <DOCON>:
 8003944:	f847 6d04 	str.w	r6, [r7, #-4]!
 8003948:	f85c 6b04 	ldr.w	r6, [ip], #4
 800394c:	f7ff bbb5 	b.w	80030ba <UNNEST>
 8003950:	0800391a 	stmdaeq	r0, {r1, r3, r4, r8, fp, ip, sp}

08003954 <_STATE>:
 8003954:	41545305 	cmpmi	r4, r5, lsl #6
 8003958:	bf004554 	svclt	0x00004554

0800395c <STATE>:
 800395c:	f847 6d04 	str.w	r6, [r7, #-4]!
 8003960:	f104 06b4 	add.w	r6, r4, #180	; 0xb4
 8003964:	f7ff bba6 	b.w	80030b4 <INEXT>
 8003968:	08003954 	stmdaeq	r0, {r2, r4, r6, r8, fp, ip, sp}

0800396c <_SEED>:
 800396c:	45455304 	strbmi	r5, [r5, #-772]	; 0xfffffcfc
 8003970:	bf000044 	svclt	0x00000044

08003974 <SEED>:
 8003974:	f847 6d04 	str.w	r6, [r7, #-4]!
 8003978:	f104 0604 	add.w	r6, r4, #4
 800397c:	f7ff bb9a 	b.w	80030b4 <INEXT>
 8003980:	0800396c 	stmdaeq	r0, {r2, r3, r5, r6, r8, fp, ip, sp}

08003984 <_MSEC>:
 8003984:	45534d04 	ldrbmi	r4, [r3, #-3332]	; 0xfffff2fc
 8003988:	bf000043 	svclt	0x00000043

0800398c <MSEC>:
 800398c:	f847 6d04 	str.w	r6, [r7, #-4]!
 8003990:	f104 0608 	add.w	r6, r4, #8
 8003994:	f7ff bb8e 	b.w	80030b4 <INEXT>
 8003998:	08003984 	stmdaeq	r0, {r2, r7, r8, fp, ip, sp}

0800399c <_TIMER>:
 800399c:	4d495405 	cfstrdmi	mvd5, [r9, #-20]	; 0xffffffec
 80039a0:	bf005245 	svclt	0x00005245

080039a4 <TIMER>:
 80039a4:	f847 6d04 	str.w	r6, [r7, #-4]!
 80039a8:	f104 060c 	add.w	r6, r4, #12
 80039ac:	f7ff bb82 	b.w	80030b4 <INEXT>
 80039b0:	0800399c 	stmdaeq	r0, {r2, r3, r4, r7, r8, fp, ip, sp}

080039b4 <_TBOOT>:
 80039b4:	4f422705 	svcmi	0x00422705
 80039b8:	bf00544f 	svclt	0x0000544f

080039bc <TBOOT>:
 80039bc:	f847 6d04 	str.w	r6, [r7, #-4]!
 80039c0:	f104 0610 	add.w	r6, r4, #16
 80039c4:	f7ff bb76 	b.w	80030b4 <INEXT>
 80039c8:	080039b4 	stmdaeq	r0, {r2, r4, r5, r7, r8, fp, ip, sp}

080039cc <_BASE>:
 80039cc:	53414204 	movtpl	r4, #4612	; 0x1204
 80039d0:	bf000045 	svclt	0x00000045

080039d4 <BASE>:
 80039d4:	f847 6d04 	str.w	r6, [r7, #-4]!
 80039d8:	f104 061c 	add.w	r6, r4, #28
 80039dc:	f7ff bb6a 	b.w	80030b4 <INEXT>
 80039e0:	080039cc 	stmdaeq	r0, {r2, r3, r6, r7, r8, fp, ip, sp}

080039e4 <_BCHR>:
 80039e4:	48434205 	stmdami	r3, {r0, r2, r9, lr}^
 80039e8:	bf005241 	svclt	0x00005241

080039ec <BCHR>:
 80039ec:	f847 6d04 	str.w	r6, [r7, #-4]!
 80039f0:	f104 0620 	add.w	r6, r4, #32
 80039f4:	f7ff bb5e 	b.w	80030b4 <INEXT>

080039f8 <TEMP>:
 80039f8:	f847 6d04 	str.w	r6, [r7, #-4]!
 80039fc:	f104 0624 	add.w	r6, r4, #36	; 0x24
 8003a00:	f7ff bb58 	b.w	80030b4 <INEXT>
 8003a04:	080039e4 	stmdaeq	r0, {r2, r5, r6, r7, r8, fp, ip, sp}

08003a08 <_SPAN>:
 8003a08:	41505304 	cmpmi	r0, r4, lsl #6
 8003a0c:	bf00004e 	svclt	0x0000004e

08003a10 <SPAN>:
 8003a10:	f847 6d04 	str.w	r6, [r7, #-4]!
 8003a14:	f104 0628 	add.w	r6, r4, #40	; 0x28
 8003a18:	f7ff bb4c 	b.w	80030b4 <INEXT>
 8003a1c:	08003a08 	stmdaeq	r0, {r3, r9, fp, ip, sp}

08003a20 <_INN>:
 8003a20:	4e493e03 	cdpmi	14, 4, cr3, cr9, cr3, {0}

08003a24 <INN>:
 8003a24:	f847 6d04 	str.w	r6, [r7, #-4]!
 8003a28:	f104 062c 	add.w	r6, r4, #44	; 0x2c
 8003a2c:	f7ff bb42 	b.w	80030b4 <INEXT>
 8003a30:	08003a20 	stmdaeq	r0, {r5, r9, fp, ip, sp}

08003a34 <_NTIB>:
 8003a34:	49542304 	ldmdbmi	r4, {r2, r8, r9, sp}^
 8003a38:	bf000042 	svclt	0x00000042

08003a3c <NTIB>:
 8003a3c:	f847 6d04 	str.w	r6, [r7, #-4]!
 8003a40:	f104 0630 	add.w	r6, r4, #48	; 0x30
 8003a44:	f7ff bb36 	b.w	80030b4 <INEXT>
 8003a48:	08003a34 	stmdaeq	r0, {r2, r4, r5, r9, fp, ip, sp}

08003a4c <_TEVAL>:
 8003a4c:	56452705 	strbpl	r2, [r5], -r5, lsl #14
 8003a50:	bf004c41 	svclt	0x00004c41

08003a54 <TEVAL>:
 8003a54:	f847 6d04 	str.w	r6, [r7, #-4]!
 8003a58:	f104 063c 	add.w	r6, r4, #60	; 0x3c
 8003a5c:	f7ff bb2a 	b.w	80030b4 <INEXT>
 8003a60:	08003a4c 	stmdaeq	r0, {r2, r3, r6, r9, fp, ip, sp}

08003a64 <_HLD>:
 8003a64:	444c4803 	strbmi	r4, [ip], #-2051	; 0xfffff7fd

08003a68 <HLD>:
 8003a68:	f847 6d04 	str.w	r6, [r7, #-4]!
 8003a6c:	f104 0640 	add.w	r6, r4, #64	; 0x40
 8003a70:	f7ff bb20 	b.w	80030b4 <INEXT>
 8003a74:	08003a64 	stmdaeq	r0, {r2, r5, r6, r9, fp, ip, sp}

08003a78 <_CNTXT>:
 8003a78:	4e4f4307 	cdpmi	3, 4, cr4, cr15, cr7, {0}
 8003a7c:	54584554 	ldrbpl	r4, [r8], #-1364	; 0xfffffaac

08003a80 <CNTXT>:
 8003a80:	f847 6d04 	str.w	r6, [r7, #-4]!
 8003a84:	f104 0644 	add.w	r6, r4, #68	; 0x44
 8003a88:	f7ff bb14 	b.w	80030b4 <INEXT>
 8003a8c:	08003a78 	stmdaeq	r0, {r3, r4, r5, r6, r9, fp, ip, sp}

08003a90 <_CPP>:
 8003a90:	00504302 	subseq	r4, r0, r2, lsl #6

08003a94 <CPP>:
 8003a94:	f847 6d04 	str.w	r6, [r7, #-4]!
 8003a98:	f104 064c 	add.w	r6, r4, #76	; 0x4c
 8003a9c:	f7ff bb0a 	b.w	80030b4 <INEXT>
 8003aa0:	08003a90 	stmdaeq	r0, {r4, r7, r9, fp, ip, sp}

08003aa4 <_FCP>:
 8003aa4:	50434603 	subpl	r4, r3, r3, lsl #12

08003aa8 <FCP>:
 8003aa8:	f847 6d04 	str.w	r6, [r7, #-4]!
 8003aac:	f104 0648 	add.w	r6, r4, #72	; 0x48
 8003ab0:	f7ff bb00 	b.w	80030b4 <INEXT>
 8003ab4:	08003aa4 	stmdaeq	r0, {r2, r5, r7, r9, fp, ip, sp}

08003ab8 <_LAST>:
 8003ab8:	53414c04 	movtpl	r4, #7172	; 0x1c04
 8003abc:	bf000054 	svclt	0x00000054

08003ac0 <LAST>:
 8003ac0:	f847 6d04 	str.w	r6, [r7, #-4]!
 8003ac4:	f104 0650 	add.w	r6, r4, #80	; 0x50
 8003ac8:	f7ff baf4 	b.w	80030b4 <INEXT>
 8003acc:	08003ab8 	stmdaeq	r0, {r3, r4, r5, r7, r9, fp, ip, sp}

08003ad0 <_USER_BEGIN>:
 8003ad0:	4553550a 	ldrbmi	r5, [r3, #-1290]	; 0xfffffaf6
 8003ad4:	45422d52 	strbmi	r2, [r2, #-3410]	; 0xfffff2ae
 8003ad8:	004e4947 	subeq	r4, lr, r7, asr #18

08003adc <USER_BEGIN>:
 8003adc:	f847 6d04 	str.w	r6, [r7, #-4]!
 8003ae0:	f8df 6004 	ldr.w	r6, [pc, #4]	; 8003ae8 <USR_BGN_ADR>
 8003ae4:	f7ff bae6 	b.w	80030b4 <INEXT>

08003ae8 <USR_BGN_ADR>:
 8003ae8:	20000512 	andcs	r0, r0, r2, lsl r5
 8003aec:	08003ad0 	stmdaeq	r0, {r4, r6, r7, r9, fp, ip, sp}

08003af0 <_USER_END>:
 8003af0:	45535508 	ldrbmi	r5, [r3, #-1288]	; 0xfffffaf8
 8003af4:	4e452d52 	mcrmi	13, 2, r2, cr5, cr2, {2}
 8003af8:	bf000044 	svclt	0x00000044

08003afc <USER_END>:
 8003afc:	f847 6d04 	str.w	r6, [r7, #-4]!
 8003b00:	f8df 6004 	ldr.w	r6, [pc, #4]	; 8003b08 <USER_END_ADR>
 8003b04:	f7ff bad6 	b.w	80030b4 <INEXT>

08003b08 <USER_END_ADR>:
 8003b08:	2001812c 	andcs	r8, r1, ip, lsr #2
 8003b0c:	08003af0 	stmdaeq	r0, {r4, r5, r6, r7, r9, fp, ip, sp}

08003b10 <_MAXINT>:
 8003b10:	58414d07 	stmdapl	r1, {r0, r1, r2, r8, sl, fp, lr}^
 8003b14:	544e492d 	strbpl	r4, [lr], #-2349	; 0xfffff6d3

08003b18 <MAXINT>:
 8003b18:	f847 6d04 	str.w	r6, [r7, #-4]!
 8003b1c:	f64f 76ff 	movw	r6, #65535	; 0xffff
 8003b20:	f6c7 76ff 	movt	r6, #32767	; 0x7fff
 8003b24:	f7ff bac6 	b.w	80030b4 <INEXT>
 8003b28:	08003b10 	stmdaeq	r0, {r4, r8, r9, fp, ip, sp}

08003b2c <_MININT>:
 8003b2c:	4e494d07 	cdpmi	13, 4, cr4, cr9, cr7, {0}
 8003b30:	544e492d 	strbpl	r4, [lr], #-2349	; 0xfffff6d3

08003b34 <MININT>:
 8003b34:	f847 6d04 	str.w	r6, [r7, #-4]!
 8003b38:	f04f 0600 	mov.w	r6, #0
 8003b3c:	f2c8 0600 	movt	r6, #32768	; 0x8000
 8003b40:	f7ff bab8 	b.w	80030b4 <INEXT>
 8003b44:	08003b2c 	stmdaeq	r0, {r2, r3, r5, r8, r9, fp, ip, sp}

08003b48 <_MAXUINT>:
 8003b48:	58414d08 	stmdapl	r1, {r3, r8, sl, fp, lr}^
 8003b4c:	4e49552d 	cdpmi	5, 4, cr5, cr9, cr13, {1}
 8003b50:	bf000054 	svclt	0x00000054

08003b54 <MAXUINT>:
 8003b54:	f847 6d04 	str.w	r6, [r7, #-4]!
 8003b58:	f64f 76ff 	movw	r6, #65535	; 0xffff
 8003b5c:	f6cf 76ff 	movt	r6, #65535	; 0xffff
 8003b60:	f7ff baa8 	b.w	80030b4 <INEXT>
 8003b64:	08003b48 	stmdaeq	r0, {r3, r6, r8, r9, fp, ip, sp}

08003b68 <_WITHI>:
 8003b68:	54495706 	strbpl	r5, [r9], #-1798	; 0xfffff8fa
 8003b6c:	004e4948 	subeq	r4, lr, r8, asr #18

08003b70 <WITHI>:
 8003b70:	4750      	bx	sl
 8003b72:	bf00      	nop
 8003b74:	080034a9 	stmdaeq	r0, {r0, r3, r5, r7, sl, ip, sp}
 8003b78:	08003579 	stmdaeq	r0, {r0, r3, r4, r5, r6, r8, sl, ip, sp}
 8003b7c:	080033e5 	stmdaeq	r0, {r0, r2, r5, r6, r7, r8, r9, ip, sp}
 8003b80:	08003579 	stmdaeq	r0, {r0, r3, r4, r5, r6, r8, sl, ip, sp}
 8003b84:	080033a1 	stmdaeq	r0, {r0, r5, r7, r8, r9, ip, sp}
 8003b88:	0800382d 	stmdaeq	r0, {r0, r2, r3, r5, fp, ip, sp}
 8003b8c:	080030bb 	stmdaeq	r0, {r0, r1, r3, r4, r5, r7, ip, sp}
 8003b90:	08003b68 	stmdaeq	r0, {r3, r5, r6, r8, r9, fp, ip, sp}

08003b94 <_UMMOD>:
 8003b94:	2f4d5506 	svccs	0x004d5506
 8003b98:	00444f4d 	subeq	r4, r4, sp, asr #30

08003b9c <UMMOD>:
 8003b9c:	f04f 0301 	mov.w	r3, #1
 8003ba0:	f857 5b04 	ldr.w	r5, [r7], #4
 8003ba4:	683a      	ldr	r2, [r7, #0]

08003ba6 <UMMOD0>:
 8003ba6:	1892      	adds	r2, r2, r2
 8003ba8:	416d      	adcs	r5, r5
 8003baa:	d304      	bcc.n	8003bb6 <UMMOD1>
 8003bac:	eba5 0506 	sub.w	r5, r5, r6
 8003bb0:	f102 0201 	add.w	r2, r2, #1
 8003bb4:	e004      	b.n	8003bc0 <UMMOD2>

08003bb6 <UMMOD1>:
 8003bb6:	1bad      	subs	r5, r5, r6
 8003bb8:	bf28      	it	cs
 8003bba:	3201      	addcs	r2, #1
 8003bbc:	d200      	bcs.n	8003bc0 <UMMOD2>
 8003bbe:	4435      	add	r5, r6

08003bc0 <UMMOD2>:
 8003bc0:	18db      	adds	r3, r3, r3
 8003bc2:	d3f0      	bcc.n	8003ba6 <UMMOD0>
 8003bc4:	4616      	mov	r6, r2
 8003bc6:	603d      	str	r5, [r7, #0]
 8003bc8:	f7ff ba74 	b.w	80030b4 <INEXT>
 8003bcc:	08003b94 	stmdaeq	r0, {r2, r4, r7, r8, r9, fp, ip, sp}

08003bd0 <_MSMOD>:
 8003bd0:	2f4d4606 	svccs	0x004d4606
 8003bd4:	00444f4d 	subeq	r4, r4, sp, asr #30

08003bd8 <MSMOD>:
 8003bd8:	4750      	bx	sl
 8003bda:	bf00      	nop
 8003bdc:	08003469 	stmdaeq	r0, {r0, r3, r5, r6, sl, ip, sp}
 8003be0:	080034d9 	stmdaeq	r0, {r0, r3, r4, r6, r7, sl, ip, sp}
 8003be4:	08003469 	stmdaeq	r0, {r0, r3, r5, r6, sl, ip, sp}
 8003be8:	080033e5 	stmdaeq	r0, {r0, r2, r5, r6, r7, r8, r9, ip, sp}
 8003bec:	0800331f 	stmdaeq	r0, {r0, r1, r2, r3, r4, r8, r9, ip, sp}
 8003bf0:	08003c04 	stmdaeq	r0, {r2, sl, fp, ip, sp}
 8003bf4:	0800378d 	stmdaeq	r0, {r0, r2, r3, r7, r8, r9, sl, ip, sp}
 8003bf8:	080033e5 	stmdaeq	r0, {r0, r2, r5, r6, r7, r8, r9, ip, sp}
 8003bfc:	08003925 	stmdaeq	r0, {r0, r2, r5, r8, fp, ip, sp}
 8003c00:	080033a1 	stmdaeq	r0, {r0, r5, r7, r8, r9, ip, sp}

08003c04 <MMOD1>:
 8003c04:	080033e5 	stmdaeq	r0, {r0, r2, r5, r6, r7, r8, r9, ip, sp}
 8003c08:	08003469 	stmdaeq	r0, {r0, r3, r5, r6, sl, ip, sp}
 8003c0c:	080034d9 	stmdaeq	r0, {r0, r3, r4, r6, r7, sl, ip, sp}
 8003c10:	0800331f 	stmdaeq	r0, {r0, r1, r2, r3, r4, r8, r9, ip, sp}
 8003c14:	08003c20 	stmdaeq	r0, {r5, sl, fp, ip, sp}
 8003c18:	080033d1 	stmdaeq	r0, {r0, r4, r6, r7, r8, r9, ip, sp}
 8003c1c:	08003569 	stmdaeq	r0, {r0, r3, r5, r6, r8, sl, ip, sp}

08003c20 <MMOD2>:
 8003c20:	080033a1 	stmdaeq	r0, {r0, r5, r7, r8, r9, ip, sp}
 8003c24:	08003b9d 	stmdaeq	r0, {r0, r2, r3, r4, r7, r8, r9, fp, ip, sp}
 8003c28:	080033a1 	stmdaeq	r0, {r0, r5, r7, r8, r9, ip, sp}
 8003c2c:	0800331f 	stmdaeq	r0, {r0, r1, r2, r3, r4, r8, r9, ip, sp}
 8003c30:	08003c40 	stmdaeq	r0, {r6, sl, fp, ip, sp}
 8003c34:	08003479 	stmdaeq	r0, {r0, r3, r4, r5, r6, sl, ip, sp}
 8003c38:	0800378d 	stmdaeq	r0, {r0, r2, r3, r7, r8, r9, sl, ip, sp}
 8003c3c:	08003479 	stmdaeq	r0, {r0, r3, r4, r5, r6, sl, ip, sp}

08003c40 <MMOD3>:
 8003c40:	080030bb 	stmdaeq	r0, {r0, r1, r3, r4, r5, r7, ip, sp}
 8003c44:	08003bd0 	stmdaeq	r0, {r4, r6, r7, r8, r9, fp, ip, sp}

08003c48 <_SMSLSHREM>:
 8003c48:	2f4d5306 	svccs	0x004d5306
 8003c4c:	004d4552 	subeq	r4, sp, r2, asr r5

08003c50 <SMSLSHREM>:
 8003c50:	4750      	bx	sl
 8003c52:	bf00      	nop
 8003c54:	08003469 	stmdaeq	r0, {r0, r3, r5, r6, sl, ip, sp}
 8003c58:	080034d9 	stmdaeq	r0, {r0, r3, r4, r6, r7, sl, ip, sp}
 8003c5c:	08003469 	stmdaeq	r0, {r0, r3, r5, r6, sl, ip, sp}
 8003c60:	080033e5 	stmdaeq	r0, {r0, r2, r5, r6, r7, r8, r9, ip, sp}
 8003c64:	0800331f 	stmdaeq	r0, {r0, r1, r2, r3, r4, r8, r9, ip, sp}
 8003c68:	08003c70 	stmdaeq	r0, {r4, r5, r6, sl, fp, ip, sp}
 8003c6c:	0800378d 	stmdaeq	r0, {r0, r2, r3, r7, r8, r9, sl, ip, sp}
 8003c70:	080034a9 	stmdaeq	r0, {r0, r3, r5, r7, sl, ip, sp}
 8003c74:	080034d9 	stmdaeq	r0, {r0, r3, r4, r6, r7, sl, ip, sp}
 8003c78:	08003469 	stmdaeq	r0, {r0, r3, r5, r6, sl, ip, sp}
 8003c7c:	080033e5 	stmdaeq	r0, {r0, r2, r5, r6, r7, r8, r9, ip, sp}
 8003c80:	0800331f 	stmdaeq	r0, {r0, r1, r2, r3, r4, r8, r9, ip, sp}
 8003c84:	08003c94 	stmdaeq	r0, {r2, r4, r7, sl, fp, ip, sp}
 8003c88:	080033e5 	stmdaeq	r0, {r0, r2, r5, r6, r7, r8, r9, ip, sp}
 8003c8c:	08003925 	stmdaeq	r0, {r0, r2, r5, r8, fp, ip, sp}
 8003c90:	080033a1 	stmdaeq	r0, {r0, r5, r7, r8, r9, ip, sp}
 8003c94:	08003b9d 	stmdaeq	r0, {r0, r2, r3, r4, r7, r8, r9, fp, ip, sp}
 8003c98:	080033a1 	stmdaeq	r0, {r0, r5, r7, r8, r9, ip, sp}
 8003c9c:	080033d1 	stmdaeq	r0, {r0, r4, r6, r7, r8, r9, ip, sp}
 8003ca0:	08003511 	stmdaeq	r0, {r0, r4, r8, sl, ip, sp}
 8003ca4:	0800331f 	stmdaeq	r0, {r0, r1, r2, r3, r4, r8, r9, ip, sp}
 8003ca8:	08003cb0 	stmdaeq	r0, {r4, r5, r7, sl, fp, ip, sp}
 8003cac:	0800378d 	stmdaeq	r0, {r0, r2, r3, r7, r8, r9, sl, ip, sp}
 8003cb0:	08003469 	stmdaeq	r0, {r0, r3, r5, r6, sl, ip, sp}
 8003cb4:	080034d9 	stmdaeq	r0, {r0, r3, r4, r6, r7, sl, ip, sp}
 8003cb8:	080033a1 	stmdaeq	r0, {r0, r5, r7, r8, r9, ip, sp}
 8003cbc:	08003511 	stmdaeq	r0, {r0, r4, r8, sl, ip, sp}
 8003cc0:	0800331f 	stmdaeq	r0, {r0, r1, r2, r3, r4, r8, r9, ip, sp}
 8003cc4:	08003cd4 	stmdaeq	r0, {r2, r4, r6, r7, sl, fp, ip, sp}
 8003cc8:	08003479 	stmdaeq	r0, {r0, r3, r4, r5, r6, sl, ip, sp}
 8003ccc:	0800378d 	stmdaeq	r0, {r0, r2, r3, r7, r8, r9, sl, ip, sp}
 8003cd0:	08003479 	stmdaeq	r0, {r0, r3, r4, r5, r6, sl, ip, sp}
 8003cd4:	080030bb 	stmdaeq	r0, {r0, r1, r3, r4, r5, r7, ip, sp}
 8003cd8:	08003c48 	stmdaeq	r0, {r3, r6, sl, fp, ip, sp}

08003cdc <_STOD>:
 8003cdc:	443e5303 	ldrtmi	r5, [lr], #-771	; 0xfffffcfd

08003ce0 <STOD>:
 8003ce0:	f847 6d04 	str.w	r6, [r7, #-4]!
 8003ce4:	ea4f 76e6 	mov.w	r6, r6, asr #31
 8003ce8:	f7ff b9e4 	b.w	80030b4 <INEXT>
 8003cec:	08003cdc 	stmdaeq	r0, {r2, r3, r4, r6, r7, sl, fp, ip, sp}

08003cf0 <_D2STAR>:
 8003cf0:	2a324403 	bcs	8c94d04 <OPTKEY1+0xb022c9>

08003cf4 <D2STAR>:
 8003cf4:	6838      	ldr	r0, [r7, #0]
 8003cf6:	0040      	lsls	r0, r0, #1
 8003cf8:	6038      	str	r0, [r7, #0]
 8003cfa:	ea4f 0646 	mov.w	r6, r6, lsl #1
 8003cfe:	f146 0600 	adc.w	r6, r6, #0
 8003d02:	f7ff b9d7 	b.w	80030b4 <INEXT>
 8003d06:	08003cf0 	stmdaeq	r0, {r4, r5, r6, r7, sl, fp, ip, sp}

08003d0a <_D2SL>:
 8003d0a:	2f324403 	svccs	0x00324403
 8003d0e:	bf00      	nop

08003d10 <D2SL>:
 8003d10:	6838      	ldr	r0, [r7, #0]
 8003d12:	1076      	asrs	r6, r6, #1
 8003d14:	ea4f 0030 	mov.w	r0, r0, rrx
 8003d18:	6038      	str	r0, [r7, #0]
 8003d1a:	f7ff b9cb 	b.w	80030b4 <INEXT>
 8003d1e:	08003d0a 	stmdaeq	r0, {r1, r3, r8, sl, fp, ip, sp}

08003d22 <_DSLMOD>:
 8003d22:	4d2f4405 	cfstrsmi	mvf4, [pc, #-20]!	; 8003d14 <D2SL+0x4>
 8003d26:	 	ldmdavs	sp!, {r0, r1, r2, r3, r6, sl, lr}

08003d28 <DSLMOD>:
 8003d28:	683d      	ldr	r5, [r7, #0]
 8003d2a:	6878      	ldr	r0, [r7, #4]
 8003d2c:	f04f 0220 	mov.w	r2, #32
 8003d30:	ea81 0101 	eor.w	r1, r1, r1
 8003d34:	b925      	cbnz	r5, 8003d40 <DSLMOD+0x18>
 8003d36:	ea82 0202 	eor.w	r2, r2, r2
 8003d3a:	4605      	mov	r5, r0
 8003d3c:	ea80 0000 	eor.w	r0, r0, r0
 8003d40:	b14a      	cbz	r2, 8003d56 <DSLMOD+0x2e>
 8003d42:	f015 4f00 	tst.w	r5, #2147483648	; 0x80000000
 8003d46:	d106      	bne.n	8003d56 <DSLMOD+0x2e>
 8003d48:	1849      	adds	r1, r1, r1
 8003d4a:	4140      	adcs	r0, r0
 8003d4c:	eb45 0505 	adc.w	r5, r5, r5
 8003d50:	f1a2 0201 	sub.w	r2, r2, #1
 8003d54:	e7f4      	b.n	8003d40 <DSLMOD+0x18>
 8003d56:	fbb5 f3f6 	udiv	r3, r5, r6
 8003d5a:	ea41 0103 	orr.w	r1, r1, r3
 8003d5e:	fb06 f303 	mul.w	r3, r6, r3
 8003d62:	eba5 0503 	sub.w	r5, r5, r3
 8003d66:	b102      	cbz	r2, 8003d6a <DSLMOD+0x42>
 8003d68:	e7ea      	b.n	8003d40 <DSLMOD+0x18>
 8003d6a:	607d      	str	r5, [r7, #4]
 8003d6c:	6039      	str	r1, [r7, #0]
 8003d6e:	4606      	mov	r6, r0
 8003d70:	f7ff b9a0 	b.w	80030b4 <INEXT>
 8003d74:	08003d22 	stmdaeq	r0, {r1, r5, r8, sl, fp, ip, sp}

08003d78 <_DSLASH>:
 8003d78:	002f4402 	eoreq	r4, pc, r2, lsl #8

08003d7c <DSLASH>:
 8003d7c:	4750      	bx	sl
 8003d7e:	bf00      	nop
 8003d80:	08003469 	stmdaeq	r0, {r0, r3, r5, r6, sl, ip, sp}
 8003d84:	080032df 	stmdaeq	r0, {r0, r1, r2, r3, r4, r6, r7, r9, ip, sp}
 8003d88:	00000001 	andeq	r0, r0, r1
 8003d8c:	08003541 	stmdaeq	r0, {r0, r6, r8, sl, ip, sp}
 8003d90:	080033e5 	stmdaeq	r0, {r0, r2, r5, r6, r7, r8, r9, ip, sp}
 8003d94:	08003d29 	stmdaeq	r0, {r0, r3, r5, r8, sl, fp, ip, sp}
 8003d98:	0800368d 	stmdaeq	r0, {r0, r2, r3, r7, r9, sl, ip, sp}
 8003d9c:	080033a1 	stmdaeq	r0, {r0, r5, r7, r8, r9, ip, sp}
 8003da0:	08003875 	stmdaeq	r0, {r0, r2, r4, r5, r6, fp, ip, sp}
 8003da4:	0800331f 	stmdaeq	r0, {r0, r1, r2, r3, r4, r8, r9, ip, sp}
 8003da8:	08003dbc 	stmdaeq	r0, {r2, r3, r4, r5, r7, r8, sl, fp, ip, sp}
 8003dac:	080032df 	stmdaeq	r0, {r0, r1, r2, r3, r4, r6, r7, r9, ip, sp}
 8003db0:	00000001 	andeq	r0, r0, r1
 8003db4:	08003ce1 	stmdaeq	r0, {r0, r5, r6, r7, sl, fp, ip, sp}
 8003db8:	080036f1 	stmdaeq	r0, {r0, r4, r5, r6, r7, r9, sl, ip, sp}
 8003dbc:	080030bb 	stmdaeq	r0, {r0, r1, r3, r4, r5, r7, ip, sp}
 8003dc0:	08003d78 	stmdaeq	r0, {r3, r4, r5, r6, r8, sl, fp, ip, sp}

08003dc4 <_DSTAR>:
 8003dc4:	002a4402 	eoreq	r4, sl, r2, lsl #8

08003dc8 <DSTAR>:
 8003dc8:	f857 0b04 	ldr.w	r0, [r7], #4
 8003dcc:	6839      	ldr	r1, [r7, #0]
 8003dce:	6038      	str	r0, [r7, #0]
 8003dd0:	ea83 0303 	eor.w	r3, r3, r3
 8003dd4:	f010 4f00 	tst.w	r0, #2147483648	; 0x80000000
 8003dd8:	d002      	beq.n	8003de0 <DSTAR+0x18>
 8003dda:	1a59      	subs	r1, r3, r1
 8003ddc:	eb63 0000 	sbc.w	r0, r3, r0
 8003de0:	fb81 2106 	smull	r2, r1, r1, r6
 8003de4:	fb00 f606 	mul.w	r6, r0, r6
 8003de8:	440e      	add	r6, r1
 8003dea:	6838      	ldr	r0, [r7, #0]
 8003dec:	f010 4f00 	tst.w	r0, #2147483648	; 0x80000000
 8003df0:	d002      	beq.n	8003df8 <DSTAR+0x30>
 8003df2:	1a9a      	subs	r2, r3, r2
 8003df4:	eb63 0606 	sbc.w	r6, r3, r6
 8003df8:	603a      	str	r2, [r7, #0]
 8003dfa:	f7ff b95b 	b.w	80030b4 <INEXT>
 8003dfe:	08003dc4 	stmdaeq	r0, {r2, r6, r7, r8, sl, fp, ip, sp}

08003e02 <_SLMOD>:
 8003e02:	4f4d2f04 	svcmi	0x004d2f04
 8003e06:	 	ldrbmi	r0, [r0, -r4, asr #32]

08003e08 <SLMOD>:
 8003e08:	4750      	bx	sl
 8003e0a:	bf00      	nop
 8003e0c:	080034a9 	stmdaeq	r0, {r0, r3, r5, r7, sl, ip, sp}
 8003e10:	080034d9 	stmdaeq	r0, {r0, r3, r4, r6, r7, sl, ip, sp}
 8003e14:	08003479 	stmdaeq	r0, {r0, r3, r4, r5, r6, sl, ip, sp}
 8003e18:	08003bd9 	stmdaeq	r0, {r0, r3, r4, r6, r7, r8, r9, fp, ip, sp}
 8003e1c:	080030bb 	stmdaeq	r0, {r0, r1, r3, r4, r5, r7, ip, sp}
 8003e20:	08003e02 	stmdaeq	r0, {r1, r9, sl, fp, ip, sp}

08003e24 <_MODD>:
 8003e24:	444f4d03 	strbmi	r4, [pc], #-3331	; 8003e2c <MODD+0x4>

08003e28 <MODD>:
 8003e28:	4750      	bx	sl
 8003e2a:	bf00      	nop
 8003e2c:	08003e09 	stmdaeq	r0, {r0, r3, r9, sl, fp, ip, sp}
 8003e30:	08003459 	stmdaeq	r0, {r0, r3, r4, r6, sl, ip, sp}
 8003e34:	080030bb 	stmdaeq	r0, {r0, r1, r3, r4, r5, r7, ip, sp}
 8003e38:	08003e24 	stmdaeq	r0, {r2, r5, r9, sl, fp, ip, sp}

08003e3c <_SLASH>:
 8003e3c:	bf002f01 	svclt	0x00002f01

08003e40 <SLASH>:
 8003e40:	4750      	bx	sl
 8003e42:	bf00      	nop
 8003e44:	08003e09 	stmdaeq	r0, {r0, r3, r9, sl, fp, ip, sp}
 8003e48:	08003479 	stmdaeq	r0, {r0, r3, r4, r5, r6, sl, ip, sp}
 8003e4c:	08003459 	stmdaeq	r0, {r0, r3, r4, r6, sl, ip, sp}
 8003e50:	080030bb 	stmdaeq	r0, {r0, r1, r3, r4, r5, r7, ip, sp}
 8003e54:	08003e3c 	stmdaeq	r0, {r2, r3, r4, r5, r9, sl, fp, ip, sp}

08003e58 <_SSMOD>:
 8003e58:	4d2f2a05 	vstmdbmi	pc!, {s4-s8}
 8003e5c:	bf00444f 	svclt	0x0000444f

08003e60 <SSMOD>:
 8003e60:	4750      	bx	sl
 8003e62:	bf00      	nop
 8003e64:	080033e5 	stmdaeq	r0, {r0, r2, r5, r6, r7, r8, r9, ip, sp}
 8003e68:	080035b1 	stmdaeq	r0, {r0, r4, r5, r7, r8, sl, ip, sp}
 8003e6c:	080033a1 	stmdaeq	r0, {r0, r5, r7, r8, r9, ip, sp}
 8003e70:	08003bd9 	stmdaeq	r0, {r0, r3, r4, r6, r7, r8, r9, fp, ip, sp}
 8003e74:	080030bb 	stmdaeq	r0, {r0, r1, r3, r4, r5, r7, ip, sp}
 8003e78:	08003e58 	stmdaeq	r0, {r3, r4, r6, r9, sl, fp, ip, sp}

08003e7c <_STASL>:
 8003e7c:	002f2a02 	eoreq	r2, pc, r2, lsl #20

08003e80 <STASL>:
 8003e80:	4750      	bx	sl
 8003e82:	bf00      	nop
 8003e84:	08003e61 	stmdaeq	r0, {r0, r5, r6, r9, sl, fp, ip, sp}
 8003e88:	08003479 	stmdaeq	r0, {r0, r3, r4, r5, r6, sl, ip, sp}
 8003e8c:	08003459 	stmdaeq	r0, {r0, r3, r4, r6, sl, ip, sp}
 8003e90:	080030bb 	stmdaeq	r0, {r0, r1, r3, r4, r5, r7, ip, sp}
 8003e94:	08003e7c 	stmdaeq	r0, {r2, r3, r4, r5, r6, r9, sl, fp, ip, sp}

08003e98 <_CHARP>:
 8003e98:	41484305 	cmpmi	r8, r5, lsl #6
 8003e9c:	bf002b52 	svclt	0x00002b52

08003ea0 <CHARP>:
 8003ea0:	f106 0601 	add.w	r6, r6, #1
 8003ea4:	f7ff b906 	b.w	80030b4 <INEXT>
 8003ea8:	08003e98 	stmdaeq	r0, {r3, r4, r7, r9, sl, fp, ip, sp}

08003eac <_CHARS>:
 8003eac:	41484305 	cmpmi	r8, r5, lsl #6
 8003eb0:	bf005352 	svclt	0x00005352

08003eb4 <CHARS>:
 8003eb4:	f7ff b8fe 	b.w	80030b4 <INEXT>
 8003eb8:	08003eac 	stmdaeq	r0, {r2, r3, r5, r7, r9, sl, fp, ip, sp}

08003ebc <_ALIGN>:
 8003ebc:	494c4105 	stmdbmi	ip, {r0, r2, r8, lr}^
 8003ec0:	bf004e47 	svclt	0x00004e47

08003ec4 <ALIGN>:
 8003ec4:	6ce0      	ldr	r0, [r4, #76]	; 0x4c
 8003ec6:	f100 0003 	add.w	r0, r0, #3
 8003eca:	f020 0003 	bic.w	r0, r0, #3
 8003ece:	64e0      	str	r0, [r4, #76]	; 0x4c
 8003ed0:	f7ff b8f0 	b.w	80030b4 <INEXT>
 8003ed4:	08003ebc 	stmdaeq	r0, {r2, r3, r4, r5, r7, r9, sl, fp, ip, sp}

08003ed8 <_ALGND>:
 8003ed8:	494c4107 	stmdbmi	ip, {r0, r1, r2, r8, lr}^
 8003edc:	44454e47 	strbmi	r4, [r5], #-3655	; 0xfffff1b9

08003ee0 <ALGND>:
 8003ee0:	f106 0603 	add.w	r6, r6, #3
 8003ee4:	f06f 0503 	mvn.w	r5, #3
 8003ee8:	ea06 0605 	and.w	r6, r6, r5
 8003eec:	f7ff b8e2 	b.w	80030b4 <INEXT>
 8003ef0:	08003ed8 	stmdaeq	r0, {r3, r4, r6, r7, r9, sl, fp, ip, sp}

08003ef4 <_TCHAR>:
 8003ef4:	48433e05 	stmdami	r3, {r0, r2, r9, sl, fp, ip, sp}^
 8003ef8:	bf005241 	svclt	0x00005241

08003efc <TCHAR>:
 8003efc:	4750      	bx	sl
 8003efe:	bf00      	nop
 8003f00:	080032df 	stmdaeq	r0, {r0, r1, r2, r3, r4, r6, r7, r9, ip, sp}
 8003f04:	0000007f 	andeq	r0, r0, pc, ror r0
 8003f08:	080034e9 	stmdaeq	r0, {r0, r3, r5, r6, r7, sl, ip, sp}
 8003f0c:	08003469 	stmdaeq	r0, {r0, r3, r5, r6, sl, ip, sp}
 8003f10:	08003625 	stmdaeq	r0, {r0, r2, r5, r9, sl, ip, sp}
 8003f14:	080032df 	stmdaeq	r0, {r0, r1, r2, r3, r4, r6, r7, r9, ip, sp}
 8003f18:	0000007f 	andeq	r0, r0, pc, ror r0
 8003f1c:	08003b71 	stmdaeq	r0, {r0, r4, r5, r6, r8, r9, fp, ip, sp}
 8003f20:	08003779 	stmdaeq	r0, {r0, r3, r4, r5, r6, r8, r9, sl, ip, sp}
 8003f24:	0800331f 	stmdaeq	r0, {r0, r1, r2, r3, r4, r8, r9, ip, sp}
 8003f28:	08003f38 	stmdaeq	r0, {r3, r4, r5, r8, r9, sl, fp, ip, sp}
 8003f2c:	08003459 	stmdaeq	r0, {r0, r3, r4, r6, sl, ip, sp}
 8003f30:	080032df 	stmdaeq	r0, {r0, r1, r2, r3, r4, r6, r7, r9, ip, sp}
 8003f34:	0000005f 	andeq	r0, r0, pc, asr r0

08003f38 <TCHA1>:
 8003f38:	080030bb 	stmdaeq	r0, {r0, r1, r3, r4, r5, r7, ip, sp}
 8003f3c:	08003ef4 	stmdaeq	r0, {r2, r4, r5, r6, r7, r9, sl, fp, ip, sp}

08003f40 <_DEPTH>:
 8003f40:	50454405 	subpl	r4, r5, r5, lsl #8
 8003f44:	bf004854 	svclt	0x00004854

08003f48 <DEPTH>:
 8003f48:	f64f 62b0 	movw	r2, #65200	; 0xfeb0
 8003f4c:	f2c2 0201 	movt	r2, #8193	; 0x2001
 8003f50:	eba2 0207 	sub.w	r2, r2, r7
 8003f54:	f847 6d04 	str.w	r6, [r7, #-4]!
 8003f58:	ea4f 06a2 	mov.w	r6, r2, asr #2
 8003f5c:	f7ff b8aa 	b.w	80030b4 <INEXT>
 8003f60:	08003f40 	stmdaeq	r0, {r6, r8, r9, sl, fp, ip, sp}

08003f64 <_PICK>:
 8003f64:	43495004 	movtmi	r5, #36868	; 0x9004
 8003f68:	bf00004b 	svclt	0x0000004b

08003f6c <PICK>:
 8003f6c:	ea4f 0686 	mov.w	r6, r6, lsl #2
 8003f70:	59be      	ldr	r6, [r7, r6]
 8003f72:	f7ff b89f 	b.w	80030b4 <INEXT>
 8003f76:	08003f64 	stmdaeq	r0, {r2, r5, r6, r8, r9, sl, fp, ip, sp}

08003f7a <_PUT>:
 8003f7a:	54555003 	ldrbpl	r5, [r5], #-3
 8003f7e:	bf00      	nop

08003f80 <PUT>:
 8003f80:	4635      	mov	r5, r6
 8003f82:	f857 6b04 	ldr.w	r6, [r7], #4
 8003f86:	ea4f 0585 	mov.w	r5, r5, lsl #2
 8003f8a:	517e      	str	r6, [r7, r5]
 8003f8c:	f857 6b04 	ldr.w	r6, [r7], #4
 8003f90:	f7ff b890 	b.w	80030b4 <INEXT>
 8003f94:	08003f7a 	stmdaeq	r0, {r1, r3, r4, r5, r6, r8, r9, sl, fp, ip, sp}

08003f98 <_HERE>:
 8003f98:	52454804 	subpl	r4, r5, #4, 16	; 0x40000
 8003f9c:	bf000045 	svclt	0x00000045

08003fa0 <HERE>:
 8003fa0:	4750      	bx	sl
 8003fa2:	bf00      	nop
 8003fa4:	08003a95 	stmdaeq	r0, {r0, r2, r4, r7, r9, fp, ip, sp}
 8003fa8:	08003375 	stmdaeq	r0, {r0, r2, r4, r5, r6, r8, r9, ip, sp}
 8003fac:	080030bb 	stmdaeq	r0, {r0, r1, r3, r4, r5, r7, ip, sp}
 8003fb0:	08003f98 	stmdaeq	r0, {r3, r4, r7, r8, r9, sl, fp, ip, sp}

08003fb4 <_PAD>:
 8003fb4:	44415003 	strbmi	r5, [r1], #-3

08003fb8 <PAD>:
 8003fb8:	4750      	bx	sl
 8003fba:	bf00      	nop
 8003fbc:	08003fa1 	stmdaeq	r0, {r0, r5, r7, r8, r9, sl, fp, ip, sp}
 8003fc0:	080032df 	stmdaeq	r0, {r0, r1, r2, r3, r4, r6, r7, r9, ip, sp}
 8003fc4:	00000050 	andeq	r0, r0, r0, asr r0
 8003fc8:	08003569 	stmdaeq	r0, {r0, r3, r5, r6, r8, sl, ip, sp}
 8003fcc:	080030bb 	stmdaeq	r0, {r0, r1, r3, r4, r5, r7, ip, sp}
 8003fd0:	08003fb4 	stmdaeq	r0, {r2, r4, r5, r7, r8, r9, sl, fp, ip, sp}

08003fd4 <_TIB>:
 8003fd4:	42495403 	submi	r5, r9, #50331648	; 0x3000000

08003fd8 <TIB>:
 8003fd8:	f847 6d04 	str.w	r6, [r7, #-4]!
 8003fdc:	6b66      	ldr	r6, [r4, #52]	; 0x34
 8003fde:	f7ff b869 	b.w	80030b4 <INEXT>
 8003fe2:	08003fd4 	stmdaeq	r0, {r2, r4, r6, r7, r8, r9, sl, fp, ip, sp}

08003fe6 <_SOURCID>:
 8003fe6:	554f5309 	strbpl	r5, [pc, #-777]	; 8003ce5 <STOD+0x5>
 8003fea:	2d454352 	stclcs	3, cr4, [r5, #-328]	; 0xfffffeb8
 8003fee:	 			; <UNDEFINED> instruction: 0xf8474449

08003ff0 <SOURCID>:
 8003ff0:	f847 6d04 	str.w	r6, [r7, #-4]!
 8003ff4:	6ba6      	ldr	r6, [r4, #56]	; 0x38
 8003ff6:	f7ff b85d 	b.w	80030b4 <INEXT>
 8003ffa:	08003fe6 	stmdaeq	r0, {r1, r2, r5, r6, r7, r8, r9, sl, fp, ip, sp}

08003ffe <_SOURCE>:
 8003ffe:	554f5306 	strbpl	r5, [pc, #-774]	; 8003d00 <D2STAR+0xc>
 8004002:	00454352 	subeq	r4, r5, r2, asr r3
 8004006:	bf00      	nop

08004008 <SOURCE>:
 8004008:	4750      	bx	sl
 800400a:	bf00      	nop
 800400c:	080032df 	stmdaeq	r0, {r0, r1, r2, r3, r4, r6, r7, r9, ip, sp}
 8004010:	20000030 	andcs	r0, r0, r0, lsr r0
 8004014:	080038f1 	stmdaeq	r0, {r0, r4, r5, r6, r7, fp, ip, sp}
 8004018:	080030bb 	stmdaeq	r0, {r0, r1, r3, r4, r5, r7, ip, sp}
 800401c:	08003ffe 	stmdaeq	r0, {r1, r2, r3, r4, r5, r6, r7, r8, r9, sl, fp, ip, sp}

08004020 <_ATEXE>:
 8004020:	58454008 	stmdapl	r5, {r3, lr}^
 8004024:	54554345 	ldrbpl	r4, [r5], #-837	; 0xfffffcbb
 8004028:	bf000045 	svclt	0x00000045

0800402c <ATEXE>:
 800402c:	0035      	movs	r5, r6
 800402e:	f857 6b04 	ldr.w	r6, [r7], #4
 8004032:	682d      	ldr	r5, [r5, #0]
 8004034:	f045 0501 	orr.w	r5, r5, #1
 8004038:	bf18      	it	ne
 800403a:	4728      	bxne	r5
 800403c:	f7ff b83a 	b.w	80030b4 <INEXT>
 8004040:	08004020 	stmdaeq	r0, {r5, lr}

08004044 <_CMOVE>:
 8004044:	4f4d4305 	svcmi	0x004d4305
 8004048:	bf004556 	svclt	0x00004556

0800404c <CMOVE>:
 800404c:	f857 2b04 	ldr.w	r2, [r7], #4
 8004050:	f857 3b04 	ldr.w	r3, [r7], #4
 8004054:	e003      	b.n	800405e <CMOV1>

08004056 <CMOV0>:
 8004056:	f813 5b01 	ldrb.w	r5, [r3], #1
 800405a:	f802 5b01 	strb.w	r5, [r2], #1

0800405e <CMOV1>:
 800405e:	0036      	movs	r6, r6
 8004060:	d002      	beq.n	8004068 <CMOV2>
 8004062:	f1a6 0601 	sub.w	r6, r6, #1
 8004066:	e7f6      	b.n	8004056 <CMOV0>

08004068 <CMOV2>:
 8004068:	f857 6b04 	ldr.w	r6, [r7], #4
 800406c:	f7ff b822 	b.w	80030b4 <INEXT>
 8004070:	08004044 	stmdaeq	r0, {r2, r6, lr}

08004074 <_MOVE>:
 8004074:	564f4d04 	strbpl	r4, [pc], -r4, lsl #26
 8004078:	bf000045 	svclt	0x00000045

0800407c <MOVE>:
 800407c:	f04f 0004 	mov.w	r0, #4
 8004080:	f106 0603 	add.w	r6, r6, #3
 8004084:	f026 0603 	bic.w	r6, r6, #3
 8004088:	f857 1b04 	ldr.w	r1, [r7], #4
 800408c:	f857 2b04 	ldr.w	r2, [r7], #4
 8004090:	428a      	cmp	r2, r1
 8004092:	d508      	bpl.n	80040a6 <MOVE1>
 8004094:	f06f 0003 	mvn.w	r0, #3
 8004098:	4431      	add	r1, r6
 800409a:	4432      	add	r2, r6
 800409c:	e001      	b.n	80040a2 <MOVE3>

0800409e <MOVE0>:
 800409e:	6815      	ldr	r5, [r2, #0]
 80040a0:	600d      	str	r5, [r1, #0]

080040a2 <MOVE3>:
 80040a2:	4401      	add	r1, r0
 80040a4:	4402      	add	r2, r0

080040a6 <MOVE1>:
 80040a6:	0036      	movs	r6, r6
 80040a8:	d002      	beq.n	80040b0 <MOVE2>
 80040aa:	f1a6 0604 	sub.w	r6, r6, #4
 80040ae:	e7f6      	b.n	800409e <MOVE0>

080040b0 <MOVE2>:
 80040b0:	f857 6b04 	ldr.w	r6, [r7], #4
 80040b4:	f7fe bffe 	b.w	80030b4 <INEXT>
 80040b8:	08004074 	stmdaeq	r0, {r2, r4, r5, r6, lr}

080040bc <_FILL>:
 80040bc:	4c494604 	mcrrmi	6, 0, r4, r9, cr4
 80040c0:	bf00004c 	svclt	0x0000004c

080040c4 <FILL>:
 80040c4:	cf03      	ldmia	r7!, {r0, r1}
 80040c6:	0000      	movs	r0, r0
 80040c8:	d003      	beq.n	80040d2 <FILL2>

080040ca <FILL1>:
 80040ca:	f801 6b01 	strb.w	r6, [r1], #1
 80040ce:	3801      	subs	r0, #1
 80040d0:	d1fb      	bne.n	80040ca <FILL1>

080040d2 <FILL2>:
 80040d2:	f857 6b04 	ldr.w	r6, [r7], #4
 80040d6:	f7fe bfed 	b.w	80030b4 <INEXT>
 80040da:	080040bc 	stmdaeq	r0, {r2, r3, r4, r5, r7, lr}

080040de <_PACKS>:
 80040de:	43415005 	movtmi	r5, #4101	; 0x1005
 80040e2:	 	ldrbmi	r2, [r0, -fp, asr #8]

080040e4 <PACKS>:
 80040e4:	4750      	bx	sl
 80040e6:	bf00      	nop
 80040e8:	08003ee1 	stmdaeq	r0, {r0, r5, r6, r7, r9, sl, fp, ip, sp}
 80040ec:	08003469 	stmdaeq	r0, {r0, r3, r5, r6, sl, ip, sp}
 80040f0:	080033e5 	stmdaeq	r0, {r0, r2, r5, r6, r7, r8, r9, ip, sp}
 80040f4:	080034a9 	stmdaeq	r0, {r0, r3, r5, r7, sl, ip, sp}
 80040f8:	08003569 	stmdaeq	r0, {r0, r3, r5, r6, r8, sl, ip, sp}
 80040fc:	080035c5 	stmdaeq	r0, {r0, r2, r6, r7, r8, sl, ip, sp}
 8004100:	080032df 	stmdaeq	r0, {r0, r1, r2, r3, r4, r6, r7, r9, ip, sp}
 8004104:	fffffffc 			; <UNDEFINED> instruction: 0xfffffffc
 8004108:	080034e9 	stmdaeq	r0, {r0, r3, r5, r6, r7, sl, ip, sp}
 800410c:	080032df 	stmdaeq	r0, {r0, r1, r2, r3, r4, r6, r7, r9, ip, sp}
 8004110:	00000000 	andeq	r0, r0, r0
 8004114:	08003479 	stmdaeq	r0, {r0, r3, r4, r5, r6, sl, ip, sp}
 8004118:	08003361 	stmdaeq	r0, {r0, r5, r6, r8, r9, ip, sp}
 800411c:	080033d1 	stmdaeq	r0, {r0, r4, r6, r7, r8, r9, ip, sp}
 8004120:	080036dd 	stmdaeq	r0, {r0, r2, r3, r4, r6, r7, r9, sl, ip, sp}
 8004124:	08003381 	stmdaeq	r0, {r0, r7, r8, r9, ip, sp}
 8004128:	080035c5 	stmdaeq	r0, {r0, r2, r6, r7, r8, sl, ip, sp}
 800412c:	08003479 	stmdaeq	r0, {r0, r3, r4, r5, r6, sl, ip, sp}
 8004130:	0800404d 	stmdaeq	r0, {r0, r2, r3, r6, lr}
 8004134:	080033a1 	stmdaeq	r0, {r0, r5, r7, r8, r9, ip, sp}
 8004138:	080030bb 	stmdaeq	r0, {r0, r1, r3, r4, r5, r7, ip, sp}
 800413c:	080040de 	stmdaeq	r0, {r1, r2, r3, r4, r6, r7, lr}

08004140 <_DIGIT>:
 8004140:	47494405 	strbmi	r4, [r9, -r5, lsl #8]
 8004144:	bf005449 	svclt	0x00005449

08004148 <DIGIT>:
 8004148:	4750      	bx	sl
 800414a:	bf00      	nop
 800414c:	080032df 	stmdaeq	r0, {r0, r1, r2, r3, r4, r6, r7, r9, ip, sp}
 8004150:	00000009 	andeq	r0, r0, r9
 8004154:	080034a9 	stmdaeq	r0, {r0, r3, r5, r7, sl, ip, sp}
 8004158:	08003845 	stmdaeq	r0, {r0, r2, r6, fp, ip, sp}
 800415c:	080032df 	stmdaeq	r0, {r0, r1, r2, r3, r4, r6, r7, r9, ip, sp}
 8004160:	00000007 	andeq	r0, r0, r7
 8004164:	080034e9 	stmdaeq	r0, {r0, r3, r5, r6, r7, sl, ip, sp}
 8004168:	08003569 	stmdaeq	r0, {r0, r3, r5, r6, r8, sl, ip, sp}
 800416c:	080032df 	stmdaeq	r0, {r0, r1, r2, r3, r4, r6, r7, r9, ip, sp}
 8004170:	00000030 	andeq	r0, r0, r0, lsr r0
 8004174:	08003569 	stmdaeq	r0, {r0, r3, r5, r6, r8, sl, ip, sp}
 8004178:	080030bb 	stmdaeq	r0, {r0, r1, r3, r4, r5, r7, ip, sp}
 800417c:	08004140 	stmdaeq	r0, {r6, r8, lr}

08004180 <_EXTRC>:
 8004180:	54584507 	ldrbpl	r4, [r8], #-1287	; 0xfffffaf9
 8004184:	54434152 	strbpl	r4, [r3], #-338	; 0xfffffeae

08004188 <EXTRC>:
 8004188:	4750      	bx	sl
 800418a:	bf00      	nop
 800418c:	08003d29 	stmdaeq	r0, {r0, r3, r5, r8, sl, fp, ip, sp}
 8004190:	0800368d 	stmdaeq	r0, {r0, r2, r3, r7, r9, sl, ip, sp}
 8004194:	08004149 	stmdaeq	r0, {r0, r3, r6, r8, lr}
 8004198:	080030bb 	stmdaeq	r0, {r0, r1, r3, r4, r5, r7, ip, sp}
 800419c:	08004180 	stmdaeq	r0, {r7, r8, lr}

080041a0 <_BDIGS>:
 80041a0:	00233c02 	eoreq	r3, r3, r2, lsl #24

080041a4 <BDIGS>:
 80041a4:	4750      	bx	sl
 80041a6:	bf00      	nop
 80041a8:	08003fb9 	stmdaeq	r0, {r0, r3, r4, r5, r7, r8, r9, sl, fp, ip, sp}
 80041ac:	08003a69 	stmdaeq	r0, {r0, r3, r5, r6, r9, fp, ip, sp}
 80041b0:	08003361 	stmdaeq	r0, {r0, r5, r6, r8, r9, ip, sp}
 80041b4:	080030bb 	stmdaeq	r0, {r0, r1, r3, r4, r5, r7, ip, sp}
 80041b8:	080041a0 	stmdaeq	r0, {r5, r7, r8, lr}

080041bc <_HOLD>:
 80041bc:	4c4f4804 	mcrrmi	8, 0, r4, pc, cr4
 80041c0:	bf000044 	svclt	0x00000044

080041c4 <HOLD>:
 80041c4:	4750      	bx	sl
 80041c6:	bf00      	nop
 80041c8:	08003a69 	stmdaeq	r0, {r0, r3, r5, r6, r9, fp, ip, sp}
 80041cc:	08003375 	stmdaeq	r0, {r0, r2, r4, r5, r6, r8, r9, ip, sp}
 80041d0:	080035d5 	stmdaeq	r0, {r0, r2, r4, r6, r7, r8, sl, ip, sp}
 80041d4:	08003469 	stmdaeq	r0, {r0, r3, r5, r6, sl, ip, sp}
 80041d8:	08003a69 	stmdaeq	r0, {r0, r3, r5, r6, r9, fp, ip, sp}
 80041dc:	08003361 	stmdaeq	r0, {r0, r5, r6, r8, r9, ip, sp}
 80041e0:	08003381 	stmdaeq	r0, {r0, r7, r8, r9, ip, sp}
 80041e4:	080030bb 	stmdaeq	r0, {r0, r1, r3, r4, r5, r7, ip, sp}
 80041e8:	080041bc 	stmdaeq	r0, {r2, r3, r4, r5, r7, r8, lr}

080041ec <_DIG>:
 80041ec:	bf002301 	svclt	0x00002301

080041f0 <DIG>:
 80041f0:	4750      	bx	sl
 80041f2:	bf00      	nop
 80041f4:	080039d5 	stmdaeq	r0, {r0, r2, r4, r6, r7, r8, fp, ip, sp}
 80041f8:	08003375 	stmdaeq	r0, {r0, r2, r4, r5, r6, r8, r9, ip, sp}
 80041fc:	08004189 	stmdaeq	r0, {r0, r3, r7, r8, lr}
 8004200:	080041c5 	stmdaeq	r0, {r0, r2, r6, r7, r8, lr}
 8004204:	080030bb 	stmdaeq	r0, {r0, r1, r3, r4, r5, r7, ip, sp}
 8004208:	080041ec 	stmdaeq	r0, {r2, r3, r5, r6, r7, r8, lr}

0800420c <_DIGS>:
 800420c:	00532302 	subseq	r2, r3, r2, lsl #6

08004210 <DIGS>:
 8004210:	4750      	bx	sl
 8004212:	bf00      	nop

08004214 <DIGS1>:
 8004214:	080041f1 	stmdaeq	r0, {r0, r4, r5, r6, r7, r8, lr}
 8004218:	080036dd 	stmdaeq	r0, {r0, r2, r3, r4, r6, r7, r9, sl, ip, sp}
 800421c:	080034fd 	stmdaeq	r0, {r0, r2, r3, r4, r5, r6, r7, sl, ip, sp}
 8004220:	0800331f 	stmdaeq	r0, {r0, r1, r2, r3, r4, r8, r9, ip, sp}
 8004224:	08004230 	stmdaeq	r0, {r4, r5, r9, lr}
 8004228:	08003347 	stmdaeq	r0, {r0, r1, r2, r6, r8, r9, ip, sp}
 800422c:	08004214 	stmdaeq	r0, {r2, r4, r9, lr}

08004230 <DIGS2>:
 8004230:	08003459 	stmdaeq	r0, {r0, r3, r4, r6, sl, ip, sp}
 8004234:	080030bb 	stmdaeq	r0, {r0, r1, r3, r4, r5, r7, ip, sp}
 8004238:	0800420c 	stmdaeq	r0, {r2, r3, r9, lr}

0800423c <_SIGN>:
 800423c:	47495304 	strbmi	r5, [r9, -r4, lsl #6]
 8004240:	bf00004e 	svclt	0x0000004e

08004244 <SIGN>:
 8004244:	4750      	bx	sl
 8004246:	bf00      	nop
 8004248:	080034d9 	stmdaeq	r0, {r0, r3, r4, r6, r7, sl, ip, sp}
 800424c:	0800331f 	stmdaeq	r0, {r0, r1, r2, r3, r4, r8, r9, ip, sp}
 8004250:	08004260 	stmdaeq	r0, {r5, r6, r9, lr}
 8004254:	080032df 	stmdaeq	r0, {r0, r1, r2, r3, r4, r6, r7, r9, ip, sp}
 8004258:	0000002d 	andeq	r0, r0, sp, lsr #32
 800425c:	080041c5 	stmdaeq	r0, {r0, r2, r6, r7, r8, lr}

08004260 <SIGN1>:
 8004260:	080030bb 	stmdaeq	r0, {r0, r1, r3, r4, r5, r7, ip, sp}
 8004264:	0800423c 	stmdaeq	r0, {r2, r3, r4, r5, r9, lr}

08004268 <_EDIGS>:
 8004268:	003e2302 	eorseq	r2, lr, r2, lsl #6

0800426c <EDIGS>:
 800426c:	4750      	bx	sl
 800426e:	bf00      	nop
 8004270:	08003459 	stmdaeq	r0, {r0, r3, r4, r6, sl, ip, sp}
 8004274:	08003a69 	stmdaeq	r0, {r0, r3, r5, r6, r9, fp, ip, sp}
 8004278:	08003375 	stmdaeq	r0, {r0, r2, r4, r5, r6, r8, r9, ip, sp}
 800427c:	08003fb9 	stmdaeq	r0, {r0, r3, r4, r5, r7, r8, r9, sl, fp, ip, sp}
 8004280:	080034a9 	stmdaeq	r0, {r0, r3, r5, r7, sl, ip, sp}
 8004284:	08003579 	stmdaeq	r0, {r0, r3, r4, r5, r6, r8, sl, ip, sp}
 8004288:	080030bb 	stmdaeq	r0, {r0, r1, r3, r4, r5, r7, ip, sp}

0800428c <STRR>:
 800428c:	4750      	bx	sl
 800428e:	bf00      	nop
 8004290:	08003ce1 	stmdaeq	r0, {r0, r5, r6, r7, sl, fp, ip, sp}
 8004294:	08003469 	stmdaeq	r0, {r0, r3, r5, r6, sl, ip, sp}
 8004298:	080033e5 	stmdaeq	r0, {r0, r2, r5, r6, r7, r8, r9, ip, sp}
 800429c:	08003711 	stmdaeq	r0, {r0, r4, r8, r9, sl, ip, sp}
 80042a0:	080041a5 	stmdaeq	r0, {r0, r2, r5, r7, r8, lr}
 80042a4:	08004211 	stmdaeq	r0, {r0, r4, r9, lr}
 80042a8:	080033a1 	stmdaeq	r0, {r0, r5, r7, r8, r9, ip, sp}
 80042ac:	08004245 	stmdaeq	r0, {r0, r2, r6, r9, lr}
 80042b0:	0800426d 	stmdaeq	r0, {r0, r2, r3, r5, r6, r9, lr}
 80042b4:	080030bb 	stmdaeq	r0, {r0, r1, r3, r4, r5, r7, ip, sp}
 80042b8:	08004268 	stmdaeq	r0, {r3, r5, r6, r9, lr}

080042bc <_HEX>:
 80042bc:	58454803 	stmdapl	r5, {r0, r1, fp, lr}^

080042c0 <HEX>:
 80042c0:	4750      	bx	sl
 80042c2:	bf00      	nop
 80042c4:	080032df 	stmdaeq	r0, {r0, r1, r2, r3, r4, r6, r7, r9, ip, sp}
 80042c8:	00000010 	andeq	r0, r0, r0, lsl r0
 80042cc:	080039d5 	stmdaeq	r0, {r0, r2, r4, r6, r7, r8, fp, ip, sp}
 80042d0:	08003361 	stmdaeq	r0, {r0, r5, r6, r8, r9, ip, sp}
 80042d4:	080030bb 	stmdaeq	r0, {r0, r1, r3, r4, r5, r7, ip, sp}
 80042d8:	080042bc 	stmdaeq	r0, {r2, r3, r4, r5, r7, r9, lr}

080042dc <_BIN>:
 80042dc:	4e494203 	cdpmi	2, 4, cr4, cr9, cr3, {0}

080042e0 <BIN>:
 80042e0:	4750      	bx	sl
 80042e2:	bf00      	nop
 80042e4:	080032df 	stmdaeq	r0, {r0, r1, r2, r3, r4, r6, r7, r9, ip, sp}
 80042e8:	00000002 	andeq	r0, r0, r2
 80042ec:	080039d5 	stmdaeq	r0, {r0, r2, r4, r6, r7, r8, fp, ip, sp}
 80042f0:	08003361 	stmdaeq	r0, {r0, r5, r6, r8, r9, ip, sp}
 80042f4:	080030bb 	stmdaeq	r0, {r0, r1, r3, r4, r5, r7, ip, sp}
 80042f8:	080042dc 	stmdaeq	r0, {r2, r3, r4, r6, r7, r9, lr}

080042fc <_DECIM>:
 80042fc:	43454407 	movtmi	r4, #21511	; 0x5407
 8004300:	4c414d49 	mcrrmi	13, 4, r4, r1, cr9

08004304 <DECIM>:
 8004304:	4750      	bx	sl
 8004306:	bf00      	nop
 8004308:	080032df 	stmdaeq	r0, {r0, r1, r2, r3, r4, r6, r7, r9, ip, sp}
 800430c:	0000000a 	andeq	r0, r0, sl
 8004310:	080039d5 	stmdaeq	r0, {r0, r2, r4, r6, r7, r8, fp, ip, sp}
 8004314:	08003361 	stmdaeq	r0, {r0, r5, r6, r8, r9, ip, sp}
 8004318:	080030bb 	stmdaeq	r0, {r0, r1, r3, r4, r5, r7, ip, sp}
 800431c:	080042fc 	stmdaeq	r0, {r2, r3, r4, r5, r6, r7, r9, lr}

08004320 <_DIGTQ>:
 8004320:	47494406 	strbmi	r4, [r9, -r6, lsl #8]
 8004324:	003f5449 	eorseq	r5, pc, r9, asr #8

08004328 <DIGTQ>:
 8004328:	4750      	bx	sl
 800432a:	bf00      	nop
 800432c:	080033e5 	stmdaeq	r0, {r0, r2, r5, r6, r7, r8, r9, ip, sp}
 8004330:	080032df 	stmdaeq	r0, {r0, r1, r2, r3, r4, r6, r7, r9, ip, sp}
 8004334:	00000030 	andeq	r0, r0, r0, lsr r0
 8004338:	08003579 	stmdaeq	r0, {r0, r3, r4, r5, r6, r8, sl, ip, sp}
 800433c:	080032df 	stmdaeq	r0, {r0, r1, r2, r3, r4, r6, r7, r9, ip, sp}
 8004340:	00000009 	andeq	r0, r0, r9
 8004344:	080034a9 	stmdaeq	r0, {r0, r3, r5, r7, sl, ip, sp}
 8004348:	08003845 	stmdaeq	r0, {r0, r2, r6, fp, ip, sp}
 800434c:	0800331f 	stmdaeq	r0, {r0, r1, r2, r3, r4, r8, r9, ip, sp}
 8004350:	08004374 	stmdaeq	r0, {r2, r4, r5, r6, r8, r9, lr}
 8004354:	080032df 	stmdaeq	r0, {r0, r1, r2, r3, r4, r6, r7, r9, ip, sp}
 8004358:	00000007 	andeq	r0, r0, r7
 800435c:	08003579 	stmdaeq	r0, {r0, r3, r4, r5, r6, r8, sl, ip, sp}
 8004360:	08003469 	stmdaeq	r0, {r0, r3, r5, r6, sl, ip, sp}
 8004364:	080032df 	stmdaeq	r0, {r0, r1, r2, r3, r4, r6, r7, r9, ip, sp}
 8004368:	0000000a 	andeq	r0, r0, sl
 800436c:	08003845 	stmdaeq	r0, {r0, r2, r6, fp, ip, sp}
 8004370:	080034fd 	stmdaeq	r0, {r0, r2, r3, r4, r5, r6, r7, sl, ip, sp}

08004374 <DGTQ1>:
 8004374:	08003469 	stmdaeq	r0, {r0, r3, r5, r6, sl, ip, sp}
 8004378:	080033a1 	stmdaeq	r0, {r0, r5, r7, r8, r9, ip, sp}
 800437c:	0800382d 	stmdaeq	r0, {r0, r2, r3, r5, fp, ip, sp}
 8004380:	080030bb 	stmdaeq	r0, {r0, r1, r3, r4, r5, r7, ip, sp}
 8004384:	08004320 	stmdaeq	r0, {r5, r8, r9, lr}

08004388 <_TONBR>:
 8004388:	554e3e07 	strbpl	r3, [lr, #-3591]	; 0xfffff1f9
 800438c:	5245424d 	subpl	r4, r5, #-805306364	; 0xd0000004

08004390 <TONBR>:
 8004390:	4750      	bx	sl
 8004392:	bf00      	nop
 8004394:	08003469 	stmdaeq	r0, {r0, r3, r5, r6, sl, ip, sp}
 8004398:	0800331f 	stmdaeq	r0, {r0, r1, r2, r3, r4, r8, r9, ip, sp}
 800439c:	08004400 	stmdaeq	r0, {sl, lr}
 80043a0:	080034a9 	stmdaeq	r0, {r0, r3, r5, r7, sl, ip, sp}
 80043a4:	08003395 	stmdaeq	r0, {r0, r2, r4, r7, r8, r9, ip, sp}
 80043a8:	080039d5 	stmdaeq	r0, {r0, r2, r4, r6, r7, r8, fp, ip, sp}
 80043ac:	08003375 	stmdaeq	r0, {r0, r2, r4, r5, r6, r8, r9, ip, sp}
 80043b0:	08004329 	stmdaeq	r0, {r0, r3, r5, r8, r9, lr}
 80043b4:	0800331f 	stmdaeq	r0, {r0, r1, r2, r3, r4, r8, r9, ip, sp}
 80043b8:	080043fc 	stmdaeq	r0, {r2, r3, r4, r5, r6, r7, r8, r9, lr}
 80043bc:	080033e5 	stmdaeq	r0, {r0, r2, r5, r6, r7, r8, r9, ip, sp}
 80043c0:	080035d5 	stmdaeq	r0, {r0, r2, r4, r6, r7, r8, sl, ip, sp}
 80043c4:	0800348d 	stmdaeq	r0, {r0, r2, r3, r7, sl, ip, sp}
 80043c8:	080039d5 	stmdaeq	r0, {r0, r2, r4, r6, r7, r8, fp, ip, sp}
 80043cc:	08003375 	stmdaeq	r0, {r0, r2, r4, r5, r6, r8, r9, ip, sp}
 80043d0:	08003dc9 	stmdaeq	r0, {r0, r3, r6, r7, r8, sl, fp, ip, sp}
 80043d4:	080033a1 	stmdaeq	r0, {r0, r5, r7, r8, r9, ip, sp}
 80043d8:	080032df 	stmdaeq	r0, {r0, r1, r2, r3, r4, r6, r7, r9, ip, sp}
 80043dc:	00000000 	andeq	r0, r0, r0
 80043e0:	080036f1 	stmdaeq	r0, {r0, r4, r5, r6, r7, r9, sl, ip, sp}
 80043e4:	0800348d 	stmdaeq	r0, {r0, r2, r3, r7, sl, ip, sp}
 80043e8:	08003479 	stmdaeq	r0, {r0, r3, r4, r5, r6, sl, ip, sp}
 80043ec:	080035c5 	stmdaeq	r0, {r0, r2, r6, r7, r8, sl, ip, sp}
 80043f0:	08003479 	stmdaeq	r0, {r0, r3, r4, r5, r6, sl, ip, sp}
 80043f4:	08003347 	stmdaeq	r0, {r0, r1, r2, r6, r8, r9, ip, sp}
 80043f8:	080043a0 	stmdaeq	r0, {r5, r7, r8, r9, lr}
 80043fc:	08003459 	stmdaeq	r0, {r0, r3, r4, r6, sl, ip, sp}
 8004400:	080030bb 	stmdaeq	r0, {r0, r1, r3, r4, r5, r7, ip, sp}

08004404 <CHARQ>:
 8004404:	6878      	ldr	r0, [r7, #4]
 8004406:	f810 1b01 	ldrb.w	r1, [r0], #1
 800440a:	4632      	mov	r2, r6
 800440c:	ea86 0606 	eor.w	r6, r6, r6
 8004410:	4291      	cmp	r1, r2
 8004412:	d106      	bne.n	8004422 <CHARQ+0x1e>
 8004414:	6078      	str	r0, [r7, #4]
 8004416:	6838      	ldr	r0, [r7, #0]
 8004418:	f1a0 0001 	sub.w	r0, r0, #1
 800441c:	6038      	str	r0, [r7, #0]
 800441e:	ea6f 0606 	mvn.w	r6, r6
 8004422:	f7fe be47 	b.w	80030b4 <INEXT>

08004426 <NEGQ>:
 8004426:	f847 6d04 	str.w	r6, [r7, #-4]!
 800442a:	ea86 0606 	eor.w	r6, r6, r6
 800442e:	6878      	ldr	r0, [r7, #4]
 8004430:	f810 1b01 	ldrb.w	r1, [r0], #1
 8004434:	292d      	cmp	r1, #45	; 0x2d
 8004436:	d002      	beq.n	800443e <NEGQ+0x18>
 8004438:	292b      	cmp	r1, #43	; 0x2b
 800443a:	d107      	bne.n	800444c <NEGQ+0x26>
 800443c:	e001      	b.n	8004442 <NEGQ+0x1c>
 800443e:	ea6f 0606 	mvn.w	r6, r6
 8004442:	6078      	str	r0, [r7, #4]
 8004444:	6838      	ldr	r0, [r7, #0]
 8004446:	f1a0 0001 	sub.w	r0, r0, #1
 800444a:	6038      	str	r0, [r7, #0]
 800444c:	f7fe be32 	b.w	80030b4 <INEXT>
 8004450:	08004388 	stmdaeq	r0, {r3, r7, r8, r9, lr}

08004454 <_INTQ>:
 8004454:	544e4904 	strbpl	r4, [lr], #-2308	; 0xfffff6fc
 8004458:	bf00003f 	svclt	0x0000003f

0800445c <INTQ>:
 800445c:	4750      	bx	sl
 800445e:	bf00      	nop
 8004460:	080039d5 	stmdaeq	r0, {r0, r2, r4, r6, r7, r8, fp, ip, sp}
 8004464:	08003375 	stmdaeq	r0, {r0, r2, r4, r5, r6, r8, r9, ip, sp}
 8004468:	080033e5 	stmdaeq	r0, {r0, r2, r5, r6, r7, r8, r9, ip, sp}
 800446c:	080032df 	stmdaeq	r0, {r0, r1, r2, r3, r4, r6, r7, r9, ip, sp}
 8004470:	00000000 	andeq	r0, r0, r0
 8004474:	080034a9 	stmdaeq	r0, {r0, r3, r5, r7, sl, ip, sp}
 8004478:	08003909 	stmdaeq	r0, {r0, r3, r8, fp, ip, sp}
 800447c:	080032df 	stmdaeq	r0, {r0, r1, r2, r3, r4, r6, r7, r9, ip, sp}
 8004480:	00000024 	andeq	r0, r0, r4, lsr #32
 8004484:	08004405 	stmdaeq	r0, {r0, r2, sl, lr}
 8004488:	0800331f 	stmdaeq	r0, {r0, r1, r2, r3, r4, r8, r9, ip, sp}
 800448c:	0800449c 	stmdaeq	r0, {r2, r3, r4, r7, sl, lr}
 8004490:	080042c1 	stmdaeq	r0, {r0, r6, r7, r9, lr}
 8004494:	08003347 	stmdaeq	r0, {r0, r1, r2, r6, r8, r9, ip, sp}
 8004498:	080044b4 	stmdaeq	r0, {r2, r4, r5, r7, sl, lr}
 800449c:	080032df 	stmdaeq	r0, {r0, r1, r2, r3, r4, r6, r7, r9, ip, sp}
 80044a0:	00000025 	andeq	r0, r0, r5, lsr #32
 80044a4:	08004405 	stmdaeq	r0, {r0, r2, sl, lr}
 80044a8:	0800331f 	stmdaeq	r0, {r0, r1, r2, r3, r4, r8, r9, ip, sp}
 80044ac:	080044b4 	stmdaeq	r0, {r2, r4, r5, r7, sl, lr}
 80044b0:	080042e1 	stmdaeq	r0, {r0, r5, r6, r7, r9, lr}
 80044b4:	08004427 	stmdaeq	r0, {r0, r1, r2, r5, sl, lr}
 80044b8:	080033e5 	stmdaeq	r0, {r0, r2, r5, r6, r7, r8, r9, ip, sp}
 80044bc:	080032df 	stmdaeq	r0, {r0, r1, r2, r3, r4, r6, r7, r9, ip, sp}
 80044c0:	00000000 	andeq	r0, r0, r0
 80044c4:	08003469 	stmdaeq	r0, {r0, r3, r5, r6, sl, ip, sp}
 80044c8:	0800348d 	stmdaeq	r0, {r0, r2, r3, r7, sl, ip, sp}
 80044cc:	08004391 	stmdaeq	r0, {r0, r4, r7, r8, r9, lr}
 80044d0:	0800331f 	stmdaeq	r0, {r0, r1, r2, r3, r4, r8, r9, ip, sp}
 80044d4:	080044ec 	stmdaeq	r0, {r2, r3, r5, r6, r7, sl, lr}
 80044d8:	080033a1 	stmdaeq	r0, {r0, r5, r7, r8, r9, ip, sp}
 80044dc:	080036b5 	stmdaeq	r0, {r0, r2, r4, r5, r7, r9, sl, ip, sp}
 80044e0:	080036b5 	stmdaeq	r0, {r0, r2, r4, r5, r7, r9, sl, ip, sp}
 80044e4:	08003347 	stmdaeq	r0, {r0, r1, r2, r6, r8, r9, ip, sp}
 80044e8:	08004514 	stmdaeq	r0, {r2, r4, r8, sl, lr}
 80044ec:	08003459 	stmdaeq	r0, {r0, r3, r4, r6, sl, ip, sp}
 80044f0:	0800348d 	stmdaeq	r0, {r0, r2, r3, r7, sl, ip, sp}
 80044f4:	080036b5 	stmdaeq	r0, {r0, r2, r4, r5, r7, r9, sl, ip, sp}
 80044f8:	08003459 	stmdaeq	r0, {r0, r3, r4, r6, sl, ip, sp}
 80044fc:	080033a1 	stmdaeq	r0, {r0, r5, r7, r8, r9, ip, sp}
 8004500:	0800331f 	stmdaeq	r0, {r0, r1, r2, r3, r4, r8, r9, ip, sp}
 8004504:	0800450c 	stmdaeq	r0, {r2, r3, r8, sl, lr}
 8004508:	0800378d 	stmdaeq	r0, {r0, r2, r3, r7, r8, r9, sl, ip, sp}
 800450c:	080032df 	stmdaeq	r0, {r0, r1, r2, r3, r4, r6, r7, r9, ip, sp}
 8004510:	ffffffff 			; <UNDEFINED> instruction: 0xffffffff
 8004514:	080033a1 	stmdaeq	r0, {r0, r5, r7, r8, r9, ip, sp}
 8004518:	080039d5 	stmdaeq	r0, {r0, r2, r4, r6, r7, r8, fp, ip, sp}
 800451c:	08003361 	stmdaeq	r0, {r0, r5, r6, r8, r9, ip, sp}
 8004520:	080030bb 	stmdaeq	r0, {r0, r1, r3, r4, r5, r7, ip, sp}
 8004524:	08004454 	stmdaeq	r0, {r2, r4, r6, sl, lr}

08004528 <_NUMBERQ>:
 8004528:	4d554e07 	ldclmi	14, cr4, [r5, #-28]	; 0xffffffe4
 800452c:	3f524542 	svccc	0x00524542

08004530 <NUMBERQ>:
 8004530:	4750      	bx	sl
 8004532:	bf00      	nop
 8004534:	0800445d 	stmdaeq	r0, {r0, r2, r3, r4, r6, sl, lr}
 8004538:	08003679 	stmdaeq	r0, {r0, r3, r4, r5, r6, r9, sl, ip, sp}
 800453c:	0800331f 	stmdaeq	r0, {r0, r1, r2, r3, r4, r8, r9, ip, sp}
 8004540:	08004548 	stmdaeq	r0, {r3, r6, r8, sl, lr}
 8004544:	080030bb 	stmdaeq	r0, {r0, r1, r3, r4, r5, r7, ip, sp}
 8004548:	080029d9 	stmdaeq	r0, {r0, r3, r4, r6, r7, r8, fp, sp}
 800454c:	080030bb 	stmdaeq	r0, {r0, r1, r3, r4, r5, r7, ip, sp}
 8004550:	08004528 	stmdaeq	r0, {r3, r5, r8, sl, lr}

08004554 <_SPACE>:
 8004554:	41505305 	cmpmi	r0, r5, lsl #6
 8004558:	bf004543 	svclt	0x00004543

0800455c <SPACE>:
 800455c:	4750      	bx	sl
 800455e:	bf00      	nop
 8004560:	08003625 	stmdaeq	r0, {r0, r2, r5, r9, sl, ip, sp}
 8004564:	0800317d 	stmdaeq	r0, {r0, r2, r3, r4, r5, r6, r8, ip, sp}
 8004568:	080030bb 	stmdaeq	r0, {r0, r1, r3, r4, r5, r7, ip, sp}
 800456c:	08004554 	stmdaeq	r0, {r2, r4, r6, r8, sl, lr}

08004570 <_SPACS>:
 8004570:	41505306 	cmpmi	r0, r6, lsl #6
 8004574:	00534543 	subseq	r4, r3, r3, asr #10

08004578 <SPACS>:
 8004578:	4750      	bx	sl
 800457a:	bf00      	nop
 800457c:	080032df 	stmdaeq	r0, {r0, r1, r2, r3, r4, r6, r7, r9, ip, sp}
 8004580:	00000000 	andeq	r0, r0, r0
 8004584:	0800388d 	stmdaeq	r0, {r0, r2, r3, r7, fp, ip, sp}
 8004588:	080033e5 	stmdaeq	r0, {r0, r2, r5, r6, r7, r8, r9, ip, sp}
 800458c:	08003347 	stmdaeq	r0, {r0, r1, r2, r6, r8, r9, ip, sp}
 8004590:	08004598 	stmdaeq	r0, {r3, r4, r7, r8, sl, lr}

08004594 <CHAR1>:
 8004594:	0800455d 	stmdaeq	r0, {r0, r2, r3, r4, r6, r8, sl, lr}

08004598 <CHAR2>:
 8004598:	08003301 	stmdaeq	r0, {r0, r8, r9, ip, sp}
 800459c:	08004594 	stmdaeq	r0, {r2, r4, r7, r8, sl, lr}
 80045a0:	080030bb 	stmdaeq	r0, {r0, r1, r3, r4, r5, r7, ip, sp}
 80045a4:	08004570 	stmdaeq	r0, {r4, r5, r6, r8, sl, lr}

080045a8 <_TYPEE>:
 80045a8:	50595404 	subspl	r5, r9, r4, lsl #8
 80045ac:	bf000045 	svclt	0x00000045

080045b0 <TYPEE>:
 80045b0:	4750      	bx	sl
 80045b2:	bf00      	nop
 80045b4:	080033e5 	stmdaeq	r0, {r0, r2, r5, r6, r7, r8, r9, ip, sp}
 80045b8:	08003347 	stmdaeq	r0, {r0, r1, r2, r6, r8, r9, ip, sp}
 80045bc:	080045cc 	stmdaeq	r0, {r2, r3, r6, r7, r8, sl, lr}

080045c0 <TYPE1>:
 80045c0:	08003909 	stmdaeq	r0, {r0, r3, r8, fp, ip, sp}
 80045c4:	08003efd 	stmdaeq	r0, {r0, r2, r3, r4, r5, r6, r7, r9, sl, fp, ip, sp}
 80045c8:	0800317d 	stmdaeq	r0, {r0, r2, r3, r4, r5, r6, r8, ip, sp}

080045cc <TYPE2>:
 80045cc:	08003301 	stmdaeq	r0, {r0, r8, r9, ip, sp}
 80045d0:	080045c0 	stmdaeq	r0, {r6, r7, r8, sl, lr}
 80045d4:	08003459 	stmdaeq	r0, {r0, r3, r4, r6, sl, ip, sp}
 80045d8:	080030bb 	stmdaeq	r0, {r0, r1, r3, r4, r5, r7, ip, sp}
 80045dc:	080045a8 	stmdaeq	r0, {r3, r5, r7, r8, sl, lr}

080045e0 <_CR>:
 80045e0:	00524302 	subseq	r4, r2, r2, lsl #6

080045e4 <CR>:
 80045e4:	4750      	bx	sl
 80045e6:	bf00      	nop
 80045e8:	080032df 	stmdaeq	r0, {r0, r1, r2, r3, r4, r6, r7, r9, ip, sp}
 80045ec:	0000000d 	andeq	r0, r0, sp
 80045f0:	0800317d 	stmdaeq	r0, {r0, r2, r3, r4, r5, r6, r8, ip, sp}
 80045f4:	080032df 	stmdaeq	r0, {r0, r1, r2, r3, r4, r6, r7, r9, ip, sp}
 80045f8:	0000000a 	andeq	r0, r0, sl
 80045fc:	0800317d 	stmdaeq	r0, {r0, r2, r3, r4, r5, r6, r8, ip, sp}
 8004600:	080030bb 	stmdaeq	r0, {r0, r1, r3, r4, r5, r7, ip, sp}

08004604 <DOSTR>:
 8004604:	4750      	bx	sl
 8004606:	bf00      	nop
 8004608:	080033a1 	stmdaeq	r0, {r0, r5, r7, r8, r9, ip, sp}
 800460c:	080033a1 	stmdaeq	r0, {r0, r5, r7, r8, r9, ip, sp}
 8004610:	08003469 	stmdaeq	r0, {r0, r3, r5, r6, sl, ip, sp}
 8004614:	08003909 	stmdaeq	r0, {r0, r3, r8, fp, ip, sp}
 8004618:	08003569 	stmdaeq	r0, {r0, r3, r5, r6, r8, sl, ip, sp}
 800461c:	08003ee1 	stmdaeq	r0, {r0, r5, r6, r7, r9, sl, fp, ip, sp}
 8004620:	080033e5 	stmdaeq	r0, {r0, r2, r5, r6, r7, r8, r9, ip, sp}
 8004624:	08003479 	stmdaeq	r0, {r0, r3, r4, r5, r6, sl, ip, sp}
 8004628:	080033e5 	stmdaeq	r0, {r0, r2, r5, r6, r7, r8, r9, ip, sp}
 800462c:	08003909 	stmdaeq	r0, {r0, r3, r8, fp, ip, sp}
 8004630:	080030bb 	stmdaeq	r0, {r0, r1, r3, r4, r5, r7, ip, sp}

08004634 <STRQP>:
 8004634:	4750      	bx	sl
 8004636:	bf00      	nop
 8004638:	08004605 	stmdaeq	r0, {r0, r2, r9, sl, lr}
 800463c:	080030bb 	stmdaeq	r0, {r0, r1, r3, r4, r5, r7, ip, sp}

08004640 <DOTQP>:
 8004640:	4750      	bx	sl
 8004642:	bf00      	nop
 8004644:	08004605 	stmdaeq	r0, {r0, r2, r9, sl, lr}
 8004648:	080045b1 	stmdaeq	r0, {r0, r4, r5, r7, r8, sl, lr}
 800464c:	080030bb 	stmdaeq	r0, {r0, r1, r3, r4, r5, r7, ip, sp}

08004650 <LPAD>:
 8004650:	4750      	bx	sl
 8004652:	bf00      	nop
 8004654:	080039ed 	stmdaeq	r0, {r0, r2, r3, r5, r6, r7, r8, fp, ip, sp}
 8004658:	08003375 	stmdaeq	r0, {r0, r2, r4, r5, r6, r8, r9, ip, sp}
 800465c:	0800331f 	stmdaeq	r0, {r0, r1, r2, r3, r4, r8, r9, ip, sp}
 8004660:	080046c8 	stmdaeq	r0, {r3, r6, r7, r9, sl, lr}
 8004664:	080039d5 	stmdaeq	r0, {r0, r2, r4, r6, r7, r8, fp, ip, sp}
 8004668:	08003375 	stmdaeq	r0, {r0, r2, r4, r5, r6, r8, r9, ip, sp}
 800466c:	08003469 	stmdaeq	r0, {r0, r3, r5, r6, sl, ip, sp}
 8004670:	080032df 	stmdaeq	r0, {r0, r1, r2, r3, r4, r6, r7, r9, ip, sp}
 8004674:	00000010 	andeq	r0, r0, r0, lsl r0
 8004678:	080037f5 	stmdaeq	r0, {r0, r2, r4, r5, r6, r7, r8, r9, sl, ip, sp}
 800467c:	0800331f 	stmdaeq	r0, {r0, r1, r2, r3, r4, r8, r9, ip, sp}
 8004680:	080046a4 	stmdaeq	r0, {r2, r5, r7, r9, sl, lr}
 8004684:	08003459 	stmdaeq	r0, {r0, r3, r4, r6, sl, ip, sp}
 8004688:	080032df 	stmdaeq	r0, {r0, r1, r2, r3, r4, r6, r7, r9, ip, sp}
 800468c:	00000024 	andeq	r0, r0, r4, lsr #32
 8004690:	08003479 	stmdaeq	r0, {r0, r3, r4, r5, r6, sl, ip, sp}
 8004694:	080035d5 	stmdaeq	r0, {r0, r2, r4, r6, r7, r8, sl, ip, sp}
 8004698:	08004579 	stmdaeq	r0, {r0, r3, r4, r5, r6, r8, sl, lr}
 800469c:	0800317d 	stmdaeq	r0, {r0, r2, r3, r4, r5, r6, r8, ip, sp}
 80046a0:	080030bb 	stmdaeq	r0, {r0, r1, r3, r4, r5, r7, ip, sp}
 80046a4:	080032df 	stmdaeq	r0, {r0, r1, r2, r3, r4, r6, r7, r9, ip, sp}
 80046a8:	00000002 	andeq	r0, r0, r2
 80046ac:	080037f5 	stmdaeq	r0, {r0, r2, r4, r5, r6, r7, r8, r9, sl, ip, sp}
 80046b0:	0800331f 	stmdaeq	r0, {r0, r1, r2, r3, r4, r8, r9, ip, sp}
 80046b4:	080046c8 	stmdaeq	r0, {r3, r6, r7, r9, sl, lr}
 80046b8:	080032df 	stmdaeq	r0, {r0, r1, r2, r3, r4, r6, r7, r9, ip, sp}
 80046bc:	00000025 	andeq	r0, r0, r5, lsr #32
 80046c0:	08003347 	stmdaeq	r0, {r0, r1, r2, r6, r8, r9, ip, sp}
 80046c4:	08004690 	stmdaeq	r0, {r4, r7, r9, sl, lr}
 80046c8:	08004579 	stmdaeq	r0, {r0, r3, r4, r5, r6, r8, sl, lr}
 80046cc:	080030bb 	stmdaeq	r0, {r0, r1, r3, r4, r5, r7, ip, sp}
 80046d0:	080045e0 	stmdaeq	r0, {r5, r6, r7, r8, sl, lr}

080046d4 <_DOTR>:
 80046d4:	00522e02 	subseq	r2, r2, r2, lsl #28

080046d8 <DOTR>:
 80046d8:	4750      	bx	sl
 80046da:	bf00      	nop
 80046dc:	080033e5 	stmdaeq	r0, {r0, r2, r5, r6, r7, r8, r9, ip, sp}
 80046e0:	08003ce1 	stmdaeq	r0, {r0, r5, r6, r7, sl, fp, ip, sp}
 80046e4:	080047c1 	stmdaeq	r0, {r0, r6, r7, r8, r9, sl, lr}
 80046e8:	080033a1 	stmdaeq	r0, {r0, r5, r7, r8, r9, ip, sp}
 80046ec:	080034a9 	stmdaeq	r0, {r0, r3, r5, r7, sl, ip, sp}
 80046f0:	08003579 	stmdaeq	r0, {r0, r3, r4, r5, r6, r8, sl, ip, sp}
 80046f4:	08004651 	stmdaeq	r0, {r0, r4, r6, r9, sl, lr}
 80046f8:	080045b1 	stmdaeq	r0, {r0, r4, r5, r7, r8, sl, lr}
 80046fc:	080030bb 	stmdaeq	r0, {r0, r1, r3, r4, r5, r7, ip, sp}
 8004700:	080046d4 	stmdaeq	r0, {r2, r4, r6, r7, r9, sl, lr}

08004704 <_UDOTR>:
 8004704:	522e5503 	eorpl	r5, lr, #12582912	; 0xc00000

08004708 <UDOTR>:
 8004708:	4750      	bx	sl
 800470a:	bf00      	nop
 800470c:	080033e5 	stmdaeq	r0, {r0, r2, r5, r6, r7, r8, r9, ip, sp}
 8004710:	080032df 	stmdaeq	r0, {r0, r1, r2, r3, r4, r6, r7, r9, ip, sp}
 8004714:	00000000 	andeq	r0, r0, r0
 8004718:	080047c1 	stmdaeq	r0, {r0, r6, r7, r8, r9, sl, lr}
 800471c:	080033a1 	stmdaeq	r0, {r0, r5, r7, r8, r9, ip, sp}
 8004720:	080034a9 	stmdaeq	r0, {r0, r3, r5, r7, sl, ip, sp}
 8004724:	08003579 	stmdaeq	r0, {r0, r3, r4, r5, r6, r8, sl, ip, sp}
 8004728:	08004651 	stmdaeq	r0, {r0, r4, r6, r9, sl, lr}
 800472c:	080045b1 	stmdaeq	r0, {r0, r4, r5, r7, r8, sl, lr}
 8004730:	080030bb 	stmdaeq	r0, {r0, r1, r3, r4, r5, r7, ip, sp}
 8004734:	08004704 	stmdaeq	r0, {r2, r8, r9, sl, lr}

08004738 <_UDOT>:
 8004738:	002e5502 	eoreq	r5, lr, r2, lsl #10

0800473c <UDOT>:
 800473c:	4750      	bx	sl
 800473e:	bf00      	nop
 8004740:	080032df 	stmdaeq	r0, {r0, r1, r2, r3, r4, r6, r7, r9, ip, sp}
 8004744:	00000000 	andeq	r0, r0, r0
 8004748:	080041a5 	stmdaeq	r0, {r0, r2, r5, r7, r8, lr}
 800474c:	08004211 	stmdaeq	r0, {r0, r4, r9, lr}
 8004750:	0800426d 	stmdaeq	r0, {r0, r2, r3, r5, r6, r9, lr}
 8004754:	080032df 	stmdaeq	r0, {r0, r1, r2, r3, r4, r6, r7, r9, ip, sp}
 8004758:	00000001 	andeq	r0, r0, r1
 800475c:	08004651 	stmdaeq	r0, {r0, r4, r6, r9, sl, lr}
 8004760:	080045b1 	stmdaeq	r0, {r0, r4, r5, r7, r8, sl, lr}
 8004764:	080030bb 	stmdaeq	r0, {r0, r1, r3, r4, r5, r7, ip, sp}
 8004768:	08004738 	stmdaeq	r0, {r3, r4, r5, r8, r9, sl, lr}

0800476c <_DOT>:
 800476c:	bf002e01 	svclt	0x00002e01

08004770 <DOT>:
 8004770:	4750      	bx	sl
 8004772:	bf00      	nop
 8004774:	0800455d 	stmdaeq	r0, {r0, r2, r3, r4, r6, r8, sl, lr}
 8004778:	080039d5 	stmdaeq	r0, {r0, r2, r4, r6, r7, r8, fp, ip, sp}
 800477c:	08003375 	stmdaeq	r0, {r0, r2, r4, r5, r6, r8, r9, ip, sp}
 8004780:	080032df 	stmdaeq	r0, {r0, r1, r2, r3, r4, r6, r7, r9, ip, sp}
 8004784:	0000000a 	andeq	r0, r0, sl
 8004788:	08003511 	stmdaeq	r0, {r0, r4, r8, sl, ip, sp}
 800478c:	0800331f 	stmdaeq	r0, {r0, r1, r2, r3, r4, r8, r9, ip, sp}
 8004790:	0800479c 	stmdaeq	r0, {r2, r3, r4, r7, r8, r9, sl, lr}
 8004794:	0800473d 	stmdaeq	r0, {r0, r2, r3, r4, r5, r8, r9, sl, lr}
 8004798:	080030bb 	stmdaeq	r0, {r0, r1, r3, r4, r5, r7, ip, sp}

0800479c <DOT1>:
 800479c:	08003ce1 	stmdaeq	r0, {r0, r5, r6, r7, sl, fp, ip, sp}
 80047a0:	080047c1 	stmdaeq	r0, {r0, r6, r7, r8, r9, sl, lr}
 80047a4:	080032df 	stmdaeq	r0, {r0, r1, r2, r3, r4, r6, r7, r9, ip, sp}
 80047a8:	00000001 	andeq	r0, r0, r1
 80047ac:	08004651 	stmdaeq	r0, {r0, r4, r6, r9, sl, lr}
 80047b0:	080045b1 	stmdaeq	r0, {r0, r4, r5, r7, r8, sl, lr}
 80047b4:	080030bb 	stmdaeq	r0, {r0, r1, r3, r4, r5, r7, ip, sp}
 80047b8:	0800476c 	stmdaeq	r0, {r2, r3, r5, r6, r8, r9, sl, lr}

080047bc <_DTOA>:
 80047bc:	413e4403 	teqmi	lr, r3, lsl #8

080047c0 <DTOA>:
 80047c0:	4750      	bx	sl
 80047c2:	bf00      	nop
 80047c4:	08003469 	stmdaeq	r0, {r0, r3, r5, r6, sl, ip, sp}
 80047c8:	080033e5 	stmdaeq	r0, {r0, r2, r5, r6, r7, r8, r9, ip, sp}
 80047cc:	08003711 	stmdaeq	r0, {r0, r4, r8, r9, sl, ip, sp}
 80047d0:	080041a5 	stmdaeq	r0, {r0, r2, r5, r7, r8, lr}
 80047d4:	08004211 	stmdaeq	r0, {r0, r4, r9, lr}
 80047d8:	080033a1 	stmdaeq	r0, {r0, r5, r7, r8, r9, ip, sp}
 80047dc:	08004245 	stmdaeq	r0, {r0, r2, r6, r9, lr}
 80047e0:	0800426d 	stmdaeq	r0, {r0, r2, r3, r5, r6, r9, lr}
 80047e4:	080030bb 	stmdaeq	r0, {r0, r1, r3, r4, r5, r7, ip, sp}
 80047e8:	080047bc 	stmdaeq	r0, {r2, r3, r4, r5, r7, r8, r9, sl, lr}

080047ec <_DDOT>:
 80047ec:	002e4402 	eoreq	r4, lr, r2, lsl #8

080047f0 <DDOT>:
 80047f0:	4750      	bx	sl
 80047f2:	bf00      	nop
 80047f4:	0800455d 	stmdaeq	r0, {r0, r2, r3, r4, r6, r8, sl, lr}
 80047f8:	080047c1 	stmdaeq	r0, {r0, r6, r7, r8, r9, sl, lr}
 80047fc:	080032df 	stmdaeq	r0, {r0, r1, r2, r3, r4, r6, r7, r9, ip, sp}
 8004800:	00000001 	andeq	r0, r0, r1
 8004804:	08004651 	stmdaeq	r0, {r0, r4, r6, r9, sl, lr}
 8004808:	080045b1 	stmdaeq	r0, {r0, r4, r5, r7, r8, sl, lr}
 800480c:	080030bb 	stmdaeq	r0, {r0, r1, r3, r4, r5, r7, ip, sp}
 8004810:	080047ec 	stmdaeq	r0, {r2, r3, r5, r6, r7, r8, r9, sl, lr}

08004814 <_UDDOT>:
 8004814:	2e445503 	cdpcs	5, 4, cr5, cr4, cr3, {0}

08004818 <UDDOT>:
 8004818:	4750      	bx	sl
 800481a:	bf00      	nop
 800481c:	0800455d 	stmdaeq	r0, {r0, r2, r3, r4, r6, r8, sl, lr}
 8004820:	080041a5 	stmdaeq	r0, {r0, r2, r5, r7, r8, lr}
 8004824:	08004211 	stmdaeq	r0, {r0, r4, r9, lr}
 8004828:	0800426d 	stmdaeq	r0, {r0, r2, r3, r5, r6, r9, lr}
 800482c:	080032df 	stmdaeq	r0, {r0, r1, r2, r3, r4, r6, r7, r9, ip, sp}
 8004830:	00000001 	andeq	r0, r0, r1
 8004834:	08004651 	stmdaeq	r0, {r0, r4, r6, r9, sl, lr}
 8004838:	080045b1 	stmdaeq	r0, {r0, r4, r5, r7, r8, sl, lr}
 800483c:	080030bb 	stmdaeq	r0, {r0, r1, r3, r4, r5, r7, ip, sp}
 8004840:	08004814 	stmdaeq	r0, {r2, r4, fp, lr}

08004844 <_HDOT>:
 8004844:	002e4802 	eoreq	r4, lr, r2, lsl #16

08004848 <HDOT>:
 8004848:	4750      	bx	sl
 800484a:	bf00      	nop
 800484c:	080039d5 	stmdaeq	r0, {r0, r2, r4, r6, r7, r8, fp, ip, sp}
 8004850:	08003375 	stmdaeq	r0, {r0, r2, r4, r5, r6, r8, r9, ip, sp}
 8004854:	08003479 	stmdaeq	r0, {r0, r3, r4, r5, r6, sl, ip, sp}
 8004858:	080042c1 	stmdaeq	r0, {r0, r6, r7, r9, lr}
 800485c:	080032df 	stmdaeq	r0, {r0, r1, r2, r3, r4, r6, r7, r9, ip, sp}
 8004860:	00000000 	andeq	r0, r0, r0
 8004864:	080041a5 	stmdaeq	r0, {r0, r2, r5, r7, r8, lr}
 8004868:	08004211 	stmdaeq	r0, {r0, r4, r9, lr}
 800486c:	0800426d 	stmdaeq	r0, {r0, r2, r3, r5, r6, r9, lr}
 8004870:	0800455d 	stmdaeq	r0, {r0, r2, r3, r4, r6, r8, sl, lr}
 8004874:	080032df 	stmdaeq	r0, {r0, r1, r2, r3, r4, r6, r7, r9, ip, sp}
 8004878:	00000024 	andeq	r0, r0, r4, lsr #32
 800487c:	0800317d 	stmdaeq	r0, {r0, r2, r3, r4, r5, r6, r8, ip, sp}
 8004880:	080045b1 	stmdaeq	r0, {r0, r4, r5, r7, r8, sl, lr}
 8004884:	080039d5 	stmdaeq	r0, {r0, r2, r4, r6, r7, r8, fp, ip, sp}
 8004888:	08003361 	stmdaeq	r0, {r0, r5, r6, r8, r9, ip, sp}
 800488c:	080030bb 	stmdaeq	r0, {r0, r1, r3, r4, r5, r7, ip, sp}
 8004890:	08004844 	stmdaeq	r0, {r2, r6, fp, lr}

08004894 <_QUEST>:
 8004894:	bf003f01 	svclt	0x00003f01

08004898 <QUEST>:
 8004898:	4750      	bx	sl
 800489a:	bf00      	nop
 800489c:	08003375 	stmdaeq	r0, {r0, r2, r4, r5, r6, r8, r9, ip, sp}
 80048a0:	08004771 	stmdaeq	r0, {r0, r4, r5, r6, r8, r9, sl, lr}
 80048a4:	080030bb 	stmdaeq	r0, {r0, r1, r3, r4, r5, r7, ip, sp}

080048a8 <PARS>:
 80048a8:	4750      	bx	sl
 80048aa:	bf00      	nop
 80048ac:	080039f9 	stmdaeq	r0, {r0, r3, r4, r5, r6, r7, r8, fp, ip, sp}
 80048b0:	08003361 	stmdaeq	r0, {r0, r5, r6, r8, r9, ip, sp}
 80048b4:	080034a9 	stmdaeq	r0, {r0, r3, r5, r7, sl, ip, sp}
 80048b8:	080033e5 	stmdaeq	r0, {r0, r2, r5, r6, r7, r8, r9, ip, sp}
 80048bc:	08003469 	stmdaeq	r0, {r0, r3, r5, r6, sl, ip, sp}
 80048c0:	0800331f 	stmdaeq	r0, {r0, r1, r2, r3, r4, r8, r9, ip, sp}
 80048c4:	080049bc 	stmdaeq	r0, {r2, r3, r4, r5, r7, r8, fp, lr}
 80048c8:	080035d5 	stmdaeq	r0, {r0, r2, r4, r6, r7, r8, sl, ip, sp}
 80048cc:	080039f9 	stmdaeq	r0, {r0, r3, r4, r5, r6, r7, r8, fp, ip, sp}
 80048d0:	08003375 	stmdaeq	r0, {r0, r2, r4, r5, r6, r8, r9, ip, sp}
 80048d4:	08003625 	stmdaeq	r0, {r0, r2, r5, r9, sl, ip, sp}
 80048d8:	080037f5 	stmdaeq	r0, {r0, r2, r4, r5, r6, r7, r8, r9, sl, ip, sp}
 80048dc:	0800331f 	stmdaeq	r0, {r0, r1, r2, r3, r4, r8, r9, ip, sp}
 80048e0:	08004930 	stmdaeq	r0, {r4, r5, r8, fp, lr}
 80048e4:	080033e5 	stmdaeq	r0, {r0, r2, r5, r6, r7, r8, r9, ip, sp}

080048e8 <PARS1>:
 80048e8:	08003625 	stmdaeq	r0, {r0, r2, r5, r9, sl, ip, sp}
 80048ec:	080034a9 	stmdaeq	r0, {r0, r3, r5, r7, sl, ip, sp}
 80048f0:	08003395 	stmdaeq	r0, {r0, r2, r4, r7, r8, r9, ip, sp}
 80048f4:	08003579 	stmdaeq	r0, {r0, r3, r4, r5, r6, r8, sl, ip, sp}
 80048f8:	080034d9 	stmdaeq	r0, {r0, r3, r4, r6, r7, sl, ip, sp}
 80048fc:	08003779 	stmdaeq	r0, {r0, r3, r4, r5, r6, r8, r9, sl, ip, sp}
 8004900:	0800331f 	stmdaeq	r0, {r0, r1, r2, r3, r4, r8, r9, ip, sp}
 8004904:	0800492c 	stmdaeq	r0, {r2, r3, r5, r8, fp, lr}
 8004908:	080035c5 	stmdaeq	r0, {r0, r2, r6, r7, r8, sl, ip, sp}
 800490c:	08003301 	stmdaeq	r0, {r0, r8, r9, ip, sp}
 8004910:	080048e8 	stmdaeq	r0, {r3, r5, r6, r7, fp, lr}
 8004914:	080033a1 	stmdaeq	r0, {r0, r5, r7, r8, r9, ip, sp}
 8004918:	08003459 	stmdaeq	r0, {r0, r3, r4, r6, sl, ip, sp}
 800491c:	080032df 	stmdaeq	r0, {r0, r1, r2, r3, r4, r6, r7, r9, ip, sp}
 8004920:	00000000 	andeq	r0, r0, r0
 8004924:	08003469 	stmdaeq	r0, {r0, r3, r5, r6, sl, ip, sp}
 8004928:	080030bb 	stmdaeq	r0, {r0, r1, r3, r4, r5, r7, ip, sp}

0800492c <PARS2>:
 800492c:	080033a1 	stmdaeq	r0, {r0, r5, r7, r8, r9, ip, sp}

08004930 <PARS3>:
 8004930:	080034a9 	stmdaeq	r0, {r0, r3, r5, r7, sl, ip, sp}
 8004934:	08003479 	stmdaeq	r0, {r0, r3, r4, r5, r6, sl, ip, sp}
 8004938:	080033e5 	stmdaeq	r0, {r0, r2, r5, r6, r7, r8, r9, ip, sp}

0800493c <PARS4>:
 800493c:	080039f9 	stmdaeq	r0, {r0, r3, r4, r5, r6, r7, r8, fp, ip, sp}
 8004940:	08003375 	stmdaeq	r0, {r0, r2, r4, r5, r6, r8, r9, ip, sp}
 8004944:	080034a9 	stmdaeq	r0, {r0, r3, r5, r7, sl, ip, sp}
 8004948:	08003395 	stmdaeq	r0, {r0, r2, r4, r7, r8, r9, ip, sp}
 800494c:	08003579 	stmdaeq	r0, {r0, r3, r4, r5, r6, r8, sl, ip, sp}
 8004950:	080039f9 	stmdaeq	r0, {r0, r3, r4, r5, r6, r7, r8, fp, ip, sp}
 8004954:	08003375 	stmdaeq	r0, {r0, r2, r4, r5, r6, r8, r9, ip, sp}
 8004958:	08003625 	stmdaeq	r0, {r0, r2, r5, r9, sl, ip, sp}
 800495c:	080037f5 	stmdaeq	r0, {r0, r2, r4, r5, r6, r7, r8, r9, sl, ip, sp}
 8004960:	0800331f 	stmdaeq	r0, {r0, r1, r2, r3, r4, r8, r9, ip, sp}
 8004964:	0800496c 	stmdaeq	r0, {r2, r3, r5, r6, r8, fp, lr}
 8004968:	080034d9 	stmdaeq	r0, {r0, r3, r4, r6, r7, sl, ip, sp}

0800496c <PARS5>:
 800496c:	0800331f 	stmdaeq	r0, {r0, r1, r2, r3, r4, r8, r9, ip, sp}
 8004970:	08004990 	stmdaeq	r0, {r4, r7, r8, fp, lr}
 8004974:	080035c5 	stmdaeq	r0, {r0, r2, r6, r7, r8, sl, ip, sp}
 8004978:	08003301 	stmdaeq	r0, {r0, r8, r9, ip, sp}
 800497c:	0800493c 	stmdaeq	r0, {r2, r3, r4, r5, r8, fp, lr}
 8004980:	08003469 	stmdaeq	r0, {r0, r3, r5, r6, sl, ip, sp}
 8004984:	080033e5 	stmdaeq	r0, {r0, r2, r5, r6, r7, r8, r9, ip, sp}
 8004988:	08003347 	stmdaeq	r0, {r0, r1, r2, r6, r8, r9, ip, sp}
 800498c:	080049a4 	stmdaeq	r0, {r2, r5, r7, r8, fp, lr}

08004990 <PARS6>:
 8004990:	080033a1 	stmdaeq	r0, {r0, r5, r7, r8, r9, ip, sp}
 8004994:	08003459 	stmdaeq	r0, {r0, r3, r4, r6, sl, ip, sp}
 8004998:	08003469 	stmdaeq	r0, {r0, r3, r5, r6, sl, ip, sp}
 800499c:	080035c5 	stmdaeq	r0, {r0, r2, r6, r7, r8, sl, ip, sp}
 80049a0:	080033e5 	stmdaeq	r0, {r0, r2, r5, r6, r7, r8, r9, ip, sp}

080049a4 <PARS7>:
 80049a4:	080034a9 	stmdaeq	r0, {r0, r3, r5, r7, sl, ip, sp}
 80049a8:	08003579 	stmdaeq	r0, {r0, r3, r4, r5, r6, r8, sl, ip, sp}
 80049ac:	080033a1 	stmdaeq	r0, {r0, r5, r7, r8, r9, ip, sp}
 80049b0:	080033a1 	stmdaeq	r0, {r0, r5, r7, r8, r9, ip, sp}
 80049b4:	08003579 	stmdaeq	r0, {r0, r3, r4, r5, r6, r8, sl, ip, sp}
 80049b8:	080030bb 	stmdaeq	r0, {r0, r1, r3, r4, r5, r7, ip, sp}

080049bc <PARS8>:
 80049bc:	080034a9 	stmdaeq	r0, {r0, r3, r5, r7, sl, ip, sp}
 80049c0:	080033a1 	stmdaeq	r0, {r0, r5, r7, r8, r9, ip, sp}
 80049c4:	08003579 	stmdaeq	r0, {r0, r3, r4, r5, r6, r8, sl, ip, sp}
 80049c8:	080030bb 	stmdaeq	r0, {r0, r1, r3, r4, r5, r7, ip, sp}
 80049cc:	08004894 	stmdaeq	r0, {r2, r4, r7, fp, lr}

080049d0 <_PARSE>:
 80049d0:	52415005 	subpl	r5, r1, #5
 80049d4:	bf004553 	svclt	0x00004553

080049d8 <PARSE>:
 80049d8:	4750      	bx	sl
 80049da:	bf00      	nop
 80049dc:	080033e5 	stmdaeq	r0, {r0, r2, r5, r6, r7, r8, r9, ip, sp}
 80049e0:	08003fd9 	stmdaeq	r0, {r0, r3, r4, r6, r7, r8, r9, sl, fp, ip, sp}
 80049e4:	08003a25 	stmdaeq	r0, {r0, r2, r5, r9, fp, ip, sp}
 80049e8:	08003375 	stmdaeq	r0, {r0, r2, r4, r5, r6, r8, r9, ip, sp}
 80049ec:	08003569 	stmdaeq	r0, {r0, r3, r5, r6, r8, sl, ip, sp}
 80049f0:	08003a3d 	stmdaeq	r0, {r0, r2, r3, r4, r5, r9, fp, ip, sp}
 80049f4:	08003375 	stmdaeq	r0, {r0, r2, r4, r5, r6, r8, r9, ip, sp}
 80049f8:	08003a25 	stmdaeq	r0, {r0, r2, r5, r9, fp, ip, sp}
 80049fc:	08003375 	stmdaeq	r0, {r0, r2, r4, r5, r6, r8, r9, ip, sp}
 8004a00:	08003579 	stmdaeq	r0, {r0, r3, r4, r5, r6, r8, sl, ip, sp}
 8004a04:	080033a1 	stmdaeq	r0, {r0, r5, r7, r8, r9, ip, sp}
 8004a08:	080048a9 	stmdaeq	r0, {r0, r3, r5, r7, fp, lr}
 8004a0c:	08003a25 	stmdaeq	r0, {r0, r2, r5, r9, fp, ip, sp}
 8004a10:	080038b5 	stmdaeq	r0, {r0, r2, r4, r5, r7, fp, ip, sp}
 8004a14:	080030bb 	stmdaeq	r0, {r0, r1, r3, r4, r5, r7, ip, sp}
 8004a18:	080049d0 	stmdaeq	r0, {r4, r6, r7, r8, fp, lr}

08004a1c <_DOTPR>:
 8004a1c:	00282e02 	eoreq	r2, r8, r2, lsl #28

08004a20 <DOTPR>:
 8004a20:	4750      	bx	sl
 8004a22:	bf00      	nop
 8004a24:	080032df 	stmdaeq	r0, {r0, r1, r2, r3, r4, r6, r7, r9, ip, sp}
 8004a28:	00000029 	andeq	r0, r0, r9, lsr #32
 8004a2c:	080049d9 	stmdaeq	r0, {r0, r3, r4, r6, r7, r8, fp, lr}
 8004a30:	080045b1 	stmdaeq	r0, {r0, r4, r5, r7, r8, sl, lr}
 8004a34:	080030bb 	stmdaeq	r0, {r0, r1, r3, r4, r5, r7, ip, sp}
 8004a38:	08004a1c 	stmdaeq	r0, {r2, r3, r4, r9, fp, lr}

08004a3c <_PAREN>:
 8004a3c:	bf002881 	svclt	0x00002881

08004a40 <PAREN>:
 8004a40:	4750      	bx	sl
 8004a42:	bf00      	nop
 8004a44:	080032df 	stmdaeq	r0, {r0, r1, r2, r3, r4, r6, r7, r9, ip, sp}
 8004a48:	00000029 	andeq	r0, r0, r9, lsr #32
 8004a4c:	080049d9 	stmdaeq	r0, {r0, r3, r4, r6, r7, r8, fp, lr}
 8004a50:	080036b5 	stmdaeq	r0, {r0, r2, r4, r5, r7, r9, sl, ip, sp}
 8004a54:	080030bb 	stmdaeq	r0, {r0, r1, r3, r4, r5, r7, ip, sp}
 8004a58:	08004a3c 	stmdaeq	r0, {r2, r3, r4, r5, r9, fp, lr}

08004a5c <_BKSLA>:
 8004a5c:	bf005c81 	svclt	0x00005c81

08004a60 <BKSLA>:
 8004a60:	4750      	bx	sl
 8004a62:	bf00      	nop
 8004a64:	08003a3d 	stmdaeq	r0, {r0, r2, r3, r4, r5, r9, fp, ip, sp}
 8004a68:	08003375 	stmdaeq	r0, {r0, r2, r4, r5, r6, r8, r9, ip, sp}
 8004a6c:	08003a25 	stmdaeq	r0, {r0, r2, r5, r9, fp, ip, sp}
 8004a70:	08003361 	stmdaeq	r0, {r0, r5, r6, r8, r9, ip, sp}
 8004a74:	080030bb 	stmdaeq	r0, {r0, r1, r3, r4, r5, r7, ip, sp}
 8004a78:	08004a5c 	stmdaeq	r0, {r2, r3, r4, r6, r9, fp, lr}

08004a7c <_CHAR>:
 8004a7c:	41484304 	cmpmi	r8, r4, lsl #6
 8004a80:	bf000052 	svclt	0x00000052

08004a84 <CHAR>:
 8004a84:	4750      	bx	sl
 8004a86:	bf00      	nop
 8004a88:	08003625 	stmdaeq	r0, {r0, r2, r5, r9, sl, ip, sp}
 8004a8c:	080049d9 	stmdaeq	r0, {r0, r3, r4, r6, r7, r8, fp, lr}
 8004a90:	08003459 	stmdaeq	r0, {r0, r3, r4, r6, sl, ip, sp}
 8004a94:	08003395 	stmdaeq	r0, {r0, r2, r4, r7, r8, r9, ip, sp}
 8004a98:	080030bb 	stmdaeq	r0, {r0, r1, r3, r4, r5, r7, ip, sp}
 8004a9c:	08004a7c 	stmdaeq	r0, {r2, r3, r4, r5, r6, r9, fp, lr}

08004aa0 <_IMCHAR>:
 8004aa0:	48435bc6 	stmdami	r3, {r1, r2, r6, r7, r8, r9, fp, ip, lr}^
 8004aa4:	005d5241 	subseq	r5, sp, r1, asr #4

08004aa8 <IMCHAR>:
 8004aa8:	4750      	bx	sl
 8004aaa:	bf00      	nop
 8004aac:	08004a85 	stmdaeq	r0, {r0, r2, r7, r9, fp, lr}
 8004ab0:	08005345 	stmdaeq	r0, {r0, r2, r6, r8, r9, ip, lr}
 8004ab4:	080030bb 	stmdaeq	r0, {r0, r1, r3, r4, r5, r7, ip, sp}
 8004ab8:	08004aa0 	stmdaeq	r0, {r5, r7, r9, fp, lr}

08004abc <_WORDD>:
 8004abc:	524f5704 	subpl	r5, pc, #4, 14	; 0x100000
 8004ac0:	bf000044 	svclt	0x00000044

08004ac4 <WORDD>:
 8004ac4:	4750      	bx	sl
 8004ac6:	bf00      	nop
 8004ac8:	080049d9 	stmdaeq	r0, {r0, r3, r4, r6, r7, r8, fp, lr}
 8004acc:	08003fa1 	stmdaeq	r0, {r0, r5, r7, r8, r9, sl, fp, ip, sp}
 8004ad0:	08003605 	stmdaeq	r0, {r0, r2, r9, sl, ip, sp}
 8004ad4:	080040e5 	stmdaeq	r0, {r0, r2, r5, r6, r7, lr}
 8004ad8:	080030bb 	stmdaeq	r0, {r0, r1, r3, r4, r5, r7, ip, sp}
 8004adc:	08004abc 	stmdaeq	r0, {r2, r3, r4, r5, r7, r9, fp, lr}

08004ae0 <_TOKEN>:
 8004ae0:	4b4f5405 	blmi	93d9afc <OPTKEY1+0x12470c1>
 8004ae4:	bf004e45 	svclt	0x00004e45

08004ae8 <TOKEN>:
 8004ae8:	4750      	bx	sl
 8004aea:	bf00      	nop
 8004aec:	08003625 	stmdaeq	r0, {r0, r2, r5, r9, sl, ip, sp}
 8004af0:	08004ac5 	stmdaeq	r0, {r0, r2, r6, r7, r9, fp, lr}
 8004af4:	08004cdd 	stmdaeq	r0, {r0, r2, r3, r4, r6, r7, sl, fp, lr}
 8004af8:	080030bb 	stmdaeq	r0, {r0, r1, r3, r4, r5, r7, ip, sp}
 8004afc:	08004ae0 	stmdaeq	r0, {r5, r6, r7, r9, fp, lr}

08004b00 <_NAMET>:
 8004b00:	4d414e05 	stclmi	14, cr4, [r1, #-20]	; 0xffffffec
 8004b04:	bf003e45 	svclt	0x00003e45

08004b08 <NAMET>:
 8004b08:	4750      	bx	sl
 8004b0a:	bf00      	nop
 8004b0c:	08003909 	stmdaeq	r0, {r0, r3, r8, fp, ip, sp}
 8004b10:	080032df 	stmdaeq	r0, {r0, r1, r2, r3, r4, r6, r7, r9, ip, sp}
 8004b14:	0000001f 	andeq	r0, r0, pc, lsl r0
 8004b18:	080034e9 	stmdaeq	r0, {r0, r3, r5, r6, r7, sl, ip, sp}
 8004b1c:	08003569 	stmdaeq	r0, {r0, r3, r5, r6, r8, sl, ip, sp}
 8004b20:	08003ee1 	stmdaeq	r0, {r0, r5, r6, r7, r9, sl, fp, ip, sp}
 8004b24:	080030bb 	stmdaeq	r0, {r0, r1, r3, r4, r5, r7, ip, sp}
 8004b28:	08004b00 	stmdaeq	r0, {r8, r9, fp, lr}

08004b2c <_SAMEQ>:
 8004b2c:	4d415305 	stclmi	3, cr5, [r1, #-20]	; 0xffffffec
 8004b30:	bf003f45 	svclt	0x00003f45

08004b34 <SAMEQ>:
 8004b34:	4750      	bx	sl
 8004b36:	bf00      	nop
 8004b38:	080033e5 	stmdaeq	r0, {r0, r2, r5, r6, r7, r8, r9, ip, sp}
 8004b3c:	08003347 	stmdaeq	r0, {r0, r1, r2, r6, r8, r9, ip, sp}
 8004b40:	08004b80 	stmdaeq	r0, {r7, r8, r9, fp, lr}

08004b44 <SAME1>:
 8004b44:	080034a9 	stmdaeq	r0, {r0, r3, r5, r7, sl, ip, sp}
 8004b48:	080033d1 	stmdaeq	r0, {r0, r4, r6, r7, r8, r9, ip, sp}
 8004b4c:	08003569 	stmdaeq	r0, {r0, r3, r5, r6, r8, sl, ip, sp}
 8004b50:	08003395 	stmdaeq	r0, {r0, r2, r4, r7, r8, r9, ip, sp}
 8004b54:	080034a9 	stmdaeq	r0, {r0, r3, r5, r7, sl, ip, sp}
 8004b58:	080033d1 	stmdaeq	r0, {r0, r4, r6, r7, r8, r9, ip, sp}
 8004b5c:	08003569 	stmdaeq	r0, {r0, r3, r5, r6, r8, sl, ip, sp}
 8004b60:	08003395 	stmdaeq	r0, {r0, r2, r4, r7, r8, r9, ip, sp}
 8004b64:	08003579 	stmdaeq	r0, {r0, r3, r4, r5, r6, r8, sl, ip, sp}
 8004b68:	08003679 	stmdaeq	r0, {r0, r3, r4, r5, r6, r9, sl, ip, sp}
 8004b6c:	0800331f 	stmdaeq	r0, {r0, r1, r2, r3, r4, r8, r9, ip, sp}
 8004b70:	08004b80 	stmdaeq	r0, {r7, r8, r9, fp, lr}
 8004b74:	080033a1 	stmdaeq	r0, {r0, r5, r7, r8, r9, ip, sp}
 8004b78:	08003459 	stmdaeq	r0, {r0, r3, r4, r6, sl, ip, sp}
 8004b7c:	080030bb 	stmdaeq	r0, {r0, r1, r3, r4, r5, r7, ip, sp}

08004b80 <SAME2>:
 8004b80:	08003301 	stmdaeq	r0, {r0, r8, r9, ip, sp}
 8004b84:	08004b44 	stmdaeq	r0, {r2, r6, r8, r9, fp, lr}
 8004b88:	080032df 	stmdaeq	r0, {r0, r1, r2, r3, r4, r6, r7, r9, ip, sp}
 8004b8c:	00000000 	andeq	r0, r0, r0
 8004b90:	080030bb 	stmdaeq	r0, {r0, r1, r3, r4, r5, r7, ip, sp}

08004b94 <SEARCH>:
 8004b94:	4750      	bx	sl
 8004b96:	bf00      	nop
 8004b98:	08003479 	stmdaeq	r0, {r0, r3, r4, r5, r6, sl, ip, sp}
 8004b9c:	08003909 	stmdaeq	r0, {r0, r3, r8, fp, ip, sp}
 8004ba0:	08003469 	stmdaeq	r0, {r0, r3, r5, r6, sl, ip, sp}
 8004ba4:	080039f9 	stmdaeq	r0, {r0, r3, r4, r5, r6, r7, r8, fp, ip, sp}
 8004ba8:	08003361 	stmdaeq	r0, {r0, r5, r6, r8, r9, ip, sp}
 8004bac:	080033e5 	stmdaeq	r0, {r0, r2, r5, r6, r7, r8, r9, ip, sp}
 8004bb0:	08003479 	stmdaeq	r0, {r0, r3, r4, r5, r6, sl, ip, sp}

08004bb4 <SEARCH1>:
 8004bb4:	08003469 	stmdaeq	r0, {r0, r3, r5, r6, sl, ip, sp}
 8004bb8:	0800331f 	stmdaeq	r0, {r0, r1, r2, r3, r4, r8, r9, ip, sp}
 8004bbc:	08004c0c 	stmdaeq	r0, {r2, r3, sl, fp, lr}
 8004bc0:	08003469 	stmdaeq	r0, {r0, r3, r5, r6, sl, ip, sp}
 8004bc4:	08003395 	stmdaeq	r0, {r0, r2, r4, r7, r8, r9, ip, sp}
 8004bc8:	080032df 	stmdaeq	r0, {r0, r1, r2, r3, r4, r6, r7, r9, ip, sp}
 8004bcc:	ffffff1f 			; <UNDEFINED> instruction: 0xffffff1f
 8004bd0:	080034e9 	stmdaeq	r0, {r0, r3, r5, r6, r7, sl, ip, sp}
 8004bd4:	080033d1 	stmdaeq	r0, {r0, r4, r6, r7, r8, r9, ip, sp}
 8004bd8:	08003511 	stmdaeq	r0, {r0, r4, r8, sl, ip, sp}
 8004bdc:	0800331f 	stmdaeq	r0, {r0, r1, r2, r3, r4, r8, r9, ip, sp}
 8004be0:	08004bf4 	stmdaeq	r0, {r2, r4, r5, r6, r7, r8, r9, fp, lr}
 8004be4:	08003615 	stmdaeq	r0, {r0, r2, r4, r9, sl, ip, sp}
 8004be8:	08003375 	stmdaeq	r0, {r0, r2, r4, r5, r6, r8, r9, ip, sp}
 8004bec:	08003347 	stmdaeq	r0, {r0, r1, r2, r6, r8, r9, ip, sp}
 8004bf0:	08004bb4 	stmdaeq	r0, {r2, r4, r5, r7, r8, r9, fp, lr}

08004bf4 <SEARCH2>:
 8004bf4:	080035c5 	stmdaeq	r0, {r0, r2, r6, r7, r8, sl, ip, sp}
 8004bf8:	080039f9 	stmdaeq	r0, {r0, r3, r4, r5, r6, r7, r8, fp, ip, sp}
 8004bfc:	08003375 	stmdaeq	r0, {r0, r2, r4, r5, r6, r8, r9, ip, sp}
 8004c00:	08004b35 	stmdaeq	r0, {r0, r2, r4, r5, r8, r9, fp, lr}

08004c04 <SEARCH3>:
 8004c04:	08003347 	stmdaeq	r0, {r0, r1, r2, r6, r8, r9, ip, sp}
 8004c08:	08004c24 	stmdaeq	r0, {r2, r5, sl, fp, lr}

08004c0c <SEARCH6>:
 8004c0c:	080033a1 	stmdaeq	r0, {r0, r5, r7, r8, r9, ip, sp}
 8004c10:	08003459 	stmdaeq	r0, {r0, r3, r4, r6, sl, ip, sp}
 8004c14:	08003479 	stmdaeq	r0, {r0, r3, r4, r5, r6, sl, ip, sp}
 8004c18:	080035d5 	stmdaeq	r0, {r0, r2, r4, r6, r7, r8, sl, ip, sp}
 8004c1c:	08003479 	stmdaeq	r0, {r0, r3, r4, r5, r6, sl, ip, sp}
 8004c20:	080030bb 	stmdaeq	r0, {r0, r1, r3, r4, r5, r7, ip, sp}

08004c24 <SEARCH4>:
 8004c24:	0800331f 	stmdaeq	r0, {r0, r1, r2, r3, r4, r8, r9, ip, sp}
 8004c28:	08004c40 	stmdaeq	r0, {r6, sl, fp, lr}
 8004c2c:	080035d5 	stmdaeq	r0, {r0, r2, r4, r6, r7, r8, sl, ip, sp}
 8004c30:	08003615 	stmdaeq	r0, {r0, r2, r4, r9, sl, ip, sp}
 8004c34:	08003375 	stmdaeq	r0, {r0, r2, r4, r5, r6, r8, r9, ip, sp}
 8004c38:	08003347 	stmdaeq	r0, {r0, r1, r2, r6, r8, r9, ip, sp}
 8004c3c:	08004bb4 	stmdaeq	r0, {r2, r4, r5, r7, r8, r9, fp, lr}

08004c40 <SEARCH5>:
 8004c40:	080033a1 	stmdaeq	r0, {r0, r5, r7, r8, r9, ip, sp}
 8004c44:	08003459 	stmdaeq	r0, {r0, r3, r4, r6, sl, ip, sp}
 8004c48:	08003479 	stmdaeq	r0, {r0, r3, r4, r5, r6, sl, ip, sp}
 8004c4c:	08003459 	stmdaeq	r0, {r0, r3, r4, r6, sl, ip, sp}
 8004c50:	080035d5 	stmdaeq	r0, {r0, r2, r4, r6, r7, r8, sl, ip, sp}
 8004c54:	08003469 	stmdaeq	r0, {r0, r3, r5, r6, sl, ip, sp}
 8004c58:	08004b09 	stmdaeq	r0, {r0, r3, r8, r9, fp, lr}
 8004c5c:	08003479 	stmdaeq	r0, {r0, r3, r4, r5, r6, sl, ip, sp}
 8004c60:	080030bb 	stmdaeq	r0, {r0, r1, r3, r4, r5, r7, ip, sp}
 8004c64:	08004b2c 	stmdaeq	r0, {r2, r3, r5, r8, r9, fp, lr}

08004c68 <_NAMEQ>:
 8004c68:	4d414e05 	stclmi	14, cr4, [r1, #-20]	; 0xffffffec
 8004c6c:	bf003f45 	svclt	0x00003f45

08004c70 <NAMEQ>:
 8004c70:	4750      	bx	sl
 8004c72:	bf00      	nop
 8004c74:	08003a81 	stmdaeq	r0, {r0, r7, r9, fp, ip, sp}
 8004c78:	08003375 	stmdaeq	r0, {r0, r2, r4, r5, r6, r8, r9, ip, sp}
 8004c7c:	08004b95 	stmdaeq	r0, {r0, r2, r4, r7, r8, r9, fp, lr}
 8004c80:	080030bb 	stmdaeq	r0, {r0, r1, r3, r4, r5, r7, ip, sp}
 8004c84:	08004c68 	stmdaeq	r0, {r3, r5, r6, sl, fp, lr}

08004c88 <_ASCIZ>:
 8004c88:	43534105 	cmpmi	r3, #1073741825	; 0x40000001
 8004c8c:	bf005a49 	svclt	0x00005a49

08004c90 <ASCIZ>:
 8004c90:	4750      	bx	sl
 8004c92:	bf00      	nop
 8004c94:	08003909 	stmdaeq	r0, {r0, r3, r8, fp, ip, sp}
 8004c98:	08003469 	stmdaeq	r0, {r0, r3, r5, r6, sl, ip, sp}
 8004c9c:	080033e5 	stmdaeq	r0, {r0, r2, r5, r6, r7, r8, r9, ip, sp}
 8004ca0:	08003fb9 	stmdaeq	r0, {r0, r3, r4, r5, r7, r8, r9, sl, fp, ip, sp}
 8004ca4:	08003479 	stmdaeq	r0, {r0, r3, r4, r5, r6, sl, ip, sp}
 8004ca8:	0800407d 	stmdaeq	r0, {r0, r2, r3, r4, r5, r6, lr}
 8004cac:	08003fb9 	stmdaeq	r0, {r0, r3, r4, r5, r7, r8, r9, sl, fp, ip, sp}
 8004cb0:	080033a1 	stmdaeq	r0, {r0, r5, r7, r8, r9, ip, sp}
 8004cb4:	08003569 	stmdaeq	r0, {r0, r3, r5, r6, r8, sl, ip, sp}
 8004cb8:	080032df 	stmdaeq	r0, {r0, r1, r2, r3, r4, r6, r7, r9, ip, sp}
 8004cbc:	00000000 	andeq	r0, r0, r0
 8004cc0:	08003479 	stmdaeq	r0, {r0, r3, r4, r5, r6, sl, ip, sp}
 8004cc4:	08003381 	stmdaeq	r0, {r0, r7, r8, r9, ip, sp}
 8004cc8:	08003fb9 	stmdaeq	r0, {r0, r3, r4, r5, r7, r8, r9, sl, fp, ip, sp}
 8004ccc:	080030bb 	stmdaeq	r0, {r0, r1, r3, r4, r5, r7, ip, sp}
 8004cd0:	08004c88 	stmdaeq	r0, {r3, r7, sl, fp, lr}

08004cd4 <_UPPER>:
 8004cd4:	50505505 	subspl	r5, r0, r5, lsl #10
 8004cd8:	bf005245 	svclt	0x00005245

08004cdc <UPPER>:
 8004cdc:	4750      	bx	sl
 8004cde:	bf00      	nop
 8004ce0:	08003469 	stmdaeq	r0, {r0, r3, r5, r6, sl, ip, sp}
 8004ce4:	080033e5 	stmdaeq	r0, {r0, r2, r5, r6, r7, r8, r9, ip, sp}
 8004ce8:	08003909 	stmdaeq	r0, {r0, r3, r8, fp, ip, sp}
 8004cec:	080032df 	stmdaeq	r0, {r0, r1, r2, r3, r4, r6, r7, r9, ip, sp}
 8004cf0:	0000001f 	andeq	r0, r0, pc, lsl r0
 8004cf4:	080034e9 	stmdaeq	r0, {r0, r3, r5, r6, r7, sl, ip, sp}
 8004cf8:	080033e5 	stmdaeq	r0, {r0, r2, r5, r6, r7, r8, r9, ip, sp}
 8004cfc:	08003347 	stmdaeq	r0, {r0, r1, r2, r6, r8, r9, ip, sp}
 8004d00:	08004d50 	stmdaeq	r0, {r4, r6, r8, sl, fp, lr}
 8004d04:	08003469 	stmdaeq	r0, {r0, r3, r5, r6, sl, ip, sp}
 8004d08:	08003909 	stmdaeq	r0, {r0, r3, r8, fp, ip, sp}
 8004d0c:	08003469 	stmdaeq	r0, {r0, r3, r5, r6, sl, ip, sp}
 8004d10:	080032df 	stmdaeq	r0, {r0, r1, r2, r3, r4, r6, r7, r9, ip, sp}
 8004d14:	00000060 	andeq	r0, r0, r0, rrx
 8004d18:	08003875 	stmdaeq	r0, {r0, r2, r4, r5, r6, fp, ip, sp}
 8004d1c:	0800331f 	stmdaeq	r0, {r0, r1, r2, r3, r4, r8, r9, ip, sp}
 8004d20:	08004d48 	stmdaeq	r0, {r3, r6, r8, sl, fp, lr}
 8004d24:	08003469 	stmdaeq	r0, {r0, r3, r5, r6, sl, ip, sp}
 8004d28:	080032df 	stmdaeq	r0, {r0, r1, r2, r3, r4, r6, r7, r9, ip, sp}
 8004d2c:	0000007b 	andeq	r0, r0, fp, ror r0
 8004d30:	08003845 	stmdaeq	r0, {r0, r2, r6, fp, ip, sp}
 8004d34:	0800331f 	stmdaeq	r0, {r0, r1, r2, r3, r4, r8, r9, ip, sp}
 8004d38:	08004d48 	stmdaeq	r0, {r3, r6, r8, sl, fp, lr}
 8004d3c:	080032df 	stmdaeq	r0, {r0, r1, r2, r3, r4, r6, r7, r9, ip, sp}
 8004d40:	0000005f 	andeq	r0, r0, pc, asr r0
 8004d44:	080034e9 	stmdaeq	r0, {r0, r3, r5, r6, r7, sl, ip, sp}
 8004d48:	0800368d 	stmdaeq	r0, {r0, r2, r3, r7, r9, sl, ip, sp}
 8004d4c:	08003381 	stmdaeq	r0, {r0, r7, r8, r9, ip, sp}
 8004d50:	08003301 	stmdaeq	r0, {r0, r8, r9, ip, sp}
 8004d54:	08004d04 	stmdaeq	r0, {r2, r8, sl, fp, lr}
 8004d58:	08003459 	stmdaeq	r0, {r0, r3, r4, r6, sl, ip, sp}
 8004d5c:	080033a1 	stmdaeq	r0, {r0, r5, r7, r8, r9, ip, sp}
 8004d60:	080030bb 	stmdaeq	r0, {r0, r1, r3, r4, r5, r7, ip, sp}

08004d64 <BKSP>:
 8004d64:	4750      	bx	sl
 8004d66:	bf00      	nop
 8004d68:	080033e5 	stmdaeq	r0, {r0, r2, r5, r6, r7, r8, r9, ip, sp}
 8004d6c:	080034a9 	stmdaeq	r0, {r0, r3, r5, r7, sl, ip, sp}
 8004d70:	080033a1 	stmdaeq	r0, {r0, r5, r7, r8, r9, ip, sp}
 8004d74:	08003479 	stmdaeq	r0, {r0, r3, r4, r5, r6, sl, ip, sp}
 8004d78:	080034a9 	stmdaeq	r0, {r0, r3, r5, r7, sl, ip, sp}
 8004d7c:	08003511 	stmdaeq	r0, {r0, r4, r8, sl, ip, sp}
 8004d80:	0800331f 	stmdaeq	r0, {r0, r1, r2, r3, r4, r8, r9, ip, sp}
 8004d84:	08004dac 	stmdaeq	r0, {r2, r3, r5, r7, r8, sl, fp, lr}
 8004d88:	080032df 	stmdaeq	r0, {r0, r1, r2, r3, r4, r6, r7, r9, ip, sp}
 8004d8c:	00000008 	andeq	r0, r0, r8
 8004d90:	0800317d 	stmdaeq	r0, {r0, r2, r3, r4, r5, r6, r8, ip, sp}
 8004d94:	080035d5 	stmdaeq	r0, {r0, r2, r4, r6, r7, r8, sl, ip, sp}
 8004d98:	08003625 	stmdaeq	r0, {r0, r2, r5, r9, sl, ip, sp}
 8004d9c:	0800317d 	stmdaeq	r0, {r0, r2, r3, r4, r5, r6, r8, ip, sp}
 8004da0:	080032df 	stmdaeq	r0, {r0, r1, r2, r3, r4, r6, r7, r9, ip, sp}
 8004da4:	00000008 	andeq	r0, r0, r8
 8004da8:	0800317d 	stmdaeq	r0, {r0, r2, r3, r4, r5, r6, r8, ip, sp}

08004dac <BACK1>:
 8004dac:	080030bb 	stmdaeq	r0, {r0, r1, r3, r4, r5, r7, ip, sp}

08004db0 <TAP>:
 8004db0:	4750      	bx	sl
 8004db2:	bf00      	nop
 8004db4:	08003469 	stmdaeq	r0, {r0, r3, r5, r6, sl, ip, sp}
 8004db8:	0800317d 	stmdaeq	r0, {r0, r2, r3, r4, r5, r6, r8, ip, sp}
 8004dbc:	080034a9 	stmdaeq	r0, {r0, r3, r5, r7, sl, ip, sp}
 8004dc0:	08003381 	stmdaeq	r0, {r0, r7, r8, r9, ip, sp}
 8004dc4:	080035c5 	stmdaeq	r0, {r0, r2, r6, r7, r8, sl, ip, sp}
 8004dc8:	080030bb 	stmdaeq	r0, {r0, r1, r3, r4, r5, r7, ip, sp}

08004dcc <KTAP>:
 8004dcc:	4750      	bx	sl
 8004dce:	bf00      	nop
 8004dd0:	08003469 	stmdaeq	r0, {r0, r3, r5, r6, sl, ip, sp}
 8004dd4:	080032df 	stmdaeq	r0, {r0, r1, r2, r3, r4, r6, r7, r9, ip, sp}
 8004dd8:	0000000d 	andeq	r0, r0, sp
 8004ddc:	08003511 	stmdaeq	r0, {r0, r4, r8, sl, ip, sp}
 8004de0:	0800331f 	stmdaeq	r0, {r0, r1, r2, r3, r4, r8, r9, ip, sp}
 8004de4:	08004e10 	stmdaeq	r0, {r4, r9, sl, fp, lr}
 8004de8:	080032df 	stmdaeq	r0, {r0, r1, r2, r3, r4, r6, r7, r9, ip, sp}
 8004dec:	00000008 	andeq	r0, r0, r8
 8004df0:	08003511 	stmdaeq	r0, {r0, r4, r8, sl, ip, sp}
 8004df4:	0800331f 	stmdaeq	r0, {r0, r1, r2, r3, r4, r8, r9, ip, sp}
 8004df8:	08004e08 	stmdaeq	r0, {r3, r9, sl, fp, lr}
 8004dfc:	08003625 	stmdaeq	r0, {r0, r2, r5, r9, sl, ip, sp}
 8004e00:	08004db1 	stmdaeq	r0, {r0, r4, r5, r7, r8, sl, fp, lr}
 8004e04:	080030bb 	stmdaeq	r0, {r0, r1, r3, r4, r5, r7, ip, sp}

08004e08 <KTAP1>:
 8004e08:	08004d65 	stmdaeq	r0, {r0, r2, r5, r6, r8, sl, fp, lr}
 8004e0c:	080030bb 	stmdaeq	r0, {r0, r1, r3, r4, r5, r7, ip, sp}

08004e10 <KTAP2>:
 8004e10:	08003459 	stmdaeq	r0, {r0, r3, r4, r6, sl, ip, sp}
 8004e14:	08003479 	stmdaeq	r0, {r0, r3, r4, r5, r6, sl, ip, sp}
 8004e18:	08003459 	stmdaeq	r0, {r0, r3, r4, r6, sl, ip, sp}
 8004e1c:	08003469 	stmdaeq	r0, {r0, r3, r5, r6, sl, ip, sp}
 8004e20:	080030bb 	stmdaeq	r0, {r0, r1, r3, r4, r5, r7, ip, sp}
 8004e24:	08004cd4 	stmdaeq	r0, {r2, r4, r6, r7, sl, fp, lr}

08004e28 <_ACCEP>:
 8004e28:	43434106 	movtmi	r4, #12550	; 0x3106
 8004e2c:	00545045 	subseq	r5, r4, r5, asr #32

08004e30 <ACCEP>:
 8004e30:	4750      	bx	sl
 8004e32:	bf00      	nop
 8004e34:	080034a9 	stmdaeq	r0, {r0, r3, r5, r7, sl, ip, sp}
 8004e38:	08003569 	stmdaeq	r0, {r0, r3, r5, r6, r8, sl, ip, sp}
 8004e3c:	080034a9 	stmdaeq	r0, {r0, r3, r5, r7, sl, ip, sp}

08004e40 <ACCP1>:
 8004e40:	080036dd 	stmdaeq	r0, {r0, r2, r3, r4, r6, r7, r9, sl, ip, sp}
 8004e44:	08003511 	stmdaeq	r0, {r0, r4, r8, sl, ip, sp}
 8004e48:	0800331f 	stmdaeq	r0, {r0, r1, r2, r3, r4, r8, r9, ip, sp}
 8004e4c:	08004e88 	stmdaeq	r0, {r3, r7, r9, sl, fp, lr}
 8004e50:	08003159 	stmdaeq	r0, {r0, r3, r4, r6, r8, ip, sp}
 8004e54:	08003469 	stmdaeq	r0, {r0, r3, r5, r6, sl, ip, sp}
 8004e58:	08003625 	stmdaeq	r0, {r0, r2, r5, r9, sl, ip, sp}
 8004e5c:	080032df 	stmdaeq	r0, {r0, r1, r2, r3, r4, r6, r7, r9, ip, sp}
 8004e60:	0000007f 	andeq	r0, r0, pc, ror r0
 8004e64:	08003b71 	stmdaeq	r0, {r0, r4, r5, r6, r8, r9, fp, ip, sp}
 8004e68:	0800331f 	stmdaeq	r0, {r0, r1, r2, r3, r4, r8, r9, ip, sp}
 8004e6c:	08004e7c 	stmdaeq	r0, {r2, r3, r4, r5, r6, r9, sl, fp, lr}
 8004e70:	08004db1 	stmdaeq	r0, {r0, r4, r5, r7, r8, sl, fp, lr}
 8004e74:	08003347 	stmdaeq	r0, {r0, r1, r2, r6, r8, r9, ip, sp}
 8004e78:	08004e80 	stmdaeq	r0, {r7, r9, sl, fp, lr}

08004e7c <ACCP2>:
 8004e7c:	08004dcd 	stmdaeq	r0, {r0, r2, r3, r6, r7, r8, sl, fp, lr}

08004e80 <ACCP3>:
 8004e80:	08003347 	stmdaeq	r0, {r0, r1, r2, r6, r8, r9, ip, sp}
 8004e84:	08004e40 	stmdaeq	r0, {r6, r9, sl, fp, lr}

08004e88 <ACCP4>:
 8004e88:	08003459 	stmdaeq	r0, {r0, r3, r4, r6, sl, ip, sp}
 8004e8c:	080034a9 	stmdaeq	r0, {r0, r3, r5, r7, sl, ip, sp}
 8004e90:	08003579 	stmdaeq	r0, {r0, r3, r4, r5, r6, r8, sl, ip, sp}
 8004e94:	080030bb 	stmdaeq	r0, {r0, r1, r3, r4, r5, r7, ip, sp}
 8004e98:	08004e28 	stmdaeq	r0, {r3, r5, r9, sl, fp, lr}

08004e9c <_QUERY>:
 8004e9c:	45555105 	ldrbmi	r5, [r5, #-261]	; 0xfffffefb
 8004ea0:	bf005952 	svclt	0x00005952

08004ea4 <QUERY>:
 8004ea4:	4750      	bx	sl
 8004ea6:	bf00      	nop
 8004ea8:	08003fd9 	stmdaeq	r0, {r0, r3, r4, r6, r7, r8, r9, sl, fp, ip, sp}
 8004eac:	080032df 	stmdaeq	r0, {r0, r1, r2, r3, r4, r6, r7, r9, ip, sp}
 8004eb0:	00000050 	andeq	r0, r0, r0, asr r0
 8004eb4:	08004e31 	stmdaeq	r0, {r0, r4, r5, r9, sl, fp, lr}
 8004eb8:	08003a3d 	stmdaeq	r0, {r0, r2, r3, r4, r5, r9, fp, ip, sp}
 8004ebc:	08003361 	stmdaeq	r0, {r0, r5, r6, r8, r9, ip, sp}
 8004ec0:	08003459 	stmdaeq	r0, {r0, r3, r4, r6, sl, ip, sp}
 8004ec4:	080032df 	stmdaeq	r0, {r0, r1, r2, r3, r4, r6, r7, r9, ip, sp}
 8004ec8:	00000000 	andeq	r0, r0, r0
 8004ecc:	08003a25 	stmdaeq	r0, {r0, r2, r5, r9, fp, ip, sp}
 8004ed0:	08003361 	stmdaeq	r0, {r0, r5, r6, r8, r9, ip, sp}
 8004ed4:	080030bb 	stmdaeq	r0, {r0, r1, r3, r4, r5, r7, ip, sp}
 8004ed8:	08004e9c 	stmdaeq	r0, {r2, r3, r4, r7, r9, sl, fp, lr}

08004edc <_ABORT>:
 8004edc:	4f424105 	svcmi	0x00424105
 8004ee0:	bf005452 	svclt	0x00005452

08004ee4 <ABORT>:
 8004ee4:	4750      	bx	sl
 8004ee6:	bf00      	nop

08004ee8 <ABORT1>:
 8004ee8:	08004fc1 	stmdaeq	r0, {r0, r6, r7, r8, r9, sl, fp, lr}
 8004eec:	08005141 	stmdaeq	r0, {r0, r6, r8, ip, lr}
 8004ef0:	08003347 	stmdaeq	r0, {r0, r1, r2, r6, r8, r9, ip, sp}
 8004ef4:	0800517c 	stmdaeq	r0, {r2, r3, r4, r5, r6, r8, ip, lr}

08004ef8 <PRT_ABORT>:
 8004ef8:	4750      	bx	sl
 8004efa:	bf00      	nop
 8004efc:	0800455d 	stmdaeq	r0, {r0, r2, r3, r4, r6, r8, sl, lr}
 8004f00:	08003909 	stmdaeq	r0, {r0, r3, r8, fp, ip, sp}
 8004f04:	080045b1 	stmdaeq	r0, {r0, r4, r5, r7, r8, sl, lr}
 8004f08:	0800455d 	stmdaeq	r0, {r0, r2, r3, r4, r6, r8, sl, lr}
 8004f0c:	080032df 	stmdaeq	r0, {r0, r1, r2, r3, r4, r6, r7, r9, ip, sp}
 8004f10:	0000003f 	andeq	r0, r0, pc, lsr r0
 8004f14:	0800317d 	stmdaeq	r0, {r0, r2, r3, r4, r5, r6, r8, ip, sp}
 8004f18:	080045e5 	stmdaeq	r0, {r0, r2, r5, r6, r7, r8, sl, lr}
 8004f1c:	08003347 	stmdaeq	r0, {r0, r1, r2, r6, r8, r9, ip, sp}
 8004f20:	08004ee8 	stmdaeq	r0, {r3, r5, r6, r7, r9, sl, fp, lr}

08004f24 <ABORQ>:
 8004f24:	4750      	bx	sl
 8004f26:	bf00      	nop
 8004f28:	08004605 	stmdaeq	r0, {r0, r2, r9, sl, lr}
 8004f2c:	0800368d 	stmdaeq	r0, {r0, r2, r3, r7, r9, sl, ip, sp}
 8004f30:	0800331f 	stmdaeq	r0, {r0, r1, r2, r3, r4, r8, r9, ip, sp}
 8004f34:	08004f4c 	stmdaeq	r0, {r2, r3, r6, r8, r9, sl, fp, lr}
 8004f38:	0800455d 	stmdaeq	r0, {r0, r2, r3, r4, r6, r8, sl, lr}
 8004f3c:	080045b1 	stmdaeq	r0, {r0, r4, r5, r7, r8, sl, lr}
 8004f40:	080045e5 	stmdaeq	r0, {r0, r2, r5, r6, r7, r8, sl, lr}
 8004f44:	08003347 	stmdaeq	r0, {r0, r1, r2, r6, r8, r9, ip, sp}
 8004f48:	08004ee8 	stmdaeq	r0, {r3, r5, r6, r7, r9, sl, fp, lr}
 8004f4c:	080036b5 	stmdaeq	r0, {r0, r2, r4, r5, r7, r9, sl, ip, sp}
 8004f50:	080030bb 	stmdaeq	r0, {r0, r1, r3, r4, r5, r7, ip, sp}
 8004f54:	08004edc 	stmdaeq	r0, {r2, r3, r4, r6, r7, r9, sl, fp, lr}

08004f58 <_INTER>:
 8004f58:	4e49240a 	cdpmi	4, 4, cr2, cr9, cr10, {0}
 8004f5c:	50524554 	subspl	r4, r2, r4, asr r5
 8004f60:	00544552 	subseq	r4, r4, r2, asr r5

08004f64 <INTER>:
 8004f64:	4750      	bx	sl
 8004f66:	bf00      	nop
 8004f68:	08004c71 	stmdaeq	r0, {r0, r4, r5, r6, sl, fp, lr}
 8004f6c:	08003679 	stmdaeq	r0, {r0, r3, r4, r5, r6, r9, sl, ip, sp}
 8004f70:	0800331f 	stmdaeq	r0, {r0, r1, r2, r3, r4, r8, r9, ip, sp}
 8004f74:	08004fa4 	stmdaeq	r0, {r2, r5, r7, r8, r9, sl, fp, lr}
 8004f78:	08003375 	stmdaeq	r0, {r0, r2, r4, r5, r6, r8, r9, ip, sp}
 8004f7c:	080032df 	stmdaeq	r0, {r0, r1, r2, r3, r4, r6, r7, r9, ip, sp}
 8004f80:	00000040 	andeq	r0, r0, r0, asr #32
 8004f84:	080034e9 	stmdaeq	r0, {r0, r3, r5, r6, r7, sl, ip, sp}
 8004f88:	08004f25 	stmdaeq	r0, {r0, r2, r5, r8, r9, sl, fp, lr}
 8004f8c:	6f63200d 	svcvs	0x0063200d
 8004f90:	6c69706d 	stclvs	0, cr7, [r9], #-436	; 0xfffffe4c
 8004f94:	6e6f2065 	cdpvs	0, 6, cr2, cr15, cr5, {3}
 8004f98:	bf00796c 	svclt	0x0000796c
 8004f9c:	080032f5 	stmdaeq	r0, {r0, r2, r4, r5, r6, r7, r9, ip, sp}
 8004fa0:	080030bb 	stmdaeq	r0, {r0, r1, r3, r4, r5, r7, ip, sp}

08004fa4 <INTE1>:
 8004fa4:	08004531 	stmdaeq	r0, {r0, r4, r5, r8, sl, lr}
 8004fa8:	0800331f 	stmdaeq	r0, {r0, r1, r2, r3, r4, r8, r9, ip, sp}
 8004fac:	08004fb4 	stmdaeq	r0, {r2, r4, r5, r7, r8, r9, sl, fp, lr}
 8004fb0:	080030bb 	stmdaeq	r0, {r0, r1, r3, r4, r5, r7, ip, sp}

08004fb4 <INTE2>:
 8004fb4:	08004ef9 	stmdaeq	r0, {r0, r3, r4, r5, r6, r7, r9, sl, fp, lr}
 8004fb8:	08004f58 	stmdaeq	r0, {r3, r4, r6, r8, r9, sl, fp, lr}

08004fbc <_LBRAC>:
 8004fbc:	bf005b81 	svclt	0x00005b81

08004fc0 <LBRAC>:
 8004fc0:	4750      	bx	sl
 8004fc2:	bf00      	nop
 8004fc4:	080032df 	stmdaeq	r0, {r0, r1, r2, r3, r4, r6, r7, r9, ip, sp}
 8004fc8:	08004f64 	stmdaeq	r0, {r2, r5, r6, r8, r9, sl, fp, lr}
 8004fcc:	08003a55 	stmdaeq	r0, {r0, r2, r4, r6, r9, fp, ip, sp}
 8004fd0:	08003361 	stmdaeq	r0, {r0, r5, r6, r8, r9, ip, sp}
 8004fd4:	080032df 	stmdaeq	r0, {r0, r1, r2, r3, r4, r6, r7, r9, ip, sp}
 8004fd8:	00000000 	andeq	r0, r0, r0
 8004fdc:	0800395d 	stmdaeq	r0, {r0, r2, r3, r4, r6, r8, fp, ip, sp}
 8004fe0:	08003361 	stmdaeq	r0, {r0, r5, r6, r8, r9, ip, sp}
 8004fe4:	080030bb 	stmdaeq	r0, {r0, r1, r3, r4, r5, r7, ip, sp}
 8004fe8:	08004fbc 	stmdaeq	r0, {r2, r3, r4, r5, r7, r8, r9, sl, fp, lr}

08004fec <_DOTOK>:
 8004fec:	4b4f2e03 	blmi	93d0800 <OPTKEY1+0x123ddc5>

08004ff0 <DOTOK>:
 8004ff0:	4750      	bx	sl
 8004ff2:	bf00      	nop
 8004ff4:	080032df 	stmdaeq	r0, {r0, r1, r2, r3, r4, r6, r7, r9, ip, sp}
 8004ff8:	08004f64 	stmdaeq	r0, {r2, r5, r6, r8, r9, sl, fp, lr}
 8004ffc:	08003a55 	stmdaeq	r0, {r0, r2, r4, r6, r9, fp, ip, sp}
 8005000:	08003375 	stmdaeq	r0, {r0, r2, r4, r5, r6, r8, r9, ip, sp}
 8005004:	080037f5 	stmdaeq	r0, {r0, r2, r4, r5, r6, r7, r8, r9, sl, ip, sp}
 8005008:	0800331f 	stmdaeq	r0, {r0, r1, r2, r3, r4, r8, r9, ip, sp}
 800500c:	08005018 	stmdaeq	r0, {r3, r4, ip, lr}
 8005010:	08004641 	stmdaeq	r0, {r0, r6, r9, sl, lr}
 8005014:	6b6f2003 	blvs	9bcd028 <OPTKEY1+0x1a3a5ed>

08005018 <DOTO1>:
 8005018:	080045e5 	stmdaeq	r0, {r0, r2, r5, r6, r7, r8, sl, lr}
 800501c:	080030bb 	stmdaeq	r0, {r0, r1, r3, r4, r5, r7, ip, sp}
 8005020:	08004fec 	stmdaeq	r0, {r2, r3, r5, r6, r7, r8, r9, sl, fp, lr}

08005024 <_QSTAC>:
 8005024:	54533f06 	ldrbpl	r3, [r3], #-3846	; 0xfffff0fa
 8005028:	004b4341 	subeq	r4, fp, r1, asr #6

0800502c <QSTAC>:
 800502c:	4750      	bx	sl
 800502e:	bf00      	nop
 8005030:	08003f49 	stmdaeq	r0, {r0, r3, r6, r8, r9, sl, fp, ip, sp}
 8005034:	080034d9 	stmdaeq	r0, {r0, r3, r4, r6, r7, sl, ip, sp}
 8005038:	08004f25 	stmdaeq	r0, {r0, r2, r5, r8, r9, sl, fp, lr}
 800503c:	646e7509 	strbtvs	r7, [lr], #-1289	; 0xfffffaf7
 8005040:	6c667265 	sfmvs	f7, 2, [r6], #-404	; 0xfffffe6c
 8005044:	bf00776f 	svclt	0x0000776f
 8005048:	080030bb 	stmdaeq	r0, {r0, r1, r3, r4, r5, r7, ip, sp}
 800504c:	08005024 	stmdaeq	r0, {r2, r5, ip, lr}

08005050 <_EVAL>:
 8005050:	41564504 	cmpmi	r6, r4, lsl #10
 8005054:	bf00004c 	svclt	0x0000004c

08005058 <EVAL>:
 8005058:	4750      	bx	sl
 800505a:	bf00      	nop

0800505c <EVAL1>:
 800505c:	08004ae9 	stmdaeq	r0, {r0, r3, r5, r6, r7, r9, fp, lr}
 8005060:	08003469 	stmdaeq	r0, {r0, r3, r5, r6, sl, ip, sp}
 8005064:	08003395 	stmdaeq	r0, {r0, r2, r4, r7, r8, r9, ip, sp}
 8005068:	0800331f 	stmdaeq	r0, {r0, r1, r2, r3, r4, r8, r9, ip, sp}
 800506c:	08005084 	stmdaeq	r0, {r2, r7, ip, lr}
 8005070:	08003a55 	stmdaeq	r0, {r0, r2, r4, r6, r9, fp, ip, sp}
 8005074:	0800402d 	stmdaeq	r0, {r0, r2, r3, r5, lr}
 8005078:	0800502d 	stmdaeq	r0, {r0, r2, r3, r5, ip, lr}
 800507c:	08003347 	stmdaeq	r0, {r0, r1, r2, r6, r8, r9, ip, sp}
 8005080:	0800505c 	stmdaeq	r0, {r2, r3, r4, r6, ip, lr}

08005084 <EVAL2>:
 8005084:	08003459 	stmdaeq	r0, {r0, r3, r4, r6, sl, ip, sp}
 8005088:	08004ff1 	stmdaeq	r0, {r0, r4, r5, r6, r7, r8, r9, sl, fp, lr}
 800508c:	080030bb 	stmdaeq	r0, {r0, r1, r3, r4, r5, r7, ip, sp}
 8005090:	08005050 	stmdaeq	r0, {r4, r6, ip, lr}

08005094 <_EVALUATE>:
 8005094:	41564508 	cmpmi	r6, r8, lsl #10
 8005098:	5441554c 	strbpl	r5, [r1], #-1356	; 0xfffffab4
 800509c:	bf000045 	svclt	0x00000045

080050a0 <EVALUATE>:
 80050a0:	4750      	bx	sl
 80050a2:	bf00      	nop
 80050a4:	080032df 	stmdaeq	r0, {r0, r1, r2, r3, r4, r6, r7, r9, ip, sp}
 80050a8:	2000002c 	andcs	r0, r0, ip, lsr #32
 80050ac:	08003469 	stmdaeq	r0, {r0, r3, r5, r6, sl, ip, sp}
 80050b0:	08003375 	stmdaeq	r0, {r0, r2, r4, r5, r6, r8, r9, ip, sp}
 80050b4:	080033e5 	stmdaeq	r0, {r0, r2, r5, r6, r7, r8, r9, ip, sp}
 80050b8:	080032df 	stmdaeq	r0, {r0, r1, r2, r3, r4, r6, r7, r9, ip, sp}
 80050bc:	00000000 	andeq	r0, r0, r0
 80050c0:	08003479 	stmdaeq	r0, {r0, r3, r4, r5, r6, sl, ip, sp}
 80050c4:	08003361 	stmdaeq	r0, {r0, r5, r6, r8, r9, ip, sp}
 80050c8:	080032df 	stmdaeq	r0, {r0, r1, r2, r3, r4, r6, r7, r9, ip, sp}
 80050cc:	20000030 	andcs	r0, r0, r0, lsr r0
 80050d0:	080038f1 	stmdaeq	r0, {r0, r4, r5, r6, r7, fp, ip, sp}
 80050d4:	080033f9 	stmdaeq	r0, {r0, r3, r4, r5, r6, r7, r8, r9, ip, sp}
 80050d8:	080032df 	stmdaeq	r0, {r0, r1, r2, r3, r4, r6, r7, r9, ip, sp}
 80050dc:	ffffffff 			; <UNDEFINED> instruction: 0xffffffff
 80050e0:	080032df 	stmdaeq	r0, {r0, r1, r2, r3, r4, r6, r7, r9, ip, sp}
 80050e4:	20000038 	andcs	r0, r0, r8, lsr r0
 80050e8:	08003361 	stmdaeq	r0, {r0, r5, r6, r8, r9, ip, sp}
 80050ec:	080032df 	stmdaeq	r0, {r0, r1, r2, r3, r4, r6, r7, r9, ip, sp}
 80050f0:	20000030 	andcs	r0, r0, r0, lsr r0
 80050f4:	080038d1 	stmdaeq	r0, {r0, r4, r6, r7, fp, ip, sp}
 80050f8:	08005059 	stmdaeq	r0, {r0, r3, r4, r6, ip, lr}
 80050fc:	080033b5 	stmdaeq	r0, {r0, r2, r4, r5, r7, r8, r9, ip, sp}
 8005100:	080032df 	stmdaeq	r0, {r0, r1, r2, r3, r4, r6, r7, r9, ip, sp}
 8005104:	20000030 	andcs	r0, r0, r0, lsr r0
 8005108:	080038d1 	stmdaeq	r0, {r0, r4, r6, r7, fp, ip, sp}
 800510c:	080033a1 	stmdaeq	r0, {r0, r5, r7, r8, r9, ip, sp}
 8005110:	080032df 	stmdaeq	r0, {r0, r1, r2, r3, r4, r6, r7, r9, ip, sp}
 8005114:	2000002c 	andcs	r0, r0, ip, lsr #32
 8005118:	08003361 	stmdaeq	r0, {r0, r5, r6, r8, r9, ip, sp}
 800511c:	080032df 	stmdaeq	r0, {r0, r1, r2, r3, r4, r6, r7, r9, ip, sp}
 8005120:	00000000 	andeq	r0, r0, r0
 8005124:	080032df 	stmdaeq	r0, {r0, r1, r2, r3, r4, r6, r7, r9, ip, sp}
 8005128:	20000038 	andcs	r0, r0, r8, lsr r0
 800512c:	08003361 	stmdaeq	r0, {r0, r5, r6, r8, r9, ip, sp}
 8005130:	080030bb 	stmdaeq	r0, {r0, r1, r3, r4, r5, r7, ip, sp}
 8005134:	08005094 	stmdaeq	r0, {r2, r4, r7, ip, lr}

08005138 <_PRESE>:
 8005138:	45525006 	ldrbmi	r5, [r2, #-6]
 800513c:	00544553 	subseq	r4, r4, r3, asr r5

08005140 <PRESE>:
 8005140:	4750      	bx	sl
 8005142:	bf00      	nop
 8005144:	080032df 	stmdaeq	r0, {r0, r1, r2, r3, r4, r6, r7, r9, ip, sp}
 8005148:	2001feb0 			; <UNDEFINED> instruction: 0x2001feb0
 800514c:	08003425 	stmdaeq	r0, {r0, r2, r5, sl, ip, sp}
 8005150:	080032df 	stmdaeq	r0, {r0, r1, r2, r3, r4, r6, r7, r9, ip, sp}
 8005154:	2001feb0 			; <UNDEFINED> instruction: 0x2001feb0
 8005158:	080032df 	stmdaeq	r0, {r0, r1, r2, r3, r4, r6, r7, r9, ip, sp}
 800515c:	00000000 	andeq	r0, r0, r0
 8005160:	080032df 	stmdaeq	r0, {r0, r1, r2, r3, r4, r6, r7, r9, ip, sp}
 8005164:	20000030 	andcs	r0, r0, r0, lsr r0
 8005168:	080038d1 	stmdaeq	r0, {r0, r4, r6, r7, fp, ip, sp}
 800516c:	080030bb 	stmdaeq	r0, {r0, r1, r3, r4, r5, r7, ip, sp}
 8005170:	08005138 	stmdaeq	r0, {r3, r4, r5, r8, ip, lr}

08005174 <_QUIT>:
 8005174:	49555104 	ldmdbmi	r5, {r2, r8, ip, lr}^
 8005178:	bf000054 	svclt	0x00000054

0800517c <QUIT>:
 800517c:	080032df 	stmdaeq	r0, {r0, r1, r2, r3, r4, r6, r7, r9, ip, sp}
 8005180:	2001ff80 	andcs	pc, r1, r0, lsl #31
 8005184:	08003415 	stmdaeq	r0, {r0, r2, r4, sl, ip, sp}

08005188 <QUIT1>:
 8005188:	08004fc1 	stmdaeq	r0, {r0, r6, r7, r8, r9, sl, fp, lr}

0800518c <QUIT2>:
 800518c:	08004ea5 	stmdaeq	r0, {r0, r2, r5, r7, r9, sl, fp, lr}
 8005190:	08005059 	stmdaeq	r0, {r0, r3, r4, r6, ip, lr}
 8005194:	08003347 	stmdaeq	r0, {r0, r1, r2, r6, r8, r9, ip, sp}
 8005198:	0800518c 	stmdaeq	r0, {r2, r3, r7, r8, ip, lr}
 800519c:	08005174 	stmdaeq	r0, {r2, r4, r5, r6, r8, ip, lr}

080051a0 <_FORGET>:
 80051a0:	524f4606 	subpl	r4, pc, #6291456	; 0x600000
 80051a4:	00544547 	subseq	r4, r4, r7, asr #10

080051a8 <FORGET>:
 80051a8:	4750      	bx	sl
 80051aa:	bf00      	nop
 80051ac:	08004ae9 	stmdaeq	r0, {r0, r3, r5, r6, r7, r9, fp, lr}
 80051b0:	08003469 	stmdaeq	r0, {r0, r3, r5, r6, sl, ip, sp}
 80051b4:	0800331f 	stmdaeq	r0, {r0, r1, r2, r3, r4, r8, r9, ip, sp}
 80051b8:	080051f0 	stmdaeq	r0, {r4, r5, r6, r7, r8, ip, lr}
 80051bc:	08004c71 	stmdaeq	r0, {r0, r4, r5, r6, sl, fp, lr}
 80051c0:	08003679 	stmdaeq	r0, {r0, r3, r4, r5, r6, r9, sl, ip, sp}
 80051c4:	0800331f 	stmdaeq	r0, {r0, r1, r2, r3, r4, r8, r9, ip, sp}
 80051c8:	080051ec 	stmdaeq	r0, {r2, r3, r5, r6, r7, r8, ip, lr}
 80051cc:	08003615 	stmdaeq	r0, {r0, r2, r4, r9, sl, ip, sp}
 80051d0:	08003469 	stmdaeq	r0, {r0, r3, r5, r6, sl, ip, sp}
 80051d4:	08003a95 	stmdaeq	r0, {r0, r2, r4, r7, r9, fp, ip, sp}
 80051d8:	08003361 	stmdaeq	r0, {r0, r5, r6, r8, r9, ip, sp}
 80051dc:	08003375 	stmdaeq	r0, {r0, r2, r4, r5, r6, r8, r9, ip, sp}
 80051e0:	08003ac1 	stmdaeq	r0, {r0, r6, r7, r9, fp, ip, sp}
 80051e4:	08003361 	stmdaeq	r0, {r0, r5, r6, r8, r9, ip, sp}
 80051e8:	08005871 	stmdaeq	r0, {r0, r4, r5, r6, fp, ip, lr}
 80051ec:	08003459 	stmdaeq	r0, {r0, r3, r4, r6, sl, ip, sp}
 80051f0:	080030bb 	stmdaeq	r0, {r0, r1, r3, r4, r5, r7, ip, sp}
 80051f4:	080051a0 	stmdaeq	r0, {r5, r7, r8, ip, lr}

080051f8 <_POSTPONE>:
 80051f8:	534f50c8 	movtpl	r5, #61640	; 0xf0c8
 80051fc:	4e4f5054 	mcrmi	0, 2, r5, cr15, cr4, {2}
 8005200:	bf000045 	svclt	0x00000045

08005204 <POSTPONE>:
 8005204:	4750      	bx	sl
 8005206:	bf00      	nop
 8005208:	08005241 	stmdaeq	r0, {r0, r6, r9, ip, lr}
 800520c:	080058dd 	stmdaeq	r0, {r0, r2, r3, r4, r6, r7, fp, ip, lr}
 8005210:	080030bb 	stmdaeq	r0, {r0, r1, r3, r4, r5, r7, ip, sp}
 8005214:	080051f8 	stmdaeq	r0, {r3, r4, r5, r6, r7, r8, ip, lr}

08005218 <_TICK>:
 8005218:	bf002701 	svclt	0x00002701

0800521c <TICK>:
 800521c:	4750      	bx	sl
 800521e:	bf00      	nop
 8005220:	08004ae9 	stmdaeq	r0, {r0, r3, r5, r6, r7, r9, fp, lr}
 8005224:	08004c71 	stmdaeq	r0, {r0, r4, r5, r6, sl, fp, lr}
 8005228:	0800331f 	stmdaeq	r0, {r0, r1, r2, r3, r4, r8, r9, ip, sp}
 800522c:	08005234 	stmdaeq	r0, {r2, r4, r5, r9, ip, lr}
 8005230:	080030bb 	stmdaeq	r0, {r0, r1, r3, r4, r5, r7, ip, sp}

08005234 <TICK1>:
 8005234:	08004ef9 	stmdaeq	r0, {r0, r3, r4, r5, r6, r7, r9, sl, fp, lr}
 8005238:	08005218 	stmdaeq	r0, {r3, r4, r9, ip, lr}

0800523c <_ITICK>:
 800523c:	5d275bc3 	fstmdbxpl	r7!, {d5-d101}	;@ Deprecated

08005240 <ITICK>:
 8005240:	4750      	bx	sl
 8005242:	bf00      	nop
 8005244:	0800521d 	stmdaeq	r0, {r0, r2, r3, r4, r9, ip, lr}
 8005248:	080030bb 	stmdaeq	r0, {r0, r1, r3, r4, r5, r7, ip, sp}
 800524c:	0800523c 	stmdaeq	r0, {r2, r3, r4, r5, r9, ip, lr}

08005250 <_FIND>:
 8005250:	4e494604 	cdpmi	6, 4, cr4, cr9, cr4, {0}
 8005254:	bf000044 	svclt	0x00000044

08005258 <FIND>:
 8005258:	4750      	bx	sl
 800525a:	bf00      	nop
 800525c:	08004c71 	stmdaeq	r0, {r0, r4, r5, r6, sl, fp, lr}
 8005260:	08003469 	stmdaeq	r0, {r0, r3, r5, r6, sl, ip, sp}
 8005264:	0800331f 	stmdaeq	r0, {r0, r1, r2, r3, r4, r8, r9, ip, sp}
 8005268:	08005298 	stmdaeq	r0, {r3, r4, r7, r9, ip, lr}
 800526c:	08003395 	stmdaeq	r0, {r0, r2, r4, r7, r8, r9, ip, sp}
 8005270:	080032df 	stmdaeq	r0, {r0, r1, r2, r3, r4, r6, r7, r9, ip, sp}
 8005274:	00000080 	andeq	r0, r0, r0, lsl #1
 8005278:	080034e9 	stmdaeq	r0, {r0, r3, r5, r6, r7, sl, ip, sp}
 800527c:	080032df 	stmdaeq	r0, {r0, r1, r2, r3, r4, r6, r7, r9, ip, sp}
 8005280:	00000007 	andeq	r0, r0, r7
 8005284:	08003541 	stmdaeq	r0, {r0, r6, r8, sl, ip, sp}
 8005288:	08003469 	stmdaeq	r0, {r0, r3, r5, r6, sl, ip, sp}
 800528c:	08003333 	stmdaeq	r0, {r0, r1, r4, r5, r8, r9, ip, sp}
 8005290:	08005298 	stmdaeq	r0, {r3, r4, r7, r9, ip, lr}
 8005294:	08003779 	stmdaeq	r0, {r0, r3, r4, r5, r6, r8, r9, sl, ip, sp}
 8005298:	080030bb 	stmdaeq	r0, {r0, r1, r3, r4, r5, r7, ip, sp}
 800529c:	08005250 	stmdaeq	r0, {r4, r6, r9, ip, lr}

080052a0 <_ALLOT>:
 80052a0:	4c4c4105 	stfmie	f4, [ip], {5}
 80052a4:	bf00544f 	svclt	0x0000544f

080052a8 <ALLOT>:
 80052a8:	4750      	bx	sl
 80052aa:	bf00      	nop
 80052ac:	08003a95 	stmdaeq	r0, {r0, r2, r4, r7, r9, fp, ip, sp}
 80052b0:	080038b5 	stmdaeq	r0, {r0, r2, r4, r5, r7, fp, ip, sp}
 80052b4:	080030bb 	stmdaeq	r0, {r0, r1, r3, r4, r5, r7, ip, sp}
 80052b8:	080052a0 	stmdaeq	r0, {r5, r7, r9, ip, lr}

080052bc <_COMMA>:
 80052bc:	bf002c01 	svclt	0x00002c01

080052c0 <COMMA>:
 80052c0:	4750      	bx	sl
 80052c2:	bf00      	nop
 80052c4:	08003fa1 	stmdaeq	r0, {r0, r5, r7, r8, r9, sl, fp, ip, sp}
 80052c8:	08003469 	stmdaeq	r0, {r0, r3, r5, r6, sl, ip, sp}
 80052cc:	08003605 	stmdaeq	r0, {r0, r2, r9, sl, ip, sp}
 80052d0:	08003a95 	stmdaeq	r0, {r0, r2, r4, r7, r9, fp, ip, sp}
 80052d4:	08003361 	stmdaeq	r0, {r0, r5, r6, r8, r9, ip, sp}
 80052d8:	08003361 	stmdaeq	r0, {r0, r5, r6, r8, r9, ip, sp}
 80052dc:	080030bb 	stmdaeq	r0, {r0, r1, r3, r4, r5, r7, ip, sp}
 80052e0:	080052bc 	stmdaeq	r0, {r2, r3, r4, r5, r7, r9, ip, lr}

080052e4 <_BCOMP>:
 80052e4:	4f435b89 	svcmi	0x00435b89
 80052e8:	4c49504d 	mcrrmi	0, 4, r5, r9, cr13
 80052ec:	bf005d45 	svclt	0x00005d45

080052f0 <BCOMP>:
 80052f0:	4750      	bx	sl
 80052f2:	bf00      	nop
 80052f4:	0800521d 	stmdaeq	r0, {r0, r2, r3, r4, r9, ip, lr}
 80052f8:	080052c1 	stmdaeq	r0, {r0, r6, r7, r9, ip, lr}
 80052fc:	080030bb 	stmdaeq	r0, {r0, r1, r3, r4, r5, r7, ip, sp}
 8005300:	080052e4 	stmdaeq	r0, {r2, r5, r6, r7, r9, ip, lr}

08005304 <_COMPI>:
 8005304:	4d4f4347 	stclmi	3, cr4, [pc, #-284]	; 80051f0 <FORGET+0x48>
 8005308:	454c4950 	strbmi	r4, [ip, #-2384]	; 0xfffff6b0

0800530c <COMPI>:
 800530c:	4750      	bx	sl
 800530e:	bf00      	nop
 8005310:	080033a1 	stmdaeq	r0, {r0, r5, r7, r8, r9, ip, sp}
 8005314:	08003469 	stmdaeq	r0, {r0, r3, r5, r6, sl, ip, sp}
 8005318:	08003375 	stmdaeq	r0, {r0, r2, r4, r5, r6, r8, r9, ip, sp}
 800531c:	080032df 	stmdaeq	r0, {r0, r1, r2, r3, r4, r6, r7, r9, ip, sp}
 8005320:	00000001 	andeq	r0, r0, r1
 8005324:	080034fd 	stmdaeq	r0, {r0, r2, r3, r4, r5, r6, r7, sl, ip, sp}
 8005328:	080052c1 	stmdaeq	r0, {r0, r6, r7, r9, ip, lr}
 800532c:	08003605 	stmdaeq	r0, {r0, r2, r9, sl, ip, sp}
 8005330:	080033e5 	stmdaeq	r0, {r0, r2, r5, r6, r7, r8, r9, ip, sp}
 8005334:	080030bb 	stmdaeq	r0, {r0, r1, r3, r4, r5, r7, ip, sp}
 8005338:	08005304 	stmdaeq	r0, {r2, r8, r9, ip, lr}

0800533c <_LITER>:
 800533c:	54494c87 	strbpl	r4, [r9], #-3207	; 0xfffff379
 8005340:	4c415245 	sfmmi	f5, 2, [r1], {69}	; 0x45

08005344 <LITER>:
 8005344:	4750      	bx	sl
 8005346:	bf00      	nop
 8005348:	080032df 	stmdaeq	r0, {r0, r1, r2, r3, r4, r6, r7, r9, ip, sp}
 800534c:	080032de 	stmdaeq	r0, {r1, r2, r3, r4, r6, r7, r9, ip, sp}
 8005350:	080058dd 	stmdaeq	r0, {r0, r2, r3, r4, r6, r7, fp, ip, lr}
 8005354:	080052c1 	stmdaeq	r0, {r0, r6, r7, r9, ip, lr}
 8005358:	080030bb 	stmdaeq	r0, {r0, r1, r3, r4, r5, r7, ip, sp}

0800535c <STRCQ>:
 800535c:	4750      	bx	sl
 800535e:	bf00      	nop
 8005360:	080032df 	stmdaeq	r0, {r0, r1, r2, r3, r4, r6, r7, r9, ip, sp}
 8005364:	fffffffc 			; <UNDEFINED> instruction: 0xfffffffc
 8005368:	08003a95 	stmdaeq	r0, {r0, r2, r4, r7, r9, fp, ip, sp}
 800536c:	080038b5 	stmdaeq	r0, {r0, r2, r4, r5, r7, fp, ip, sp}
 8005370:	080032df 	stmdaeq	r0, {r0, r1, r2, r3, r4, r6, r7, r9, ip, sp}
 8005374:	00000022 	andeq	r0, r0, r2, lsr #32
 8005378:	08004ac5 	stmdaeq	r0, {r0, r2, r6, r7, r9, fp, lr}
 800537c:	08003909 	stmdaeq	r0, {r0, r3, r8, fp, ip, sp}
 8005380:	08003569 	stmdaeq	r0, {r0, r3, r5, r6, r8, sl, ip, sp}
 8005384:	08003ee1 	stmdaeq	r0, {r0, r5, r6, r7, r9, sl, fp, ip, sp}
 8005388:	08003a95 	stmdaeq	r0, {r0, r2, r4, r7, r9, fp, ip, sp}
 800538c:	08003361 	stmdaeq	r0, {r0, r5, r6, r8, r9, ip, sp}
 8005390:	080030bb 	stmdaeq	r0, {r0, r1, r3, r4, r5, r7, ip, sp}
 8005394:	0800533c 	stmdaeq	r0, {r2, r3, r4, r5, r8, r9, ip, lr}

08005398 <_FOR>:
 8005398:	524f46c3 	subpl	r4, pc, #204472320	; 0xc300000

0800539c <FOR>:
 800539c:	4750      	bx	sl
 800539e:	bf00      	nop
 80053a0:	080032df 	stmdaeq	r0, {r0, r1, r2, r3, r4, r6, r7, r9, ip, sp}
 80053a4:	080033e4 	stmdaeq	r0, {r2, r5, r6, r7, r8, r9, ip, sp}
 80053a8:	080058dd 	stmdaeq	r0, {r0, r2, r3, r4, r6, r7, fp, ip, lr}
 80053ac:	08003fa1 	stmdaeq	r0, {r0, r5, r7, r8, r9, sl, fp, ip, sp}
 80053b0:	080030bb 	stmdaeq	r0, {r0, r1, r3, r4, r5, r7, ip, sp}
 80053b4:	08005398 	stmdaeq	r0, {r3, r4, r7, r8, r9, ip, lr}

080053b8 <_DO>:
 80053b8:	004f44c2 	subeq	r4, pc, r2, asr #9

080053bc <DO>:
 80053bc:	4750      	bx	sl
 80053be:	bf00      	nop
 80053c0:	080032df 	stmdaeq	r0, {r0, r1, r2, r3, r4, r6, r7, r9, ip, sp}
 80053c4:	08003478 	stmdaeq	r0, {r3, r4, r5, r6, sl, ip, sp}
 80053c8:	080058dd 	stmdaeq	r0, {r0, r2, r3, r4, r6, r7, fp, ip, lr}
 80053cc:	080032df 	stmdaeq	r0, {r0, r1, r2, r3, r4, r6, r7, r9, ip, sp}
 80053d0:	080033e4 	stmdaeq	r0, {r2, r5, r6, r7, r8, r9, ip, sp}
 80053d4:	080058dd 	stmdaeq	r0, {r0, r2, r3, r4, r6, r7, fp, ip, lr}
 80053d8:	080032df 	stmdaeq	r0, {r0, r1, r2, r3, r4, r6, r7, r9, ip, sp}
 80053dc:	080033e4 	stmdaeq	r0, {r2, r5, r6, r7, r8, r9, ip, sp}
 80053e0:	080058dd 	stmdaeq	r0, {r0, r2, r3, r4, r6, r7, fp, ip, lr}
 80053e4:	08003fa1 	stmdaeq	r0, {r0, r5, r7, r8, r9, sl, fp, ip, sp}
 80053e8:	080032df 	stmdaeq	r0, {r0, r1, r2, r3, r4, r6, r7, r9, ip, sp}
 80053ec:	00000000 	andeq	r0, r0, r0
 80053f0:	080030bb 	stmdaeq	r0, {r0, r1, r3, r4, r5, r7, ip, sp}

080053f4 <DOPLOOP>:
 80053f4:	4632      	mov	r2, r6
 80053f6:	f857 6b04 	ldr.w	r6, [r7], #4
 80053fa:	e8b8 0003 	ldmia.w	r8!, {r0, r1}
 80053fe:	4410      	add	r0, r2
 8005400:	e928 0003 	stmdb	r8!, {r0, r1}
 8005404:	4288      	cmp	r0, r1
 8005406:	d405      	bmi.n	8005414 <DOPLOOP+0x20>
 8005408:	f108 0808 	add.w	r8, r8, #8
 800540c:	f10c 0c04 	add.w	ip, ip, #4
 8005410:	f7fd be50 	b.w	80030b4 <INEXT>
 8005414:	f8dc c000 	ldr.w	ip, [ip]
 8005418:	f7fd be4c 	b.w	80030b4 <INEXT>
 800541c:	080053b8 	stmdaeq	r0, {r3, r4, r5, r7, r8, r9, ip, lr}

08005420 <_PLOOP>:
 8005420:	4f4c2bc5 	svcmi	0x004c2bc5
 8005424:	bf00504f 	svclt	0x0000504f

08005428 <PLOOP>:
 8005428:	4750      	bx	sl
 800542a:	bf00      	nop
 800542c:	080032df 	stmdaeq	r0, {r0, r1, r2, r3, r4, r6, r7, r9, ip, sp}
 8005430:	080053f4 	stmdaeq	r0, {r2, r4, r5, r6, r7, r8, r9, ip, lr}
 8005434:	080058dd 	stmdaeq	r0, {r0, r2, r3, r4, r6, r7, fp, ip, lr}
 8005438:	0800546d 	stmdaeq	r0, {r0, r2, r3, r5, r6, sl, ip, lr}
 800543c:	080052c1 	stmdaeq	r0, {r0, r6, r7, r9, ip, lr}
 8005440:	080030bb 	stmdaeq	r0, {r0, r1, r3, r4, r5, r7, ip, sp}

08005444 <DOLOOP>:
 8005444:	f8d8 0000 	ldr.w	r0, [r8]
 8005448:	f100 0001 	add.w	r0, r0, #1
 800544c:	f8c8 0000 	str.w	r0, [r8]
 8005450:	f8d8 1004 	ldr.w	r1, [r8, #4]
 8005454:	4288      	cmp	r0, r1
 8005456:	d405      	bmi.n	8005464 <DOLOOP+0x20>
 8005458:	f108 0808 	add.w	r8, r8, #8
 800545c:	f10c 0c04 	add.w	ip, ip, #4
 8005460:	f7fd be28 	b.w	80030b4 <INEXT>
 8005464:	f8dc c000 	ldr.w	ip, [ip]
 8005468:	f7fd be24 	b.w	80030b4 <INEXT>

0800546c <resolve_leave>:
 800546c:	4750      	bx	sl
 800546e:	bf00      	nop
 8005470:	08003679 	stmdaeq	r0, {r0, r3, r4, r5, r6, r9, sl, ip, sp}
 8005474:	0800331f 	stmdaeq	r0, {r0, r1, r2, r3, r4, r8, r9, ip, sp}
 8005478:	08005494 	stmdaeq	r0, {r2, r4, r7, sl, ip, lr}
 800547c:	08003fa1 	stmdaeq	r0, {r0, r5, r7, r8, r9, sl, fp, ip, sp}
 8005480:	08003605 	stmdaeq	r0, {r0, r2, r9, sl, ip, sp}
 8005484:	08003479 	stmdaeq	r0, {r0, r3, r4, r5, r6, sl, ip, sp}
 8005488:	08003361 	stmdaeq	r0, {r0, r5, r6, r8, r9, ip, sp}
 800548c:	08003347 	stmdaeq	r0, {r0, r1, r2, r6, r8, r9, ip, sp}
 8005490:	08005470 	stmdaeq	r0, {r4, r5, r6, sl, ip, lr}
 8005494:	080030bb 	stmdaeq	r0, {r0, r1, r3, r4, r5, r7, ip, sp}
 8005498:	08005420 	stmdaeq	r0, {r5, sl, ip, lr}

0800549c <_LOOP>:
 800549c:	4f4f4cc4 	svcmi	0x004f4cc4
 80054a0:	bf000050 	svclt	0x00000050

080054a4 <LOOP>:
 80054a4:	4750      	bx	sl
 80054a6:	bf00      	nop
 80054a8:	080032df 	stmdaeq	r0, {r0, r1, r2, r3, r4, r6, r7, r9, ip, sp}
 80054ac:	08005444 	stmdaeq	r0, {r2, r6, sl, ip, lr}
 80054b0:	080058dd 	stmdaeq	r0, {r0, r2, r3, r4, r6, r7, fp, ip, lr}
 80054b4:	0800546d 	stmdaeq	r0, {r0, r2, r3, r5, r6, sl, ip, lr}
 80054b8:	080052c1 	stmdaeq	r0, {r0, r6, r7, r9, ip, lr}
 80054bc:	080030bb 	stmdaeq	r0, {r0, r1, r3, r4, r5, r7, ip, sp}
 80054c0:	0800549c 	stmdaeq	r0, {r2, r3, r4, r7, sl, ip, lr}

080054c4 <_UNLOOP>:
 80054c4:	4c4e5506 	cfstr64mi	mvdx5, [lr], {6}
 80054c8:	00504f4f 	subseq	r4, r0, pc, asr #30

080054cc <UNLOOP>:
 80054cc:	f108 0808 	add.w	r8, r8, #8
 80054d0:	f7fd bdf0 	b.w	80030b4 <INEXT>
 80054d4:	080054c4 	stmdaeq	r0, {r2, r6, r7, sl, ip, lr}

080054d8 <_LEAVE>:
 80054d8:	41454cc5 	smlalbtmi	r4, r5, r5, ip
 80054dc:	bf004556 	svclt	0x00004556

080054e0 <LEAVE>:
 80054e0:	4750      	bx	sl
 80054e2:	bf00      	nop
 80054e4:	080032df 	stmdaeq	r0, {r0, r1, r2, r3, r4, r6, r7, r9, ip, sp}
 80054e8:	08005514 	stmdaeq	r0, {r2, r4, r8, sl, ip, lr}
 80054ec:	080058dd 	stmdaeq	r0, {r0, r2, r3, r4, r6, r7, fp, ip, lr}
 80054f0:	08003fa1 	stmdaeq	r0, {r0, r5, r7, r8, r9, sl, fp, ip, sp}
 80054f4:	080034a9 	stmdaeq	r0, {r0, r3, r5, r7, sl, ip, sp}
 80054f8:	0800331f 	stmdaeq	r0, {r0, r1, r2, r3, r4, r8, r9, ip, sp}
 80054fc:	08005504 	stmdaeq	r0, {r2, r8, sl, ip, lr}
 8005500:	08003479 	stmdaeq	r0, {r0, r3, r4, r5, r6, sl, ip, sp}
 8005504:	080032df 	stmdaeq	r0, {r0, r1, r2, r3, r4, r6, r7, r9, ip, sp}
 8005508:	00000000 	andeq	r0, r0, r0
 800550c:	080052c1 	stmdaeq	r0, {r0, r6, r7, r9, ip, lr}
 8005510:	080030bb 	stmdaeq	r0, {r0, r1, r3, r4, r5, r7, ip, sp}

08005514 <DOLEAVE>:
 8005514:	f108 0808 	add.w	r8, r8, #8
 8005518:	f8dc c000 	ldr.w	ip, [ip]
 800551c:	f7fd bdca 	b.w	80030b4 <INEXT>
 8005520:	080054d8 	stmdaeq	r0, {r3, r4, r6, r7, sl, ip, lr}

08005524 <_BEGIN>:
 8005524:	474542c5 	strbmi	r4, [r5, -r5, asr #5]
 8005528:	bf004e49 	svclt	0x00004e49

0800552c <BEGIN>:
 800552c:	4750      	bx	sl
 800552e:	bf00      	nop
 8005530:	08003fa1 	stmdaeq	r0, {r0, r5, r7, r8, r9, sl, fp, ip, sp}
 8005534:	080030bb 	stmdaeq	r0, {r0, r1, r3, r4, r5, r7, ip, sp}
 8005538:	08005524 	stmdaeq	r0, {r2, r5, r8, sl, ip, lr}

0800553c <_FNEXT>:
 800553c:	58454ec4 	stmdapl	r5, {r2, r6, r7, r9, sl, fp, lr}^
 8005540:	bf000054 	svclt	0x00000054

08005544 <FNEXT>:
 8005544:	4750      	bx	sl
 8005546:	bf00      	nop
 8005548:	080032df 	stmdaeq	r0, {r0, r1, r2, r3, r4, r6, r7, r9, ip, sp}
 800554c:	08003300 	stmdaeq	r0, {r8, r9, ip, sp}
 8005550:	080058dd 	stmdaeq	r0, {r0, r2, r3, r4, r6, r7, fp, ip, lr}
 8005554:	080052c1 	stmdaeq	r0, {r0, r6, r7, r9, ip, lr}
 8005558:	080030bb 	stmdaeq	r0, {r0, r1, r3, r4, r5, r7, ip, sp}
 800555c:	0800553c 	stmdaeq	r0, {r2, r3, r4, r5, r8, sl, ip, lr}

08005560 <_I>:
 8005560:	bf004941 	svclt	0x00004941

08005564 <I>:
 8005564:	f847 6d04 	str.w	r6, [r7, #-4]!
 8005568:	f8d8 6000 	ldr.w	r6, [r8]
 800556c:	f7fd bda2 	b.w	80030b4 <INEXT>
 8005570:	08005560 	stmdaeq	r0, {r5, r6, r8, sl, ip, lr}

08005574 <_J>:
 8005574:	bf004a01 	svclt	0x00004a01

08005578 <J>:
 8005578:	f847 6d04 	str.w	r6, [r7, #-4]!
 800557c:	f8d8 6004 	ldr.w	r6, [r8, #4]
 8005580:	f7fd bd98 	b.w	80030b4 <INEXT>
 8005584:	08005574 	stmdaeq	r0, {r2, r4, r5, r6, r8, sl, ip, lr}

08005588 <_UNTIL>:
 8005588:	544e55c5 	strbpl	r5, [lr], #-1477	; 0xfffffa3b
 800558c:	bf004c49 	svclt	0x00004c49

08005590 <UNTIL>:
 8005590:	4750      	bx	sl
 8005592:	bf00      	nop
 8005594:	080032df 	stmdaeq	r0, {r0, r1, r2, r3, r4, r6, r7, r9, ip, sp}
 8005598:	0800331e 	stmdaeq	r0, {r1, r2, r3, r4, r8, r9, ip, sp}
 800559c:	080058dd 	stmdaeq	r0, {r0, r2, r3, r4, r6, r7, fp, ip, lr}
 80055a0:	080052c1 	stmdaeq	r0, {r0, r6, r7, r9, ip, lr}
 80055a4:	080030bb 	stmdaeq	r0, {r0, r1, r3, r4, r5, r7, ip, sp}
 80055a8:	08005588 	stmdaeq	r0, {r3, r7, r8, sl, ip, lr}

080055ac <_AGAIN>:
 80055ac:	414741c5 	smlalbtmi	r4, r7, r5, r1
 80055b0:	bf004e49 	svclt	0x00004e49

080055b4 <AGAIN>:
 80055b4:	4750      	bx	sl
 80055b6:	bf00      	nop
 80055b8:	080032df 	stmdaeq	r0, {r0, r1, r2, r3, r4, r6, r7, r9, ip, sp}
 80055bc:	08003346 	stmdaeq	r0, {r1, r2, r6, r8, r9, ip, sp}
 80055c0:	080058dd 	stmdaeq	r0, {r0, r2, r3, r4, r6, r7, fp, ip, lr}
 80055c4:	080052c1 	stmdaeq	r0, {r0, r6, r7, r9, ip, lr}
 80055c8:	080030bb 	stmdaeq	r0, {r0, r1, r3, r4, r5, r7, ip, sp}
 80055cc:	080055ac 	stmdaeq	r0, {r2, r3, r5, r7, r8, sl, ip, lr}

080055d0 <_IFF>:
 80055d0:	004649c2 	subeq	r4, r6, r2, asr #19

080055d4 <IFF>:
 80055d4:	4750      	bx	sl
 80055d6:	bf00      	nop
 80055d8:	080032df 	stmdaeq	r0, {r0, r1, r2, r3, r4, r6, r7, r9, ip, sp}
 80055dc:	0800331e 	stmdaeq	r0, {r1, r2, r3, r4, r8, r9, ip, sp}
 80055e0:	080058dd 	stmdaeq	r0, {r0, r2, r3, r4, r6, r7, fp, ip, lr}
 80055e4:	08003fa1 	stmdaeq	r0, {r0, r5, r7, r8, r9, sl, fp, ip, sp}
 80055e8:	080032df 	stmdaeq	r0, {r0, r1, r2, r3, r4, r6, r7, r9, ip, sp}
 80055ec:	00000004 	andeq	r0, r0, r4
 80055f0:	08003a95 	stmdaeq	r0, {r0, r2, r4, r7, r9, fp, ip, sp}
 80055f4:	080038b5 	stmdaeq	r0, {r0, r2, r4, r5, r7, fp, ip, sp}
 80055f8:	080030bb 	stmdaeq	r0, {r0, r1, r3, r4, r5, r7, ip, sp}
 80055fc:	080055d0 	stmdaeq	r0, {r4, r6, r7, r8, sl, ip, lr}

08005600 <_AHEAD>:
 8005600:	454841c5 	strbmi	r4, [r8, #-453]	; 0xfffffe3b
 8005604:	bf004441 	svclt	0x00004441

08005608 <AHEAD>:
 8005608:	4750      	bx	sl
 800560a:	bf00      	nop
 800560c:	080032df 	stmdaeq	r0, {r0, r1, r2, r3, r4, r6, r7, r9, ip, sp}
 8005610:	08003346 	stmdaeq	r0, {r1, r2, r6, r8, r9, ip, sp}
 8005614:	080058dd 	stmdaeq	r0, {r0, r2, r3, r4, r6, r7, fp, ip, lr}
 8005618:	08003fa1 	stmdaeq	r0, {r0, r5, r7, r8, r9, sl, fp, ip, sp}
 800561c:	080032df 	stmdaeq	r0, {r0, r1, r2, r3, r4, r6, r7, r9, ip, sp}
 8005620:	00000004 	andeq	r0, r0, r4
 8005624:	08003a95 	stmdaeq	r0, {r0, r2, r4, r7, r9, fp, ip, sp}
 8005628:	080038b5 	stmdaeq	r0, {r0, r2, r4, r5, r7, fp, ip, sp}
 800562c:	080030bb 	stmdaeq	r0, {r0, r1, r3, r4, r5, r7, ip, sp}
 8005630:	08005600 	stmdaeq	r0, {r9, sl, ip, lr}

08005634 <_REPEA>:
 8005634:	504552c6 	subpl	r5, r5, r6, asr #5
 8005638:	00544145 	subseq	r4, r4, r5, asr #2

0800563c <REPEA>:
 800563c:	4750      	bx	sl
 800563e:	bf00      	nop
 8005640:	080055b5 	stmdaeq	r0, {r0, r2, r4, r5, r7, r8, sl, ip, lr}
 8005644:	08003fa1 	stmdaeq	r0, {r0, r5, r7, r8, r9, sl, fp, ip, sp}
 8005648:	08003479 	stmdaeq	r0, {r0, r3, r4, r5, r6, sl, ip, sp}
 800564c:	08003361 	stmdaeq	r0, {r0, r5, r6, r8, r9, ip, sp}
 8005650:	080030bb 	stmdaeq	r0, {r0, r1, r3, r4, r5, r7, ip, sp}
 8005654:	08005634 	stmdaeq	r0, {r2, r4, r5, r9, sl, ip, lr}

08005658 <_THENN>:
 8005658:	454854c4 	strbmi	r5, [r8, #-1220]	; 0xfffffb3c
 800565c:	bf00004e 	svclt	0x0000004e

08005660 <THENN>:
 8005660:	4750      	bx	sl
 8005662:	bf00      	nop
 8005664:	08003fa1 	stmdaeq	r0, {r0, r5, r7, r8, r9, sl, fp, ip, sp}
 8005668:	08003479 	stmdaeq	r0, {r0, r3, r4, r5, r6, sl, ip, sp}
 800566c:	08003361 	stmdaeq	r0, {r0, r5, r6, r8, r9, ip, sp}
 8005670:	080030bb 	stmdaeq	r0, {r0, r1, r3, r4, r5, r7, ip, sp}
 8005674:	08005658 	stmdaeq	r0, {r3, r4, r6, r9, sl, ip, lr}

08005678 <_AFT>:
 8005678:	544641c3 	strbpl	r4, [r6], #-451	; 0xfffffe3d

0800567c <AFT>:
 800567c:	4750      	bx	sl
 800567e:	bf00      	nop
 8005680:	08003459 	stmdaeq	r0, {r0, r3, r4, r6, sl, ip, sp}
 8005684:	08005609 	stmdaeq	r0, {r0, r3, r9, sl, ip, lr}
 8005688:	0800552d 	stmdaeq	r0, {r0, r2, r3, r5, r8, sl, ip, lr}
 800568c:	08003479 	stmdaeq	r0, {r0, r3, r4, r5, r6, sl, ip, sp}
 8005690:	080030bb 	stmdaeq	r0, {r0, r1, r3, r4, r5, r7, ip, sp}
 8005694:	08005678 	stmdaeq	r0, {r3, r4, r5, r6, r9, sl, ip, lr}

08005698 <_ELSEE>:
 8005698:	534c45c4 	movtpl	r4, #50628	; 0xc5c4
 800569c:	bf000045 	svclt	0x00000045

080056a0 <ELSEE>:
 80056a0:	4750      	bx	sl
 80056a2:	bf00      	nop
 80056a4:	08005609 	stmdaeq	r0, {r0, r3, r9, sl, ip, lr}
 80056a8:	08003479 	stmdaeq	r0, {r0, r3, r4, r5, r6, sl, ip, sp}
 80056ac:	08005661 	stmdaeq	r0, {r0, r5, r6, r9, sl, ip, lr}
 80056b0:	080030bb 	stmdaeq	r0, {r0, r1, r3, r4, r5, r7, ip, sp}
 80056b4:	08005698 	stmdaeq	r0, {r3, r4, r7, r9, sl, ip, lr}

080056b8 <_WHILE>:
 80056b8:	494857c5 	stmdbmi	r8, {r0, r2, r6, r7, r8, r9, sl, ip, lr}^
 80056bc:	bf00454c 	svclt	0x0000454c

080056c0 <WHILE>:
 80056c0:	4750      	bx	sl
 80056c2:	bf00      	nop
 80056c4:	080055d5 	stmdaeq	r0, {r0, r2, r4, r6, r7, r8, sl, ip, lr}
 80056c8:	08003479 	stmdaeq	r0, {r0, r3, r4, r5, r6, sl, ip, sp}
 80056cc:	080030bb 	stmdaeq	r0, {r0, r1, r3, r4, r5, r7, ip, sp}
 80056d0:	080056b8 	stmdaeq	r0, {r3, r4, r5, r7, r9, sl, ip, lr}

080056d4 <_ABRTQ>:
 80056d4:	4f4241c6 	svcmi	0x004241c6
 80056d8:	00225452 	eoreq	r5, r2, r2, asr r4

080056dc <ABRTQ>:
 80056dc:	4750      	bx	sl
 80056de:	bf00      	nop
 80056e0:	080032df 	stmdaeq	r0, {r0, r1, r2, r3, r4, r6, r7, r9, ip, sp}
 80056e4:	08004f24 	stmdaeq	r0, {r2, r5, r8, r9, sl, fp, lr}
 80056e8:	080058dd 	stmdaeq	r0, {r0, r2, r3, r4, r6, r7, fp, ip, lr}
 80056ec:	0800535d 	stmdaeq	r0, {r0, r2, r3, r4, r6, r8, r9, ip, lr}
 80056f0:	080030bb 	stmdaeq	r0, {r0, r1, r3, r4, r5, r7, ip, sp}
 80056f4:	080056d4 	stmdaeq	r0, {r2, r4, r6, r7, r9, sl, ip, lr}

080056f8 <_STRQ>:
 80056f8:	002253c2 	eoreq	r5, r2, r2, asr #7

080056fc <STRQ>:
 80056fc:	4750      	bx	sl
 80056fe:	bf00      	nop
 8005700:	080032df 	stmdaeq	r0, {r0, r1, r2, r3, r4, r6, r7, r9, ip, sp}
 8005704:	08004634 	stmdaeq	r0, {r2, r4, r5, r9, sl, lr}
 8005708:	080058dd 	stmdaeq	r0, {r0, r2, r3, r4, r6, r7, fp, ip, lr}
 800570c:	0800535d 	stmdaeq	r0, {r0, r2, r3, r4, r6, r8, r9, ip, lr}
 8005710:	080030bb 	stmdaeq	r0, {r0, r1, r3, r4, r5, r7, ip, sp}
 8005714:	080056f8 	stmdaeq	r0, {r3, r4, r5, r6, r7, r9, sl, ip, lr}

08005718 <_DOTQ>:
 8005718:	00222ec2 	eoreq	r2, r2, r2, asr #29

0800571c <DOTQ>:
 800571c:	4750      	bx	sl
 800571e:	bf00      	nop
 8005720:	080032df 	stmdaeq	r0, {r0, r1, r2, r3, r4, r6, r7, r9, ip, sp}
 8005724:	08004640 	stmdaeq	r0, {r6, r9, sl, lr}
 8005728:	080058dd 	stmdaeq	r0, {r0, r2, r3, r4, r6, r7, fp, ip, lr}
 800572c:	0800535d 	stmdaeq	r0, {r0, r2, r3, r4, r6, r8, r9, ip, lr}
 8005730:	080030bb 	stmdaeq	r0, {r0, r1, r3, r4, r5, r7, ip, sp}
 8005734:	08005718 	stmdaeq	r0, {r3, r4, r8, r9, sl, ip, lr}

08005738 <_UNIQU>:
 8005738:	4e553f07 	cdpmi	15, 5, cr3, cr5, cr7, {0}
 800573c:	45555149 	ldrbmi	r5, [r5, #-329]	; 0xfffffeb7

08005740 <UNIQU>:
 8005740:	4750      	bx	sl
 8005742:	bf00      	nop
 8005744:	08003469 	stmdaeq	r0, {r0, r3, r5, r6, sl, ip, sp}
 8005748:	08004c71 	stmdaeq	r0, {r0, r4, r5, r6, sl, fp, lr}
 800574c:	0800331f 	stmdaeq	r0, {r0, r1, r2, r3, r4, r8, r9, ip, sp}
 8005750:	0800576c 	stmdaeq	r0, {r2, r3, r5, r6, r8, r9, sl, ip, lr}
 8005754:	08004641 	stmdaeq	r0, {r0, r6, r9, sl, lr}
 8005758:	65722007 	ldrbvs	r2, [r2, #-7]!
 800575c:	20666544 	rsbcs	r6, r6, r4, asr #10
 8005760:	080034a9 	stmdaeq	r0, {r0, r3, r5, r7, sl, ip, sp}
 8005764:	08003909 	stmdaeq	r0, {r0, r3, r8, fp, ip, sp}
 8005768:	080045b1 	stmdaeq	r0, {r0, r4, r5, r7, r8, sl, lr}

0800576c <UNIQ1>:
 800576c:	08003459 	stmdaeq	r0, {r0, r3, r4, r6, sl, ip, sp}
 8005770:	080030bb 	stmdaeq	r0, {r0, r1, r3, r4, r5, r7, ip, sp}

08005774 <SNAME>:
 8005774:	4750      	bx	sl
 8005776:	bf00      	nop
 8005778:	08003469 	stmdaeq	r0, {r0, r3, r5, r6, sl, ip, sp}
 800577c:	08003395 	stmdaeq	r0, {r0, r2, r4, r7, r8, r9, ip, sp}
 8005780:	0800331f 	stmdaeq	r0, {r0, r1, r2, r3, r4, r8, r9, ip, sp}
 8005784:	080057bc 	stmdaeq	r0, {r2, r3, r4, r5, r7, r8, r9, sl, ip, lr}
 8005788:	08005741 	stmdaeq	r0, {r0, r6, r8, r9, sl, ip, lr}
 800578c:	08003ac1 	stmdaeq	r0, {r0, r6, r7, r9, fp, ip, sp}
 8005790:	08003375 	stmdaeq	r0, {r0, r2, r4, r5, r6, r8, r9, ip, sp}
 8005794:	080052c1 	stmdaeq	r0, {r0, r6, r7, r9, ip, lr}
 8005798:	08003469 	stmdaeq	r0, {r0, r3, r5, r6, sl, ip, sp}
 800579c:	08003ac1 	stmdaeq	r0, {r0, r6, r7, r9, fp, ip, sp}
 80057a0:	08003361 	stmdaeq	r0, {r0, r5, r6, r8, r9, ip, sp}
 80057a4:	08003909 	stmdaeq	r0, {r0, r3, r8, fp, ip, sp}
 80057a8:	08003569 	stmdaeq	r0, {r0, r3, r5, r6, r8, sl, ip, sp}
 80057ac:	08003ee1 	stmdaeq	r0, {r0, r5, r6, r7, r9, sl, fp, ip, sp}
 80057b0:	08003a95 	stmdaeq	r0, {r0, r2, r4, r7, r9, fp, ip, sp}
 80057b4:	08003361 	stmdaeq	r0, {r0, r5, r6, r8, r9, ip, sp}
 80057b8:	080030bb 	stmdaeq	r0, {r0, r1, r3, r4, r5, r7, ip, sp}

080057bc <SNAM1>:
 80057bc:	08004635 	stmdaeq	r0, {r0, r2, r4, r5, r9, sl, lr}
 80057c0:	616e2007 	cmnvs	lr, r7
 80057c4:	203f656d 	eorscs	r6, pc, sp, ror #10
 80057c8:	08004ef9 	stmdaeq	r0, {r0, r3, r4, r5, r6, r7, r9, sl, fp, lr}
 80057cc:	08005738 	stmdaeq	r0, {r3, r4, r5, r8, r9, sl, ip, lr}

080057d0 <_SCOMP>:
 80057d0:	4f432408 	svcmi	0x00432408
 80057d4:	4c49504d 	mcrrmi	0, 4, r5, r9, cr13
 80057d8:	bf000045 	svclt	0x00000045

080057dc <SCOMP>:
 80057dc:	4750      	bx	sl
 80057de:	bf00      	nop
 80057e0:	08004c71 	stmdaeq	r0, {r0, r4, r5, r6, sl, fp, lr}
 80057e4:	08003679 	stmdaeq	r0, {r0, r3, r4, r5, r6, r9, sl, ip, sp}
 80057e8:	0800331f 	stmdaeq	r0, {r0, r1, r2, r3, r4, r8, r9, ip, sp}
 80057ec:	08005818 	stmdaeq	r0, {r3, r4, fp, ip, lr}
 80057f0:	08003375 	stmdaeq	r0, {r0, r2, r4, r5, r6, r8, r9, ip, sp}
 80057f4:	080032df 	stmdaeq	r0, {r0, r1, r2, r3, r4, r6, r7, r9, ip, sp}
 80057f8:	00000080 	andeq	r0, r0, r0, lsl #1
 80057fc:	080034e9 	stmdaeq	r0, {r0, r3, r5, r6, r7, sl, ip, sp}
 8005800:	0800331f 	stmdaeq	r0, {r0, r1, r2, r3, r4, r8, r9, ip, sp}
 8005804:	08005810 	stmdaeq	r0, {r4, fp, ip, lr}
 8005808:	080032f5 	stmdaeq	r0, {r0, r2, r4, r5, r6, r7, r9, ip, sp}
 800580c:	080030bb 	stmdaeq	r0, {r0, r1, r3, r4, r5, r7, ip, sp}

08005810 <SCOM1>:
 8005810:	080058dd 	stmdaeq	r0, {r0, r2, r3, r4, r6, r7, fp, ip, lr}
 8005814:	080030bb 	stmdaeq	r0, {r0, r1, r3, r4, r5, r7, ip, sp}

08005818 <SCOM2>:
 8005818:	08004531 	stmdaeq	r0, {r0, r4, r5, r8, sl, lr}
 800581c:	0800331f 	stmdaeq	r0, {r0, r1, r2, r3, r4, r8, r9, ip, sp}
 8005820:	0800582c 	stmdaeq	r0, {r2, r3, r5, fp, ip, lr}
 8005824:	08005345 	stmdaeq	r0, {r0, r2, r6, r8, r9, ip, lr}
 8005828:	080030bb 	stmdaeq	r0, {r0, r1, r3, r4, r5, r7, ip, sp}

0800582c <SCOM3>:
 800582c:	08005835 	stmdaeq	r0, {r0, r2, r4, r5, fp, ip, lr}
 8005830:	08004ef9 	stmdaeq	r0, {r0, r3, r4, r5, r6, r7, r9, sl, fp, lr}

08005834 <COLON_ABORT>:
 8005834:	4750      	bx	sl
 8005836:	bf00      	nop
 8005838:	08003ac1 	stmdaeq	r0, {r0, r6, r7, r9, fp, ip, sp}
 800583c:	08003375 	stmdaeq	r0, {r0, r2, r4, r5, r6, r8, r9, ip, sp}
 8005840:	08003615 	stmdaeq	r0, {r0, r2, r4, r9, sl, ip, sp}
 8005844:	08003469 	stmdaeq	r0, {r0, r3, r5, r6, sl, ip, sp}
 8005848:	08003a95 	stmdaeq	r0, {r0, r2, r4, r7, r9, fp, ip, sp}
 800584c:	08003361 	stmdaeq	r0, {r0, r5, r6, r8, r9, ip, sp}
 8005850:	08003375 	stmdaeq	r0, {r0, r2, r4, r5, r6, r8, r9, ip, sp}
 8005854:	08003ac1 	stmdaeq	r0, {r0, r6, r7, r9, fp, ip, sp}
 8005858:	08003361 	stmdaeq	r0, {r0, r5, r6, r8, r9, ip, sp}
 800585c:	08005871 	stmdaeq	r0, {r0, r4, r5, r6, fp, ip, lr}
 8005860:	080030bb 	stmdaeq	r0, {r0, r1, r3, r4, r5, r7, ip, sp}
 8005864:	080057d0 	stmdaeq	r0, {r4, r6, r7, r8, r9, sl, ip, lr}

08005868 <_OVERT>:
 8005868:	45564f05 	ldrbmi	r4, [r6, #-3845]	; 0xfffff0fb
 800586c:	bf005452 	svclt	0x00005452

08005870 <OVERT>:
 8005870:	4750      	bx	sl
 8005872:	bf00      	nop
 8005874:	08003ac1 	stmdaeq	r0, {r0, r6, r7, r9, fp, ip, sp}
 8005878:	08003375 	stmdaeq	r0, {r0, r2, r4, r5, r6, r8, r9, ip, sp}
 800587c:	08003a81 	stmdaeq	r0, {r0, r7, r9, fp, ip, sp}
 8005880:	08003361 	stmdaeq	r0, {r0, r5, r6, r8, r9, ip, sp}
 8005884:	080030bb 	stmdaeq	r0, {r0, r1, r3, r4, r5, r7, ip, sp}
 8005888:	08005868 	stmdaeq	r0, {r3, r5, r6, fp, ip, lr}

0800588c <_SEMIS>:
 800588c:	bf003bc1 	svclt	0x00003bc1

08005890 <SEMIS>:
 8005890:	4750      	bx	sl
 8005892:	bf00      	nop
 8005894:	080032df 	stmdaeq	r0, {r0, r1, r2, r3, r4, r6, r7, r9, ip, sp}
 8005898:	080030ba 	stmdaeq	r0, {r1, r3, r4, r5, r7, ip, sp}
 800589c:	080058dd 	stmdaeq	r0, {r0, r2, r3, r4, r6, r7, fp, ip, lr}
 80058a0:	08004fc1 	stmdaeq	r0, {r0, r6, r7, r8, r9, sl, fp, lr}
 80058a4:	08005871 	stmdaeq	r0, {r0, r4, r5, r6, fp, ip, lr}
 80058a8:	080030bb 	stmdaeq	r0, {r0, r1, r3, r4, r5, r7, ip, sp}
 80058ac:	0800588c 	stmdaeq	r0, {r2, r3, r7, fp, ip, lr}

080058b0 <_RBRAC>:
 80058b0:	bf005d01 	svclt	0x00005d01

080058b4 <RBRAC>:
 80058b4:	4750      	bx	sl
 80058b6:	bf00      	nop
 80058b8:	080032df 	stmdaeq	r0, {r0, r1, r2, r3, r4, r6, r7, r9, ip, sp}
 80058bc:	080057dc 	stmdaeq	r0, {r2, r3, r4, r6, r7, r8, r9, sl, ip, lr}
 80058c0:	08003a55 	stmdaeq	r0, {r0, r2, r4, r6, r9, fp, ip, sp}
 80058c4:	08003361 	stmdaeq	r0, {r0, r5, r6, r8, r9, ip, sp}
 80058c8:	080032df 	stmdaeq	r0, {r0, r1, r2, r3, r4, r6, r7, r9, ip, sp}
 80058cc:	ffffffff 			; <UNDEFINED> instruction: 0xffffffff
 80058d0:	0800395d 	stmdaeq	r0, {r0, r2, r3, r4, r6, r8, fp, ip, sp}
 80058d4:	08003361 	stmdaeq	r0, {r0, r5, r6, r8, r9, ip, sp}
 80058d8:	080030bb 	stmdaeq	r0, {r0, r1, r3, r4, r5, r7, ip, sp}

080058dc <CALLC>:
 80058dc:	4750      	bx	sl
 80058de:	bf00      	nop
 80058e0:	080032df 	stmdaeq	r0, {r0, r1, r2, r3, r4, r6, r7, r9, ip, sp}
 80058e4:	00000001 	andeq	r0, r0, r1
 80058e8:	080034fd 	stmdaeq	r0, {r0, r2, r3, r4, r5, r6, r7, sl, ip, sp}
 80058ec:	080052c1 	stmdaeq	r0, {r0, r6, r7, r9, ip, lr}
 80058f0:	080030bb 	stmdaeq	r0, {r0, r1, r3, r4, r5, r7, ip, sp}
 80058f4:	080058b0 	stmdaeq	r0, {r4, r5, r7, fp, ip, lr}

080058f8 <_COLON>:
 80058f8:	bf003a01 	svclt	0x00003a01

080058fc <COLON>:
 80058fc:	4750      	bx	sl
 80058fe:	bf00      	nop
 8005900:	08004ae9 	stmdaeq	r0, {r0, r3, r5, r6, r7, r9, fp, lr}
 8005904:	08005775 	stmdaeq	r0, {r0, r2, r4, r5, r6, r8, r9, sl, ip, lr}
 8005908:	08005871 	stmdaeq	r0, {r0, r4, r5, r6, fp, ip, lr}
 800590c:	080030c5 	stmdaeq	r0, {r0, r2, r6, r7, ip, sp}
 8005910:	080058b5 	stmdaeq	r0, {r0, r2, r4, r5, r7, fp, ip, lr}
 8005914:	080030bb 	stmdaeq	r0, {r0, r1, r3, r4, r5, r7, ip, sp}
 8005918:	080058f8 	stmdaeq	r0, {r3, r4, r5, r6, r7, fp, ip, lr}

0800591c <_IMMED>:
 800591c:	4d4d4909 	vstrmi.16	s9, [sp, #-18]	; 0xffffffee	; <UNPREDICTABLE>
 8005920:	41494445 	cmpmi	r9, r5, asr #8
 8005924:	bf004554 	svclt	0x00004554

08005928 <IMMED>:
 8005928:	4750      	bx	sl
 800592a:	bf00      	nop
 800592c:	080032df 	stmdaeq	r0, {r0, r1, r2, r3, r4, r6, r7, r9, ip, sp}
 8005930:	00000080 	andeq	r0, r0, r0, lsl #1
 8005934:	08003ac1 	stmdaeq	r0, {r0, r6, r7, r9, fp, ip, sp}
 8005938:	08003375 	stmdaeq	r0, {r0, r2, r4, r5, r6, r8, r9, ip, sp}
 800593c:	08003375 	stmdaeq	r0, {r0, r2, r4, r5, r6, r8, r9, ip, sp}
 8005940:	080034fd 	stmdaeq	r0, {r0, r2, r3, r4, r5, r6, r7, sl, ip, sp}
 8005944:	08003ac1 	stmdaeq	r0, {r0, r6, r7, r9, fp, ip, sp}
 8005948:	08003375 	stmdaeq	r0, {r0, r2, r4, r5, r6, r8, r9, ip, sp}
 800594c:	08003361 	stmdaeq	r0, {r0, r5, r6, r8, r9, ip, sp}
 8005950:	080030bb 	stmdaeq	r0, {r0, r1, r3, r4, r5, r7, ip, sp}
 8005954:	0800591c 	stmdaeq	r0, {r2, r3, r4, r8, fp, ip, lr}

08005958 <_CONST>:
 8005958:	4e4f4308 	cdpmi	3, 4, cr4, cr15, cr8, {0}
 800595c:	4e415453 	mcrmi	4, 2, r5, cr1, cr3, {2}
 8005960:	bf000054 	svclt	0x00000054

08005964 <CONST>:
 8005964:	4750      	bx	sl
 8005966:	bf00      	nop
 8005968:	08004ae9 	stmdaeq	r0, {r0, r3, r5, r6, r7, r9, fp, lr}
 800596c:	08005775 	stmdaeq	r0, {r0, r2, r4, r5, r6, r8, r9, sl, ip, lr}
 8005970:	08005871 	stmdaeq	r0, {r0, r4, r5, r6, fp, ip, lr}
 8005974:	080030c5 	stmdaeq	r0, {r0, r2, r6, r7, ip, sp}
 8005978:	080032df 	stmdaeq	r0, {r0, r1, r2, r3, r4, r6, r7, r9, ip, sp}
 800597c:	08003944 	stmdaeq	r0, {r2, r6, r8, fp, ip, sp}
 8005980:	080058dd 	stmdaeq	r0, {r0, r2, r3, r4, r6, r7, fp, ip, lr}
 8005984:	080052c1 	stmdaeq	r0, {r0, r6, r7, r9, ip, lr}
 8005988:	080032df 	stmdaeq	r0, {r0, r1, r2, r3, r4, r6, r7, r9, ip, sp}
 800598c:	080030ba 	stmdaeq	r0, {r1, r3, r4, r5, r7, ip, sp}
 8005990:	080058dd 	stmdaeq	r0, {r0, r2, r3, r4, r6, r7, fp, ip, lr}
 8005994:	080030bb 	stmdaeq	r0, {r0, r1, r3, r4, r5, r7, ip, sp}

08005998 <DODOES>:
 8005998:	4750      	bx	sl
 800599a:	bf00      	nop
 800599c:	080033a1 	stmdaeq	r0, {r0, r5, r7, r8, r9, ip, sp}
 80059a0:	08003605 	stmdaeq	r0, {r0, r2, r9, sl, ip, sp}
 80059a4:	080035c5 	stmdaeq	r0, {r0, r2, r6, r7, r8, sl, ip, sp}
 80059a8:	08003ac1 	stmdaeq	r0, {r0, r6, r7, r9, fp, ip, sp}
 80059ac:	08003375 	stmdaeq	r0, {r0, r2, r4, r5, r6, r8, r9, ip, sp}
 80059b0:	08004b09 	stmdaeq	r0, {r0, r3, r8, r9, fp, lr}
 80059b4:	08003605 	stmdaeq	r0, {r0, r2, r9, sl, ip, sp}
 80059b8:	08003361 	stmdaeq	r0, {r0, r5, r6, r8, r9, ip, sp}
 80059bc:	080030bb 	stmdaeq	r0, {r0, r1, r3, r4, r5, r7, ip, sp}
 80059c0:	08005958 	stmdaeq	r0, {r3, r4, r6, r8, fp, ip, lr}

080059c4 <_DOES>:
 80059c4:	454f44c5 	strbmi	r4, [pc, #-1221]	; 8005507 <LEAVE+0x27>
 80059c8:	bf003e53 	svclt	0x00003e53

080059cc <DOES>:
 80059cc:	4750      	bx	sl
 80059ce:	bf00      	nop
 80059d0:	080032df 	stmdaeq	r0, {r0, r1, r2, r3, r4, r6, r7, r9, ip, sp}
 80059d4:	08005998 	stmdaeq	r0, {r3, r4, r7, r8, fp, ip, lr}
 80059d8:	080058dd 	stmdaeq	r0, {r0, r2, r3, r4, r6, r7, fp, ip, lr}
 80059dc:	080032df 	stmdaeq	r0, {r0, r1, r2, r3, r4, r6, r7, r9, ip, sp}
 80059e0:	080030ba 	stmdaeq	r0, {r1, r3, r4, r5, r7, ip, sp}
 80059e4:	080058dd 	stmdaeq	r0, {r0, r2, r3, r4, r6, r7, fp, ip, lr}
 80059e8:	080030c5 	stmdaeq	r0, {r0, r2, r6, r7, ip, sp}
 80059ec:	080032df 	stmdaeq	r0, {r0, r1, r2, r3, r4, r6, r7, r9, ip, sp}
 80059f0:	080033a0 	stmdaeq	r0, {r5, r7, r8, r9, ip, sp}
 80059f4:	080058dd 	stmdaeq	r0, {r0, r2, r3, r4, r6, r7, fp, ip, lr}
 80059f8:	080030bb 	stmdaeq	r0, {r0, r1, r3, r4, r5, r7, ip, sp}
 80059fc:	080059c4 	stmdaeq	r0, {r2, r6, r7, r8, fp, ip, lr}

08005a00 <_DEFERAT>:
 8005a00:	46454406 	strbmi	r4, [r5], -r6, lsl #8
 8005a04:	00405245 	subeq	r5, r0, r5, asr #4

08005a08 <DEFERAT>:
 8005a08:	4750      	bx	sl
 8005a0a:	bf00      	nop
 8005a0c:	0800521d 	stmdaeq	r0, {r0, r2, r3, r4, r9, ip, lr}
 8005a10:	08003605 	stmdaeq	r0, {r0, r2, r9, sl, ip, sp}
 8005a14:	08003375 	stmdaeq	r0, {r0, r2, r4, r5, r6, r8, r9, ip, sp}
 8005a18:	080035d5 	stmdaeq	r0, {r0, r2, r4, r6, r7, r8, sl, ip, sp}
 8005a1c:	080030bb 	stmdaeq	r0, {r0, r1, r3, r4, r5, r7, ip, sp}
 8005a20:	08005a00 	stmdaeq	r0, {r9, fp, ip, lr}

08005a24 <_DEFERSTO>:
 8005a24:	46454406 	strbmi	r4, [r5], -r6, lsl #8
 8005a28:	00215245 	eoreq	r5, r1, r5, asr #4

08005a2c <DEFERSTO>:
 8005a2c:	4750      	bx	sl
 8005a2e:	bf00      	nop
 8005a30:	0800521d 	stmdaeq	r0, {r0, r2, r3, r4, r9, ip, lr}
 8005a34:	080035c5 	stmdaeq	r0, {r0, r2, r6, r7, r8, sl, ip, sp}
 8005a38:	0800521d 	stmdaeq	r0, {r0, r2, r3, r4, r9, ip, lr}
 8005a3c:	08003605 	stmdaeq	r0, {r0, r2, r9, sl, ip, sp}
 8005a40:	08003361 	stmdaeq	r0, {r0, r5, r6, r8, r9, ip, sp}
 8005a44:	080030bb 	stmdaeq	r0, {r0, r1, r3, r4, r5, r7, ip, sp}
 8005a48:	08005a24 	stmdaeq	r0, {r2, r5, r9, fp, ip, lr}

08005a4c <_DEFER>:
 8005a4c:	46454405 	strbmi	r4, [r5], -r5, lsl #8
 8005a50:	bf005245 	svclt	0x00005245

08005a54 <DEFER>:
 8005a54:	4750      	bx	sl
 8005a56:	bf00      	nop
 8005a58:	08005aa5 	stmdaeq	r0, {r0, r2, r5, r7, r9, fp, ip, lr}
 8005a5c:	080032df 	stmdaeq	r0, {r0, r1, r2, r3, r4, r6, r7, r9, ip, sp}
 8005a60:	080030ba 	stmdaeq	r0, {r1, r3, r4, r5, r7, ip, sp}
 8005a64:	080058dd 	stmdaeq	r0, {r0, r2, r3, r4, r6, r7, fp, ip, lr}
 8005a68:	080032df 	stmdaeq	r0, {r0, r1, r2, r3, r4, r6, r7, r9, ip, sp}
 8005a6c:	08005a8c 	stmdaeq	r0, {r2, r3, r7, r9, fp, ip, lr}
 8005a70:	080035c5 	stmdaeq	r0, {r0, r2, r6, r7, r8, sl, ip, sp}
 8005a74:	08003ac1 	stmdaeq	r0, {r0, r6, r7, r9, fp, ip, sp}
 8005a78:	08003375 	stmdaeq	r0, {r0, r2, r4, r5, r6, r8, r9, ip, sp}
 8005a7c:	08004b09 	stmdaeq	r0, {r0, r3, r8, r9, fp, lr}
 8005a80:	08003605 	stmdaeq	r0, {r0, r2, r9, sl, ip, sp}
 8005a84:	08003361 	stmdaeq	r0, {r0, r5, r6, r8, r9, ip, sp}
 8005a88:	080030bb 	stmdaeq	r0, {r0, r1, r3, r4, r5, r7, ip, sp}

08005a8c <DEFER_NOP>:
 8005a8c:	4750      	bx	sl
 8005a8e:	bf00      	nop
 8005a90:	080032dd 	stmdaeq	r0, {r0, r2, r3, r4, r6, r7, r9, ip, sp}
 8005a94:	080030bb 	stmdaeq	r0, {r0, r1, r3, r4, r5, r7, ip, sp}
 8005a98:	08005a4c 	stmdaeq	r0, {r2, r3, r6, r9, fp, ip, lr}

08005a9c <_CREAT>:
 8005a9c:	45524306 	ldrbmi	r4, [r2, #-774]	; 0xfffffcfa
 8005aa0:	00455441 	subeq	r5, r5, r1, asr #8

08005aa4 <CREAT>:
 8005aa4:	4750      	bx	sl
 8005aa6:	bf00      	nop
 8005aa8:	08004ae9 	stmdaeq	r0, {r0, r3, r5, r6, r7, r9, fp, lr}
 8005aac:	08005775 	stmdaeq	r0, {r0, r2, r4, r5, r6, r8, r9, sl, ip, lr}
 8005ab0:	08005871 	stmdaeq	r0, {r0, r4, r5, r6, fp, ip, lr}
 8005ab4:	080030c5 	stmdaeq	r0, {r0, r2, r6, r7, ip, sp}
 8005ab8:	080032df 	stmdaeq	r0, {r0, r1, r2, r3, r4, r6, r7, r9, ip, sp}
 8005abc:	08003936 	stmdaeq	r0, {r1, r2, r4, r5, r8, fp, ip, sp}
 8005ac0:	080058dd 	stmdaeq	r0, {r0, r2, r3, r4, r6, r7, fp, ip, lr}
 8005ac4:	080030bb 	stmdaeq	r0, {r0, r1, r3, r4, r5, r7, ip, sp}
 8005ac8:	08005a9c 	stmdaeq	r0, {r2, r3, r4, r7, r9, fp, ip, lr}

08005acc <_VARIA>:
 8005acc:	52415608 	subpl	r5, r1, #8, 12	; 0x800000
 8005ad0:	4c424149 	stfmie	f4, [r2], {73}	; 0x49
 8005ad4:	bf000045 	svclt	0x00000045

08005ad8 <VARIA>:
 8005ad8:	4750      	bx	sl
 8005ada:	bf00      	nop
 8005adc:	08005aa5 	stmdaeq	r0, {r0, r2, r5, r7, r9, fp, ip, lr}
 8005ae0:	080032df 	stmdaeq	r0, {r0, r1, r2, r3, r4, r6, r7, r9, ip, sp}
 8005ae4:	00000000 	andeq	r0, r0, r0
 8005ae8:	080052c1 	stmdaeq	r0, {r0, r6, r7, r9, ip, lr}
 8005aec:	080032df 	stmdaeq	r0, {r0, r1, r2, r3, r4, r6, r7, r9, ip, sp}
 8005af0:	080030ba 	stmdaeq	r0, {r1, r3, r4, r5, r7, ip, sp}
 8005af4:	080058dd 	stmdaeq	r0, {r0, r2, r3, r4, r6, r7, fp, ip, lr}
 8005af8:	080030bb 	stmdaeq	r0, {r0, r1, r3, r4, r5, r7, ip, sp}

08005afc <DMP>:
 8005afc:	4750      	bx	sl
 8005afe:	bf00      	nop
 8005b00:	080034a9 	stmdaeq	r0, {r0, r3, r5, r7, sl, ip, sp}
 8005b04:	080032df 	stmdaeq	r0, {r0, r1, r2, r3, r4, r6, r7, r9, ip, sp}
 8005b08:	00000004 	andeq	r0, r0, r4
 8005b0c:	08004709 	stmdaeq	r0, {r0, r3, r8, r9, sl, lr}
 8005b10:	080032df 	stmdaeq	r0, {r0, r1, r2, r3, r4, r6, r7, r9, ip, sp}
 8005b14:	00000000 	andeq	r0, r0, r0
 8005b18:	080039ed 	stmdaeq	r0, {r0, r2, r3, r5, r6, r7, r8, fp, ip, sp}
 8005b1c:	08003469 	stmdaeq	r0, {r0, r3, r5, r6, sl, ip, sp}
 8005b20:	08003375 	stmdaeq	r0, {r0, r2, r4, r5, r6, r8, r9, ip, sp}
 8005b24:	080033e5 	stmdaeq	r0, {r0, r2, r5, r6, r7, r8, r9, ip, sp}
 8005b28:	08003361 	stmdaeq	r0, {r0, r5, r6, r8, r9, ip, sp}
 8005b2c:	0800455d 	stmdaeq	r0, {r0, r2, r3, r4, r6, r8, sl, lr}
 8005b30:	080033e5 	stmdaeq	r0, {r0, r2, r5, r6, r7, r8, r9, ip, sp}
 8005b34:	08003347 	stmdaeq	r0, {r0, r1, r2, r6, r8, r9, ip, sp}
 8005b38:	08005b54 	stmdaeq	r0, {r2, r4, r6, r8, r9, fp, ip, lr}

08005b3c <PDUM1>:
 8005b3c:	08003469 	stmdaeq	r0, {r0, r3, r5, r6, sl, ip, sp}
 8005b40:	08003395 	stmdaeq	r0, {r0, r2, r4, r7, r8, r9, ip, sp}
 8005b44:	080032df 	stmdaeq	r0, {r0, r1, r2, r3, r4, r6, r7, r9, ip, sp}
 8005b48:	00000003 	andeq	r0, r0, r3
 8005b4c:	08004709 	stmdaeq	r0, {r0, r3, r8, r9, sl, lr}
 8005b50:	080035c5 	stmdaeq	r0, {r0, r2, r6, r7, r8, sl, ip, sp}

08005b54 <PDUM2>:
 8005b54:	08003301 	stmdaeq	r0, {r0, r8, r9, ip, sp}
 8005b58:	08005b3c 	stmdaeq	r0, {r2, r3, r4, r5, r8, r9, fp, ip, lr}
 8005b5c:	080033a1 	stmdaeq	r0, {r0, r5, r7, r8, r9, ip, sp}
 8005b60:	080039ed 	stmdaeq	r0, {r0, r2, r3, r5, r6, r7, r8, fp, ip, sp}
 8005b64:	08003361 	stmdaeq	r0, {r0, r5, r6, r8, r9, ip, sp}
 8005b68:	080030bb 	stmdaeq	r0, {r0, r1, r3, r4, r5, r7, ip, sp}
 8005b6c:	08005acc 	stmdaeq	r0, {r2, r3, r6, r7, r9, fp, ip, lr}

08005b70 <_DUMP>:
 8005b70:	4d554404 	cfldrdmi	mvd4, [r5, #-16]
 8005b74:	bf000050 	svclt	0x00000050

08005b78 <DUMP>:
 8005b78:	4750      	bx	sl
 8005b7a:	bf00      	nop
 8005b7c:	080032df 	stmdaeq	r0, {r0, r1, r2, r3, r4, r6, r7, r9, ip, sp}
 8005b80:	0000000f 	andeq	r0, r0, pc
 8005b84:	08003569 	stmdaeq	r0, {r0, r3, r5, r6, r8, sl, ip, sp}
 8005b88:	080032df 	stmdaeq	r0, {r0, r1, r2, r3, r4, r6, r7, r9, ip, sp}
 8005b8c:	fffffff0 			; <UNDEFINED> instruction: 0xfffffff0
 8005b90:	080034e9 	stmdaeq	r0, {r0, r3, r5, r6, r7, sl, ip, sp}
 8005b94:	08003479 	stmdaeq	r0, {r0, r3, r4, r5, r6, sl, ip, sp}
 8005b98:	080032df 	stmdaeq	r0, {r0, r1, r2, r3, r4, r6, r7, r9, ip, sp}
 8005b9c:	fffffffc 			; <UNDEFINED> instruction: 0xfffffffc
 8005ba0:	080034e9 	stmdaeq	r0, {r0, r3, r5, r6, r7, sl, ip, sp}
 8005ba4:	08003479 	stmdaeq	r0, {r0, r3, r4, r5, r6, sl, ip, sp}
 8005ba8:	080039d5 	stmdaeq	r0, {r0, r2, r4, r6, r7, r8, fp, ip, sp}
 8005bac:	08003375 	stmdaeq	r0, {r0, r2, r4, r5, r6, r8, r9, ip, sp}
 8005bb0:	080033e5 	stmdaeq	r0, {r0, r2, r5, r6, r7, r8, r9, ip, sp}
 8005bb4:	080042c1 	stmdaeq	r0, {r0, r6, r7, r9, lr}
 8005bb8:	080032df 	stmdaeq	r0, {r0, r1, r2, r3, r4, r6, r7, r9, ip, sp}
 8005bbc:	00000010 	andeq	r0, r0, r0, lsl r0
 8005bc0:	08003e41 	stmdaeq	r0, {r0, r6, r9, sl, fp, ip, sp}
 8005bc4:	080033e5 	stmdaeq	r0, {r0, r2, r5, r6, r7, r8, r9, ip, sp}
 8005bc8:	08003347 	stmdaeq	r0, {r0, r1, r2, r6, r8, r9, ip, sp}
 8005bcc:	08005bf8 	stmdaeq	r0, {r3, r4, r5, r6, r7, r8, r9, fp, ip, lr}

08005bd0 <DUMP1>:
 8005bd0:	080045e5 	stmdaeq	r0, {r0, r2, r5, r6, r7, r8, sl, lr}
 8005bd4:	080032df 	stmdaeq	r0, {r0, r1, r2, r3, r4, r6, r7, r9, ip, sp}
 8005bd8:	00000010 	andeq	r0, r0, r0, lsl r0
 8005bdc:	080036dd 	stmdaeq	r0, {r0, r2, r3, r4, r6, r7, r9, sl, ip, sp}
 8005be0:	08005afd 	stmdaeq	r0, {r0, r2, r3, r4, r5, r6, r7, r9, fp, ip, lr}
 8005be4:	0800368d 	stmdaeq	r0, {r0, r2, r3, r7, r9, sl, ip, sp}
 8005be8:	0800368d 	stmdaeq	r0, {r0, r2, r3, r7, r9, sl, ip, sp}
 8005bec:	0800455d 	stmdaeq	r0, {r0, r2, r3, r4, r6, r8, sl, lr}
 8005bf0:	0800455d 	stmdaeq	r0, {r0, r2, r3, r4, r6, r8, sl, lr}
 8005bf4:	080045b1 	stmdaeq	r0, {r0, r4, r5, r7, r8, sl, lr}

08005bf8 <DUMP4>:
 8005bf8:	08003301 	stmdaeq	r0, {r0, r8, r9, ip, sp}
 8005bfc:	08005bd0 	stmdaeq	r0, {r4, r6, r7, r8, r9, fp, ip, lr}

08005c00 <DUMP3>:
 8005c00:	08003459 	stmdaeq	r0, {r0, r3, r4, r6, sl, ip, sp}
 8005c04:	080033a1 	stmdaeq	r0, {r0, r5, r7, r8, r9, ip, sp}
 8005c08:	080039d5 	stmdaeq	r0, {r0, r2, r4, r6, r7, r8, fp, ip, sp}
 8005c0c:	08003361 	stmdaeq	r0, {r0, r5, r6, r8, r9, ip, sp}
 8005c10:	080030bb 	stmdaeq	r0, {r0, r1, r3, r4, r5, r7, ip, sp}

08005c14 <TDOT>:
 8005c14:	4750      	bx	sl
 8005c16:	bf00      	nop
 8005c18:	080039d5 	stmdaeq	r0, {r0, r2, r4, r6, r7, r8, fp, ip, sp}
 8005c1c:	08003375 	stmdaeq	r0, {r0, r2, r4, r5, r6, r8, r9, ip, sp}
 8005c20:	080033e5 	stmdaeq	r0, {r0, r2, r5, r6, r7, r8, r9, ip, sp}
 8005c24:	080042c1 	stmdaeq	r0, {r0, r6, r7, r9, lr}
 8005c28:	08003a69 	stmdaeq	r0, {r0, r3, r5, r6, r9, fp, ip, sp}
 8005c2c:	08003375 	stmdaeq	r0, {r0, r2, r4, r5, r6, r8, r9, ip, sp}
 8005c30:	080033e5 	stmdaeq	r0, {r0, r2, r5, r6, r7, r8, r9, ip, sp}
 8005c34:	08003fa1 	stmdaeq	r0, {r0, r5, r7, r8, r9, sl, fp, ip, sp}
 8005c38:	080032df 	stmdaeq	r0, {r0, r1, r2, r3, r4, r6, r7, r9, ip, sp}
 8005c3c:	000000a0 	andeq	r0, r0, r0, lsr #1
 8005c40:	08003569 	stmdaeq	r0, {r0, r3, r5, r6, r8, sl, ip, sp}
 8005c44:	08003469 	stmdaeq	r0, {r0, r3, r5, r6, sl, ip, sp}
 8005c48:	080033e5 	stmdaeq	r0, {r0, r2, r5, r6, r7, r8, r9, ip, sp}
 8005c4c:	08003a69 	stmdaeq	r0, {r0, r3, r5, r6, r9, fp, ip, sp}
 8005c50:	08003361 	stmdaeq	r0, {r0, r5, r6, r8, r9, ip, sp}
 8005c54:	080032df 	stmdaeq	r0, {r0, r1, r2, r3, r4, r6, r7, r9, ip, sp}
 8005c58:	00000000 	andeq	r0, r0, r0
 8005c5c:	08004211 	stmdaeq	r0, {r0, r4, r9, lr}
 8005c60:	08003459 	stmdaeq	r0, {r0, r3, r4, r6, sl, ip, sp}
 8005c64:	080032df 	stmdaeq	r0, {r0, r1, r2, r3, r4, r6, r7, r9, ip, sp}
 8005c68:	00000024 	andeq	r0, r0, r4, lsr #32
 8005c6c:	080041c5 	stmdaeq	r0, {r0, r2, r6, r7, r8, lr}
 8005c70:	08003a69 	stmdaeq	r0, {r0, r3, r5, r6, r9, fp, ip, sp}
 8005c74:	08003375 	stmdaeq	r0, {r0, r2, r4, r5, r6, r8, r9, ip, sp}
 8005c78:	080033a1 	stmdaeq	r0, {r0, r5, r7, r8, r9, ip, sp}
 8005c7c:	080034a9 	stmdaeq	r0, {r0, r3, r5, r7, sl, ip, sp}
 8005c80:	08003579 	stmdaeq	r0, {r0, r3, r4, r5, r6, r8, sl, ip, sp}
 8005c84:	0800455d 	stmdaeq	r0, {r0, r2, r3, r4, r6, r8, sl, lr}
 8005c88:	080045b1 	stmdaeq	r0, {r0, r4, r5, r7, r8, sl, lr}
 8005c8c:	080033a1 	stmdaeq	r0, {r0, r5, r7, r8, r9, ip, sp}
 8005c90:	08003a69 	stmdaeq	r0, {r0, r3, r5, r6, r9, fp, ip, sp}
 8005c94:	08003361 	stmdaeq	r0, {r0, r5, r6, r8, r9, ip, sp}
 8005c98:	080033a1 	stmdaeq	r0, {r0, r5, r7, r8, r9, ip, sp}
 8005c9c:	080039d5 	stmdaeq	r0, {r0, r2, r4, r6, r7, r8, fp, ip, sp}
 8005ca0:	08003361 	stmdaeq	r0, {r0, r5, r6, r8, r9, ip, sp}
 8005ca4:	080030bb 	stmdaeq	r0, {r0, r1, r3, r4, r5, r7, ip, sp}
 8005ca8:	08005b70 	stmdaeq	r0, {r4, r5, r6, r8, r9, fp, ip, lr}

08005cac <_DOTS>:
 8005cac:	00532e02 	subseq	r2, r3, r2, lsl #28

08005cb0 <DOTS>:
 8005cb0:	4750      	bx	sl
 8005cb2:	bf00      	nop
 8005cb4:	08003f49 	stmdaeq	r0, {r0, r3, r6, r8, r9, sl, fp, ip, sp}
 8005cb8:	080033e5 	stmdaeq	r0, {r0, r2, r5, r6, r7, r8, r9, ip, sp}
 8005cbc:	08003347 	stmdaeq	r0, {r0, r1, r2, r6, r8, r9, ip, sp}
 8005cc0:	08005cd0 	stmdaeq	r0, {r4, r6, r7, sl, fp, ip, lr}

08005cc4 <DOTS1>:
 8005cc4:	080033d1 	stmdaeq	r0, {r0, r4, r6, r7, r8, r9, ip, sp}
 8005cc8:	08003f6d 	stmdaeq	r0, {r0, r2, r3, r5, r6, r8, r9, sl, fp, ip, sp}
 8005ccc:	08005c15 	stmdaeq	r0, {r0, r2, r4, sl, fp, ip, lr}

08005cd0 <DOTS2>:
 8005cd0:	08003301 	stmdaeq	r0, {r0, r8, r9, ip, sp}
 8005cd4:	08005cc4 	stmdaeq	r0, {r2, r6, r7, sl, fp, ip, lr}
 8005cd8:	080045e5 	stmdaeq	r0, {r0, r2, r5, r6, r7, r8, sl, lr}
 8005cdc:	080030bb 	stmdaeq	r0, {r0, r1, r3, r4, r5, r7, ip, sp}

08005ce0 <RBASE>:
 8005ce0:	f847 6d04 	str.w	r6, [r7, #-4]!
 8005ce4:	f64f 7680 	movw	r6, #65408	; 0xff80
 8005ce8:	f2c2 0601 	movt	r6, #8193	; 0x2001
 8005cec:	f7fd b9e2 	b.w	80030b4 <INEXT>

08005cf0 <RDOT>:
 8005cf0:	4750      	bx	sl
 8005cf2:	bf00      	nop
 8005cf4:	08005ce1 	stmdaeq	r0, {r0, r5, r6, r7, sl, fp, ip, lr}
 8005cf8:	08003445 	stmdaeq	r0, {r0, r2, r6, sl, ip, sp}
 8005cfc:	08003579 	stmdaeq	r0, {r0, r3, r4, r5, r6, r8, sl, ip, sp}
 8005d00:	08003649 	stmdaeq	r0, {r0, r3, r6, r9, sl, ip, sp}
 8005d04:	080032df 	stmdaeq	r0, {r0, r1, r2, r3, r4, r6, r7, r9, ip, sp}
 8005d08:	00000002 	andeq	r0, r0, r2
 8005d0c:	08003579 	stmdaeq	r0, {r0, r3, r4, r5, r6, r8, sl, ip, sp}
 8005d10:	080033e5 	stmdaeq	r0, {r0, r2, r5, r6, r7, r8, r9, ip, sp}
 8005d14:	08005ce1 	stmdaeq	r0, {r0, r5, r6, r7, sl, fp, ip, lr}
 8005d18:	08003615 	stmdaeq	r0, {r0, r2, r4, r9, sl, ip, sp}
 8005d1c:	08003469 	stmdaeq	r0, {r0, r3, r5, r6, sl, ip, sp}
 8005d20:	08003375 	stmdaeq	r0, {r0, r2, r4, r5, r6, r8, r9, ip, sp}
 8005d24:	08005c15 	stmdaeq	r0, {r0, r2, r4, sl, fp, ip, lr}
 8005d28:	080033a1 	stmdaeq	r0, {r0, r5, r7, r8, r9, ip, sp}
 8005d2c:	080035d5 	stmdaeq	r0, {r0, r2, r4, r6, r7, r8, sl, ip, sp}
 8005d30:	08003469 	stmdaeq	r0, {r0, r3, r5, r6, sl, ip, sp}
 8005d34:	080033e5 	stmdaeq	r0, {r0, r2, r5, r6, r7, r8, r9, ip, sp}
 8005d38:	080037e1 	stmdaeq	r0, {r0, r5, r6, r7, r8, r9, sl, ip, sp}
 8005d3c:	0800331f 	stmdaeq	r0, {r0, r1, r2, r3, r4, r8, r9, ip, sp}
 8005d40:	08005d18 	stmdaeq	r0, {r3, r4, r8, sl, fp, ip, lr}
 8005d44:	080033a1 	stmdaeq	r0, {r0, r5, r7, r8, r9, ip, sp}
 8005d48:	080036b5 	stmdaeq	r0, {r0, r2, r4, r5, r7, r9, sl, ip, sp}
 8005d4c:	080045e5 	stmdaeq	r0, {r0, r2, r5, r6, r7, r8, sl, lr}
 8005d50:	080030bb 	stmdaeq	r0, {r0, r1, r3, r4, r5, r7, ip, sp}
 8005d54:	08005cac 	stmdaeq	r0, {r2, r3, r5, r7, sl, fp, ip, lr}

08005d58 <_TRACE>:
 8005d58:	41525405 	cmpmi	r2, r5, lsl #8
 8005d5c:	bf004543 	svclt	0x00004543

08005d60 <TRACE>:
 8005d60:	4750      	bx	sl
 8005d62:	bf00      	nop
 8005d64:	080045e5 	stmdaeq	r0, {r0, r2, r5, r6, r7, r8, sl, lr}
 8005d68:	080032df 	stmdaeq	r0, {r0, r1, r2, r3, r4, r6, r7, r9, ip, sp}
 8005d6c:	0000003e 	andeq	r0, r0, lr, lsr r0
 8005d70:	080032df 	stmdaeq	r0, {r0, r1, r2, r3, r4, r6, r7, r9, ip, sp}
 8005d74:	00000053 	andeq	r0, r0, r3, asr r0
 8005d78:	0800317d 	stmdaeq	r0, {r0, r2, r3, r4, r5, r6, r8, ip, sp}
 8005d7c:	0800317d 	stmdaeq	r0, {r0, r2, r3, r4, r5, r6, r8, ip, sp}
 8005d80:	08005cb1 	stmdaeq	r0, {r0, r4, r5, r7, sl, fp, ip, lr}
 8005d84:	080032df 	stmdaeq	r0, {r0, r1, r2, r3, r4, r6, r7, r9, ip, sp}
 8005d88:	0000003e 	andeq	r0, r0, lr, lsr r0
 8005d8c:	080032df 	stmdaeq	r0, {r0, r1, r2, r3, r4, r6, r7, r9, ip, sp}
 8005d90:	00000052 	andeq	r0, r0, r2, asr r0
 8005d94:	0800317d 	stmdaeq	r0, {r0, r2, r3, r4, r5, r6, r8, ip, sp}
 8005d98:	0800317d 	stmdaeq	r0, {r0, r2, r3, r4, r5, r6, r8, ip, sp}
 8005d9c:	08005cf1 	stmdaeq	r0, {r0, r4, r5, r6, r7, sl, fp, ip, lr}
 8005da0:	080030bb 	stmdaeq	r0, {r0, r1, r3, r4, r5, r7, ip, sp}
 8005da4:	08005d58 	stmdaeq	r0, {r3, r4, r6, r8, sl, fp, ip, lr}

08005da8 <_TOBODY>:
 8005da8:	4f423e05 	svcmi	0x00423e05
 8005dac:	bf005944 	svclt	0x00005944

08005db0 <TOBODY>:
 8005db0:	f106 0608 	add.w	r6, r6, #8
 8005db4:	f7fd b97e 	b.w	80030b4 <INEXT>
 8005db8:	08005da8 	stmdaeq	r0, {r3, r5, r7, r8, sl, fp, ip, lr}

08005dbc <_TNAME>:
 8005dbc:	414e3e05 	cmpmi	lr, r5, lsl #28
 8005dc0:	bf00454d 	svclt	0x0000454d

08005dc4 <TNAME>:
 8005dc4:	4750      	bx	sl
 8005dc6:	bf00      	nop
 8005dc8:	080033e5 	stmdaeq	r0, {r0, r2, r5, r6, r7, r8, r9, ip, sp}
 8005dcc:	08003a81 	stmdaeq	r0, {r0, r7, r9, fp, ip, sp}
 8005dd0:	08003375 	stmdaeq	r0, {r0, r2, r4, r5, r6, r8, r9, ip, sp}

08005dd4 <TNAM1>:
 8005dd4:	08003469 	stmdaeq	r0, {r0, r3, r5, r6, sl, ip, sp}
 8005dd8:	0800331f 	stmdaeq	r0, {r0, r1, r2, r3, r4, r8, r9, ip, sp}
 8005ddc:	08005e08 	stmdaeq	r0, {r3, r9, sl, fp, ip, lr}
 8005de0:	08003469 	stmdaeq	r0, {r0, r3, r5, r6, sl, ip, sp}
 8005de4:	08004b09 	stmdaeq	r0, {r0, r3, r8, r9, fp, lr}
 8005de8:	080033d1 	stmdaeq	r0, {r0, r4, r6, r7, r8, r9, ip, sp}
 8005dec:	08003511 	stmdaeq	r0, {r0, r4, r8, sl, ip, sp}
 8005df0:	0800331f 	stmdaeq	r0, {r0, r1, r2, r3, r4, r8, r9, ip, sp}
 8005df4:	08005e08 	stmdaeq	r0, {r3, r9, sl, fp, ip, lr}
 8005df8:	08003615 	stmdaeq	r0, {r0, r2, r4, r9, sl, ip, sp}
 8005dfc:	08003375 	stmdaeq	r0, {r0, r2, r4, r5, r6, r8, r9, ip, sp}
 8005e00:	08003347 	stmdaeq	r0, {r0, r1, r2, r6, r8, r9, ip, sp}
 8005e04:	08005dd4 	stmdaeq	r0, {r2, r4, r6, r7, r8, sl, fp, ip, lr}

08005e08 <TNAM2>:
 8005e08:	080033a1 	stmdaeq	r0, {r0, r5, r7, r8, r9, ip, sp}
 8005e0c:	08003459 	stmdaeq	r0, {r0, r3, r4, r6, sl, ip, sp}
 8005e10:	080030bb 	stmdaeq	r0, {r0, r1, r3, r4, r5, r7, ip, sp}
 8005e14:	08005dbc 	stmdaeq	r0, {r2, r3, r4, r5, r7, r8, sl, fp, ip, lr}

08005e18 <_DOTID>:
 8005e18:	44492e03 	strbmi	r2, [r9], #-3587	; 0xfffff1fd

08005e1c <DOTID>:
 8005e1c:	4750      	bx	sl
 8005e1e:	bf00      	nop
 8005e20:	08003679 	stmdaeq	r0, {r0, r3, r4, r5, r6, r9, sl, ip, sp}
 8005e24:	0800331f 	stmdaeq	r0, {r0, r1, r2, r3, r4, r8, r9, ip, sp}
 8005e28:	08005e44 	stmdaeq	r0, {r2, r6, r9, sl, fp, ip, lr}
 8005e2c:	08003909 	stmdaeq	r0, {r0, r3, r8, fp, ip, sp}
 8005e30:	080032df 	stmdaeq	r0, {r0, r1, r2, r3, r4, r6, r7, r9, ip, sp}
 8005e34:	0000001f 	andeq	r0, r0, pc, lsl r0
 8005e38:	080034e9 	stmdaeq	r0, {r0, r3, r5, r6, r7, sl, ip, sp}
 8005e3c:	080045b1 	stmdaeq	r0, {r0, r4, r5, r7, r8, sl, lr}
 8005e40:	080030bb 	stmdaeq	r0, {r0, r1, r3, r4, r5, r7, ip, sp}

08005e44 <DOTI1>:
 8005e44:	08004641 	stmdaeq	r0, {r0, r6, r9, sl, lr}
 8005e48:	6e7b2009 	cdpvs	0, 7, cr2, cr11, cr9, {0}
 8005e4c:	6d614e6f 	stclvs	14, cr4, [r1, #-444]!	; 0xfffffe44
 8005e50:	bf007d65 	svclt	0x00007d65
 8005e54:	080030bb 	stmdaeq	r0, {r0, r1, r3, r4, r5, r7, ip, sp}
 8005e58:	08005e18 	stmdaeq	r0, {r3, r4, r9, sl, fp, ip, lr}

08005e5c <_WORDS>:
 8005e5c:	524f5705 	subpl	r5, pc, #1310720	; 0x140000
 8005e60:	bf005344 	svclt	0x00005344

08005e64 <WORDS>:
 8005e64:	4750      	bx	sl
 8005e66:	bf00      	nop
 8005e68:	080045e5 	stmdaeq	r0, {r0, r2, r5, r6, r7, r8, sl, lr}
 8005e6c:	08003a81 	stmdaeq	r0, {r0, r7, r9, fp, ip, sp}
 8005e70:	08003375 	stmdaeq	r0, {r0, r2, r4, r5, r6, r8, r9, ip, sp}

08005e74 <WORS1>:
 8005e74:	08003679 	stmdaeq	r0, {r0, r3, r4, r5, r6, r9, sl, ip, sp}
 8005e78:	0800331f 	stmdaeq	r0, {r0, r1, r2, r3, r4, r8, r9, ip, sp}
 8005e7c:	08005e9c 	stmdaeq	r0, {r2, r3, r4, r7, r9, sl, fp, ip, lr}
 8005e80:	08003469 	stmdaeq	r0, {r0, r3, r5, r6, sl, ip, sp}
 8005e84:	0800455d 	stmdaeq	r0, {r0, r2, r3, r4, r6, r8, sl, lr}
 8005e88:	08005e1d 	stmdaeq	r0, {r0, r2, r3, r4, r9, sl, fp, ip, lr}
 8005e8c:	08003615 	stmdaeq	r0, {r0, r2, r4, r9, sl, ip, sp}
 8005e90:	08003375 	stmdaeq	r0, {r0, r2, r4, r5, r6, r8, r9, ip, sp}
 8005e94:	08003347 	stmdaeq	r0, {r0, r1, r2, r6, r8, r9, ip, sp}
 8005e98:	08005e74 	stmdaeq	r0, {r2, r4, r5, r6, r9, sl, fp, ip, lr}

08005e9c <WORS2>:
 8005e9c:	080030bb 	stmdaeq	r0, {r0, r1, r3, r4, r5, r7, ip, sp}
 8005ea0:	08005e5c 	stmdaeq	r0, {r2, r3, r4, r6, r9, sl, fp, ip, lr}

08005ea4 <_MARK>:
 8005ea4:	52414d04 	subpl	r4, r1, #4, 26	; 0x100
 8005ea8:	bf00004b 	svclt	0x0000004b

08005eac <MARK>:
 8005eac:	4750      	bx	sl
 8005eae:	bf00      	nop
 8005eb0:	08005aa5 	stmdaeq	r0, {r0, r2, r5, r7, r9, fp, ip, lr}
 8005eb4:	08005999 	stmdaeq	r0, {r0, r3, r4, r7, r8, fp, ip, lr}
 8005eb8:	080030bb 	stmdaeq	r0, {r0, r1, r3, r4, r5, r7, ip, sp}
 8005ebc:	4750      	bx	sl
 8005ebe:	bf00      	nop
 8005ec0:	080033a1 	stmdaeq	r0, {r0, r5, r7, r8, r9, ip, sp}
 8005ec4:	080032df 	stmdaeq	r0, {r0, r1, r2, r3, r4, r6, r7, r9, ip, sp}
 8005ec8:	00000008 	andeq	r0, r0, r8
 8005ecc:	08003579 	stmdaeq	r0, {r0, r3, r4, r5, r6, r8, sl, ip, sp}
 8005ed0:	08005dc5 	stmdaeq	r0, {r0, r2, r6, r7, r8, sl, fp, ip, lr}
 8005ed4:	08003615 	stmdaeq	r0, {r0, r2, r4, r9, sl, ip, sp}
 8005ed8:	08003375 	stmdaeq	r0, {r0, r2, r4, r5, r6, r8, r9, ip, sp}
 8005edc:	08003ac1 	stmdaeq	r0, {r0, r6, r7, r9, fp, ip, sp}
 8005ee0:	08003361 	stmdaeq	r0, {r0, r5, r6, r8, r9, ip, sp}
 8005ee4:	08005871 	stmdaeq	r0, {r0, r4, r5, r6, fp, ip, lr}
 8005ee8:	080030bb 	stmdaeq	r0, {r0, r1, r3, r4, r5, r7, ip, sp}
 8005eec:	08005ea4 	stmdaeq	r0, {r2, r5, r7, r9, sl, fp, ip, lr}

08005ef0 <_ARRAY>:
 8005ef0:	52524105 	subspl	r4, r2, #1073741825	; 0x40000001
 8005ef4:	bf005941 	svclt	0x00005941

08005ef8 <ARRAY>:
 8005ef8:	4750      	bx	sl
 8005efa:	bf00      	nop
 8005efc:	08004ae9 	stmdaeq	r0, {r0, r3, r5, r6, r7, r9, fp, lr}
 8005f00:	08005775 	stmdaeq	r0, {r0, r2, r4, r5, r6, r8, r9, sl, ip, lr}
 8005f04:	08005871 	stmdaeq	r0, {r0, r4, r5, r6, fp, ip, lr}
 8005f08:	080030c5 	stmdaeq	r0, {r0, r2, r6, r7, ip, sp}
 8005f0c:	080032df 	stmdaeq	r0, {r0, r1, r2, r3, r4, r6, r7, r9, ip, sp}
 8005f10:	08005f38 	stmdaeq	r0, {r3, r4, r5, r8, r9, sl, fp, ip, lr}
 8005f14:	080058dd 	stmdaeq	r0, {r0, r2, r3, r4, r6, r7, fp, ip, lr}
 8005f18:	080032df 	stmdaeq	r0, {r0, r1, r2, r3, r4, r6, r7, r9, ip, sp}
 8005f1c:	080030ba 	stmdaeq	r0, {r1, r3, r4, r5, r7, ip, sp}
 8005f20:	080058dd 	stmdaeq	r0, {r0, r2, r3, r4, r6, r7, fp, ip, lr}
 8005f24:	080032df 	stmdaeq	r0, {r0, r1, r2, r3, r4, r6, r7, r9, ip, sp}
 8005f28:	00000004 	andeq	r0, r0, r4
 8005f2c:	08003589 	stmdaeq	r0, {r0, r3, r7, r8, sl, ip, sp}
 8005f30:	080052a9 	stmdaeq	r0, {r0, r3, r5, r7, r9, ip, lr}
 8005f34:	080030bb 	stmdaeq	r0, {r0, r1, r3, r4, r5, r7, ip, sp}

08005f38 <DO_ARRAY>:
 8005f38:	4750      	bx	sl
 8005f3a:	bf00      	nop
 8005f3c:	080032df 	stmdaeq	r0, {r0, r1, r2, r3, r4, r6, r7, r9, ip, sp}
 8005f40:	00000004 	andeq	r0, r0, r4
 8005f44:	08003589 	stmdaeq	r0, {r0, r3, r7, r8, sl, ip, sp}
 8005f48:	080033d1 	stmdaeq	r0, {r0, r4, r6, r7, r8, r9, ip, sp}
 8005f4c:	08003605 	stmdaeq	r0, {r0, r2, r9, sl, ip, sp}
 8005f50:	08003569 	stmdaeq	r0, {r0, r3, r5, r6, r8, sl, ip, sp}
 8005f54:	080030bb 	stmdaeq	r0, {r0, r1, r3, r4, r5, r7, ip, sp}

08005f58 <VERSN>:
 8005f58:	4750      	bx	sl
 8005f5a:	bf00      	nop
 8005f5c:	080032df 	stmdaeq	r0, {r0, r1, r2, r3, r4, r6, r7, r9, ip, sp}
 8005f60:	00000100 	andeq	r0, r0, r0, lsl #2
 8005f64:	080030bb 	stmdaeq	r0, {r0, r1, r3, r4, r5, r7, ip, sp}
 8005f68:	08005ef0 	stmdaeq	r0, {r4, r5, r6, r7, r9, sl, fp, ip, lr}

08005f6c <_HI>:
 8005f6c:	00494802 	subeq	r4, r9, r2, lsl #16

08005f70 <HI>:
 8005f70:	4750      	bx	sl
 8005f72:	bf00      	nop
 8005f74:	080045e5 	stmdaeq	r0, {r0, r2, r5, r6, r7, r8, sl, lr}
 8005f78:	08004641 	stmdaeq	r0, {r0, r6, r9, sl, lr}
 8005f7c:	79656211 	stmdbvc	r5!, {r0, r4, r9, sp, lr}^
 8005f80:	20646e6f 	rsbcs	r6, r4, pc, ror #28
 8005f84:	6970754a 	ldmdbvs	r0!, {r1, r3, r6, r8, sl, ip, sp, lr}^
 8005f88:	2c726574 	cfldr64cs	mvdx6, [r2], #-464	; 0xfffffe30
 8005f8c:	bf007620 	svclt	0x00007620
 8005f90:	080039d5 	stmdaeq	r0, {r0, r2, r4, r6, r7, r8, fp, ip, sp}
 8005f94:	08003375 	stmdaeq	r0, {r0, r2, r4, r5, r6, r8, r9, ip, sp}
 8005f98:	080042c1 	stmdaeq	r0, {r0, r6, r7, r9, lr}
 8005f9c:	08005f59 	stmdaeq	r0, {r0, r3, r4, r6, r8, r9, sl, fp, ip, lr}
 8005fa0:	080041a5 	stmdaeq	r0, {r0, r2, r5, r7, r8, lr}
 8005fa4:	080032df 	stmdaeq	r0, {r0, r1, r2, r3, r4, r6, r7, r9, ip, sp}
 8005fa8:	00000000 	andeq	r0, r0, r0
 8005fac:	080041f1 	stmdaeq	r0, {r0, r4, r5, r6, r7, r8, lr}
 8005fb0:	080041f1 	stmdaeq	r0, {r0, r4, r5, r6, r7, r8, lr}
 8005fb4:	080032df 	stmdaeq	r0, {r0, r1, r2, r3, r4, r6, r7, r9, ip, sp}
 8005fb8:	0000002e 	andeq	r0, r0, lr, lsr #32
 8005fbc:	080041c5 	stmdaeq	r0, {r0, r2, r6, r7, r8, lr}
 8005fc0:	08004211 	stmdaeq	r0, {r0, r4, r9, lr}
 8005fc4:	0800426d 	stmdaeq	r0, {r0, r2, r3, r5, r6, r9, lr}
 8005fc8:	080045b1 	stmdaeq	r0, {r0, r4, r5, r7, r8, sl, lr}
 8005fcc:	080039d5 	stmdaeq	r0, {r0, r2, r4, r6, r7, r8, fp, ip, sp}
 8005fd0:	08003361 	stmdaeq	r0, {r0, r5, r6, r8, r9, ip, sp}
 8005fd4:	080045e5 	stmdaeq	r0, {r0, r2, r5, r6, r7, r8, sl, lr}
 8005fd8:	080030bb 	stmdaeq	r0, {r0, r1, r3, r4, r5, r7, ip, sp}

08005fdc <HI_BOTH>:
 8005fdc:	4750      	bx	sl
 8005fde:	bf00      	nop
 8005fe0:	08000e01 	stmdaeq	r0, {r0, r9, sl, fp}
 8005fe4:	08000e31 	stmdaeq	r0, {r0, r4, r5, r9, sl, fp}
 8005fe8:	08005f71 	stmdaeq	r0, {r0, r4, r5, r6, r8, r9, sl, fp, ip, lr}
 8005fec:	08000e19 	stmdaeq	r0, {r0, r3, r4, r9, sl, fp}
 8005ff0:	08000e31 	stmdaeq	r0, {r0, r4, r5, r9, sl, fp}
 8005ff4:	08005f71 	stmdaeq	r0, {r0, r4, r5, r6, r8, r9, sl, fp, ip, lr}
 8005ff8:	080030bb 	stmdaeq	r0, {r0, r1, r3, r4, r5, r7, ip, sp}

08005ffc <PS2_QUERY>:
 8005ffc:	4750      	bx	sl
 8005ffe:	bf00      	nop
 8006000:	080032df 	stmdaeq	r0, {r0, r1, r2, r3, r4, r6, r7, r9, ip, sp}
 8006004:	00000190 	muleq	r0, r0, r1
 8006008:	08003215 	stmdaeq	r0, {r0, r2, r4, r9, ip, sp}
 800600c:	08001c21 	stmdaeq	r0, {r0, r5, sl, fp, ip}
 8006010:	0800331f 	stmdaeq	r0, {r0, r1, r2, r3, r4, r8, r9, ip, sp}
 8006014:	0800602c 	stmdaeq	r0, {r2, r3, r5, sp, lr}
 8006018:	080032df 	stmdaeq	r0, {r0, r1, r2, r3, r4, r6, r7, r9, ip, sp}
 800601c:	000000aa 	andeq	r0, r0, sl, lsr #1
 8006020:	08003511 	stmdaeq	r0, {r0, r4, r8, sl, ip, sp}
 8006024:	0800331f 	stmdaeq	r0, {r0, r1, r2, r3, r4, r8, r9, ip, sp}
 8006028:	08006070 	stmdaeq	r0, {r4, r5, r6, sp, lr}
 800602c:	08001e09 	stmdaeq	r0, {r0, r3, r9, sl, fp, ip}
 8006030:	080032df 	stmdaeq	r0, {r0, r1, r2, r3, r4, r6, r7, r9, ip, sp}
 8006034:	000000aa 	andeq	r0, r0, sl, lsr #1
 8006038:	08003511 	stmdaeq	r0, {r0, r4, r8, sl, ip, sp}
 800603c:	0800331f 	stmdaeq	r0, {r0, r1, r2, r3, r4, r8, r9, ip, sp}
 8006040:	08006070 	stmdaeq	r0, {r4, r5, r6, sp, lr}
 8006044:	080045e5 	stmdaeq	r0, {r0, r2, r5, r6, r7, r8, sl, lr}
 8006048:	08004641 	stmdaeq	r0, {r0, r6, r9, sl, lr}
 800604c:	206f6e19 	rsbcs	r6, pc, r9, lsl lr	; <UNPREDICTABLE>
 8006050:	20325350 	eorscs	r5, r2, r0, asr r3
 8006054:	6279656b 	rsbsvs	r6, r9, #448790528	; 0x1ac00000
 8006058:	6472616f 	ldrbtvs	r6, [r2], #-367	; 0xfffffe91
 800605c:	74656420 	strbtvc	r6, [r5], #-1056	; 0xfffffbe0
 8006060:	65746365 	ldrbvs	r6, [r4, #-869]!	; 0xfffffc9b
 8006064:	bf002e64 	svclt	0x00002e64
 8006068:	08000e19 	stmdaeq	r0, {r0, r3, r4, r9, sl, fp}
 800606c:	08000e31 	stmdaeq	r0, {r0, r4, r5, r9, sl, fp}
 8006070:	080030bb 	stmdaeq	r0, {r0, r1, r3, r4, r5, r7, ip, sp}

08006074 <IF_SENSE>:
 8006074:	4750      	bx	sl
 8006076:	bf00      	nop
 8006078:	08000e01 	stmdaeq	r0, {r0, r9, sl, fp}
 800607c:	080032df 	stmdaeq	r0, {r0, r1, r2, r3, r4, r6, r7, r9, ip, sp}
 8006080:	40020010 	andmi	r0, r2, r0, lsl r0
 8006084:	08003375 	stmdaeq	r0, {r0, r2, r4, r5, r6, r8, r9, ip, sp}
 8006088:	080032df 	stmdaeq	r0, {r0, r1, r2, r3, r4, r6, r7, r9, ip, sp}
 800608c:	00000100 	andeq	r0, r0, r0, lsl #2
 8006090:	080034e9 	stmdaeq	r0, {r0, r3, r5, r6, r7, sl, ip, sp}
 8006094:	0800331f 	stmdaeq	r0, {r0, r1, r2, r3, r4, r8, r9, ip, sp}
 8006098:	080060a0 	stmdaeq	r0, {r5, r7, sp, lr}
 800609c:	080035c5 	stmdaeq	r0, {r0, r2, r6, r7, r8, sl, ip, sp}
 80060a0:	08000e31 	stmdaeq	r0, {r0, r4, r5, r9, sl, fp}
 80060a4:	080030bb 	stmdaeq	r0, {r0, r1, r3, r4, r5, r7, ip, sp}

080060a8 <READY>:
 80060a8:	4750      	bx	sl
 80060aa:	bf00      	nop
 80060ac:	08004641 	stmdaeq	r0, {r0, r6, r9, sl, lr}
 80060b0:	41455205 	cmpmi	r5, r5, lsl #4
 80060b4:	bf005944 	svclt	0x00005944
 80060b8:	080045e5 	stmdaeq	r0, {r0, r2, r5, r6, r7, r8, sl, lr}
 80060bc:	080030bb 	stmdaeq	r0, {r0, r1, r3, r4, r5, r7, ip, sp}
 80060c0:	08005f6c 	stmdaeq	r0, {r2, r3, r5, r6, r8, r9, sl, fp, ip, lr}

080060c4 <LINK>:
 80060c4:	4c4f4304 	mcrrmi	3, 0, r4, pc, cr4
 80060c8:	bf000044 	svclt	0x00000044

080060cc <COLD>:
 80060cc:	b500      	push	{lr}
 80060ce:	f7fa fb33 	bl	8000738 <forth_init>
 80060d2:	f85d eb04 	ldr.w	lr, [sp], #4
 80060d6:	f8df c05c 	ldr.w	ip, [pc, #92]	; 8006134 <COLD2+0x4>
 80060da:	f7fc bfeb 	b.w	80030b4 <INEXT>
 80060de:	bf00      	nop

080060e0 <COLD1>:
 80060e0:	080032df 	stmdaeq	r0, {r0, r1, r2, r3, r4, r6, r7, r9, ip, sp}
 80060e4:	00000000 	andeq	r0, r0, r0
 80060e8:	08003249 	stmdaeq	r0, {r0, r3, r6, r9, ip, sp}
 80060ec:	080032df 	stmdaeq	r0, {r0, r1, r2, r3, r4, r6, r7, r9, ip, sp}
 80060f0:	08000a64 	stmdaeq	r0, {r2, r5, r6, r9, fp}
 80060f4:	080032df 	stmdaeq	r0, {r0, r1, r2, r3, r4, r6, r7, r9, ip, sp}
 80060f8:	20000000 	andcs	r0, r0, r0
 80060fc:	080032df 	stmdaeq	r0, {r0, r1, r2, r3, r4, r6, r7, r9, ip, sp}
 8006100:	000000c0 	andeq	r0, r0, r0, asr #1
 8006104:	0800407d 	stmdaeq	r0, {r0, r2, r3, r4, r5, r6, lr}
 8006108:	08005141 	stmdaeq	r0, {r0, r6, r8, ip, lr}
 800610c:	080020b5 	stmdaeq	r0, {r0, r2, r4, r5, r7, sp}
 8006110:	08005ffd 	stmdaeq	r0, {r0, r2, r3, r4, r5, r6, r7, r8, r9, sl, fp, ip, lr}
 8006114:	080039bd 	stmdaeq	r0, {r0, r2, r3, r4, r5, r7, r8, fp, ip, sp}
 8006118:	0800402d 	stmdaeq	r0, {r0, r2, r3, r5, lr}
 800611c:	08005871 	stmdaeq	r0, {r0, r4, r5, r6, fp, ip, lr}
 8006120:	08006075 	stmdaeq	r0, {r0, r2, r4, r5, r6, sp, lr}
 8006124:	080060a9 	stmdaeq	r0, {r0, r3, r5, r7, sp, lr}
 8006128:	08003347 	stmdaeq	r0, {r0, r1, r2, r6, r8, r9, ip, sp}
 800612c:	0800517c 	stmdaeq	r0, {r2, r3, r4, r5, r6, r8, ip, lr}

08006130 <COLD2>:
 8006130:	ffffffff 			; <UNDEFINED> instruction: 0xffffffff
 8006134:	080060e0 	stmdaeq	r0, {r5, r6, r7, sp, lr}

Disassembly of section .rodata:

08006138 <__data_start>:
	...
 8006140:	20202020 	eorcs	r2, r0, r0, lsr #32
 8006144:	00200020 	eoreq	r0, r0, r0, lsr #32
 8006148:	00505050 	subseq	r5, r0, r0, asr r0
 800614c:	00000000 	andeq	r0, r0, r0
 8006150:	50f85050 	rscspl	r5, r8, r0, asr r0
 8006154:	005050f8 	ldrsheq	r5, [r0], #-8
 8006158:	70a07820 	adcvc	r7, r0, r0, lsr #16
 800615c:	0020f028 	eoreq	pc, r0, r8, lsr #32
 8006160:	2010c8c0 	andscs	ip, r0, r0, asr #17
 8006164:	00189840 	andseq	r9, r8, r0, asr #16
 8006168:	40a09060 	adcmi	r9, r0, r0, rrx
 800616c:	006890a8 	rsbeq	r9, r8, r8, lsr #1
 8006170:	00402060 	subeq	r2, r0, r0, rrx
 8006174:	00000000 	andeq	r0, r0, r0
 8006178:	40402010 	submi	r2, r0, r0, lsl r0
 800617c:	00102040 	andseq	r2, r0, r0, asr #32
 8006180:	10102040 	andsne	r2, r0, r0, asr #32
 8006184:	00402010 	subeq	r2, r0, r0, lsl r0
 8006188:	70a82000 	adcvc	r2, r8, r0
 800618c:	000020a8 	andeq	r2, r0, r8, lsr #1
 8006190:	f8202000 			; <UNDEFINED> instruction: 0xf8202000
 8006194:	00002020 	andeq	r2, r0, r0, lsr #32
 8006198:	00000000 	andeq	r0, r0, r0
 800619c:	00402060 	subeq	r2, r0, r0, rrx
 80061a0:	f0000000 			; <UNDEFINED> instruction: 0xf0000000
	...
 80061ac:	00606000 	rsbeq	r6, r0, r0
 80061b0:	20100800 	andscs	r0, r0, r0, lsl #16
 80061b4:	00008040 	andeq	r8, r0, r0, asr #32
 80061b8:	a8988870 	ldmge	r8, {r4, r5, r6, fp, pc}
 80061bc:	007088c8 	rsbseq	r8, r0, r8, asr #17
 80061c0:	20206020 	eorcs	r6, r0, r0, lsr #32
 80061c4:	00f82020 	rscseq	r2, r8, r0, lsr #32
 80061c8:	20108870 	andscs	r8, r0, r0, ror r8
 80061cc:	00f88040 	rscseq	r8, r8, r0, asr #32
 80061d0:	f00808f0 			; <UNDEFINED> instruction: 0xf00808f0
 80061d4:	00f00808 	rscseq	r0, r0, r8, lsl #16
 80061d8:	90503010 	subsls	r3, r0, r0, lsl r0
 80061dc:	001010f8 	ldrsheq	r1, [r0], -r8
 80061e0:	f08080f8 			; <UNDEFINED> instruction: 0xf08080f8
 80061e4:	00f00808 	rscseq	r0, r0, r8, lsl #16
 80061e8:	f0804030 			; <UNDEFINED> instruction: 0xf0804030
 80061ec:	00708888 	rsbseq	r8, r0, r8, lsl #17
 80061f0:	201008f8 			; <UNDEFINED> instruction: 0x201008f8
 80061f4:	00404040 	subeq	r4, r0, r0, asr #32
 80061f8:	70888870 	addvc	r8, r8, r0, ror r8
 80061fc:	00708888 	rsbseq	r8, r0, r8, lsl #17
 8006200:	70888870 	addvc	r8, r8, r0, ror r8
 8006204:	00700808 	rsbseq	r0, r0, r8, lsl #16
 8006208:	00606000 	rsbeq	r6, r0, r0
 800620c:	00006060 	andeq	r6, r0, r0, rrx
 8006210:	00606000 	rsbeq	r6, r0, r0
 8006214:	00402060 	subeq	r2, r0, r0, rrx
 8006218:	80402010 	subhi	r2, r0, r0, lsl r0
 800621c:	00102040 	andseq	r2, r0, r0, asr #32
 8006220:	00f80000 	rscseq	r0, r8, r0
 8006224:	000000f8 	strdeq	r0, [r0], -r8
 8006228:	08102040 	ldmdaeq	r0, {r6, sp}
 800622c:	00402010 	subeq	r2, r0, r0, lsl r0
 8006230:	10088870 	andne	r8, r8, r0, ror r8
 8006234:	00200020 	eoreq	r0, r0, r0, lsr #32
 8006238:	68088870 	stmdavs	r8, {r4, r5, r6, fp, pc}
 800623c:	0070a8a8 	rsbseq	sl, r0, r8, lsr #17
 8006240:	f8888870 			; <UNDEFINED> instruction: 0xf8888870
 8006244:	00888888 	addeq	r8, r8, r8, lsl #17
 8006248:	f08888f0 			; <UNDEFINED> instruction: 0xf08888f0
 800624c:	00f08888 	rscseq	r8, r0, r8, lsl #17
 8006250:	80808078 	addhi	r8, r0, r8, ror r0
 8006254:	00788080 	rsbseq	r8, r8, r0, lsl #1
 8006258:	888888f0 	stmhi	r8, {r4, r5, r6, r7, fp, pc}
 800625c:	00f08888 	rscseq	r8, r0, r8, lsl #17
 8006260:	f88080f8 			; <UNDEFINED> instruction: 0xf88080f8
 8006264:	00f88080 	rscseq	r8, r8, r0, lsl #1
 8006268:	f88080f8 			; <UNDEFINED> instruction: 0xf88080f8
 800626c:	00808080 	addeq	r8, r0, r0, lsl #1
 8006270:	b0808078 	addlt	r8, r0, r8, ror r0
 8006274:	00708888 	rsbseq	r8, r0, r8, lsl #17
 8006278:	f8888888 			; <UNDEFINED> instruction: 0xf8888888
 800627c:	00888888 	addeq	r8, r8, r8, lsl #17
 8006280:	20202070 	eorcs	r2, r0, r0, ror r0
 8006284:	00702020 	rsbseq	r2, r0, r0, lsr #32
 8006288:	08080878 	stmdaeq	r8, {r3, r4, r5, r6, fp}
 800628c:	00609008 	rsbeq	r9, r0, r8
 8006290:	c0a09088 	adcgt	r9, r0, r8, lsl #1
 8006294:	008890a0 	addeq	r9, r8, r0, lsr #1
 8006298:	80808080 	addhi	r8, r0, r0, lsl #1
 800629c:	00f88080 	rscseq	r8, r8, r0, lsl #1
 80062a0:	88a8d888 	stmiahi	r8!, {r3, r7, fp, ip, lr, pc}
 80062a4:	00888888 	addeq	r8, r8, r8, lsl #17
 80062a8:	a8c88888 	stmiage	r8, {r3, r7, fp, pc}^
 80062ac:	00888898 	umulleq	r8, r8, r8, r8	; <UNPREDICTABLE>
 80062b0:	88888870 	stmhi	r8, {r4, r5, r6, fp, pc}
 80062b4:	00708888 	rsbseq	r8, r0, r8, lsl #17
 80062b8:	f08888f0 			; <UNDEFINED> instruction: 0xf08888f0
 80062bc:	00808080 	addeq	r8, r0, r0, lsl #1
 80062c0:	88888870 	stmhi	r8, {r4, r5, r6, fp, pc}
 80062c4:	007898a8 	rsbseq	r9, r8, r8, lsr #17
 80062c8:	f08888f0 			; <UNDEFINED> instruction: 0xf08888f0
 80062cc:	008890a0 	addeq	r9, r8, r0, lsr #1
 80062d0:	70808078 	addvc	r8, r0, r8, ror r0
 80062d4:	00f00808 	rscseq	r0, r0, r8, lsl #16
 80062d8:	202020f8 	strdcs	r2, [r0], -r8	; <UNPREDICTABLE>
 80062dc:	00202020 	eoreq	r2, r0, r0, lsr #32
 80062e0:	88888888 	stmhi	r8, {r3, r7, fp, pc}
 80062e4:	00708888 	rsbseq	r8, r0, r8, lsl #17
 80062e8:	88888888 	stmhi	r8, {r3, r7, fp, pc}
 80062ec:	00205088 	eoreq	r5, r0, r8, lsl #1
 80062f0:	a8888888 	stmge	r8, {r3, r7, fp, pc}
 80062f4:	0088d8a8 	addeq	sp, r8, r8, lsr #17
 80062f8:	20508888 	subscs	r8, r0, r8, lsl #17
 80062fc:	00888850 	addeq	r8, r8, r0, asr r8
 8006300:	50888888 	addpl	r8, r8, r8, lsl #17
 8006304:	00202020 	eoreq	r2, r0, r0, lsr #32
 8006308:	402010f8 	strdmi	r1, [r0], -r8	; <UNPREDICTABLE>
 800630c:	00f88080 	rscseq	r8, r8, r0, lsl #1
 8006310:	40404060 	submi	r4, r0, r0, rrx
 8006314:	00604040 	rsbeq	r4, r0, r0, asr #32
 8006318:	20408000 	subcs	r8, r0, r0
 800631c:	00000810 	andeq	r0, r0, r0, lsl r8
 8006320:	08080818 	stmdaeq	r8, {r3, r4, fp}
 8006324:	00180808 	andseq	r0, r8, r8, lsl #16
 8006328:	00885020 	addeq	r5, r8, r0, lsr #32
	...
 8006334:	00f80000 	rscseq	r0, r8, r0
 8006338:	00102040 	andseq	r2, r0, r0, asr #32
 800633c:	00000000 	andeq	r0, r0, r0
 8006340:	08700000 	ldmdaeq	r0!, {}^	; <UNPREDICTABLE>
 8006344:	00788878 	rsbseq	r8, r8, r8, ror r8
 8006348:	b0808080 	addlt	r8, r0, r0, lsl #1
 800634c:	00f088c8 	rscseq	r8, r0, r8, asr #17
 8006350:	80700000 	rsbshi	r0, r0, r0
 8006354:	00708880 	rsbseq	r8, r0, r0, lsl #17
 8006358:	68080808 	stmdavs	r8, {r3, fp}
 800635c:	00788898 			; <UNDEFINED> instruction: 0x00788898
 8006360:	88700000 	ldmdahi	r0!, {}^	; <UNPREDICTABLE>
 8006364:	007080f8 	ldrshteq	r8, [r0], #-8
 8006368:	e0404830 	sub	r4, r0, r0, lsr r8
 800636c:	00404040 	subeq	r4, r0, r0, asr #32
 8006370:	88780000 	ldmdahi	r8!, {}^	; <UNPREDICTABLE>
 8006374:	70087888 	andvc	r7, r8, r8, lsl #17
 8006378:	c8b08080 	ldmgt	r0!, {r7, pc}
 800637c:	00888888 	addeq	r8, r8, r8, lsl #17
 8006380:	20002000 	andcs	r2, r0, r0
 8006384:	00202020 	eoreq	r2, r0, r0, lsr #32
 8006388:	10300010 	eorsne	r0, r0, r0, lsl r0
 800638c:	00609010 	rsbeq	r9, r0, r0, lsl r0
 8006390:	a0908080 	addsge	r8, r0, r0, lsl #1
 8006394:	0090a0c0 	addseq	sl, r0, r0, asr #1
 8006398:	20202060 	eorcs	r2, r0, r0, rrx
 800639c:	00702020 	rsbseq	r2, r0, r0, lsr #32
 80063a0:	a8d00000 	ldmge	r0, {}^	; <UNPREDICTABLE>
 80063a4:	008888a8 	addeq	r8, r8, r8, lsr #17
 80063a8:	c8b00000 	ldmgt	r0!, {}	; <UNPREDICTABLE>
 80063ac:	00888888 	addeq	r8, r8, r8, lsl #17
 80063b0:	88700000 	ldmdahi	r0!, {}^	; <UNPREDICTABLE>
 80063b4:	00708888 	rsbseq	r8, r0, r8, lsl #17
 80063b8:	88f00000 	ldmhi	r0!, {}^	; <UNPREDICTABLE>
 80063bc:	8080f088 	addhi	pc, r0, r8, lsl #1
 80063c0:	90680000 	rsbls	r0, r8, r0
 80063c4:	1850b090 	ldmdane	r0, {r4, r7, ip, sp, pc}^
 80063c8:	c8b00000 	ldmgt	r0!, {}	; <UNPREDICTABLE>
 80063cc:	00808080 	addeq	r8, r0, r0, lsl #1
 80063d0:	80700000 	rsbshi	r0, r0, r0
 80063d4:	00f00870 	rscseq	r0, r0, r0, ror r8
 80063d8:	40e04040 	rscmi	r4, r0, r0, asr #32
 80063dc:	00304840 	eorseq	r4, r0, r0, asr #16
 80063e0:	88880000 	stmhi	r8, {}	; <UNPREDICTABLE>
 80063e4:	00689888 	rsbeq	r9, r8, r8, lsl #17
 80063e8:	88880000 	stmhi	r8, {}	; <UNPREDICTABLE>
 80063ec:	00205088 	eoreq	r5, r0, r8, lsl #1
 80063f0:	88880000 	stmhi	r8, {}	; <UNPREDICTABLE>
 80063f4:	0050a8a8 	subseq	sl, r0, r8, lsr #17
 80063f8:	50880000 	addpl	r0, r8, r0
 80063fc:	00885020 	addeq	r5, r8, r0, lsr #32
 8006400:	88880000 	stmhi	r8, {}	; <UNPREDICTABLE>
 8006404:	70087888 	andvc	r7, r8, r8, lsl #17
 8006408:	10f80000 	rscsne	r0, r8, r0
 800640c:	00f84020 	rscseq	r4, r8, r0, lsr #32
 8006410:	80404020 	subhi	r4, r0, r0, lsr #32
 8006414:	00204040 	eoreq	r4, r0, r0, asr #32
 8006418:	20202020 	eorcs	r2, r0, r0, lsr #32
 800641c:	00202020 	eoreq	r2, r0, r0, lsr #32
 8006420:	10202040 	eorne	r2, r0, r0, asr #32
 8006424:	00402020 	subeq	r2, r0, r0, lsr #32
 8006428:	a8400000 	stmdage	r0, {}^	; <UNPREDICTABLE>
 800642c:	00000010 	andeq	r0, r0, r0, lsl r0
 8006430:	fcfcfcfc 	ldc2l	12, cr15, [ip], #1008	; 0x3f0
 8006434:	fcfcfcfc 	ldc2l	12, cr15, [ip], #1008	; 0x3f0
 8006438:	f8102040 			; <UNDEFINED> instruction: 0xf8102040
 800643c:	00402010 	subeq	r2, r0, r0, lsl r0
 8006440:	f8402010 			; <UNDEFINED> instruction: 0xf8402010
 8006444:	00102040 	andseq	r2, r0, r0, asr #32
 8006448:	20a87020 	adccs	r7, r8, r0, lsr #32
 800644c:	00002020 	andeq	r2, r0, r0, lsr #32
 8006450:	20202000 	eorcs	r2, r0, r0
 8006454:	002070a8 	eoreq	r7, r0, r8, lsr #1
 8006458:	f8f87000 			; <UNDEFINED> instruction: 0xf8f87000
 800645c:	000070f8 	strdeq	r7, [r0], -r8

Disassembly of section .ARM.attributes:

00000000 <.ARM.attributes>:
   0:	00002241 	andeq	r2, r0, r1, asr #4
   4:	61656100 	cmnvs	r5, r0, lsl #2
   8:	01006962 	tsteq	r0, r2, ror #18
   c:	00000018 	andeq	r0, r0, r8, lsl r0
  10:	726f4305 	rsbvc	r4, pc, #335544320	; 0x14000000
  14:	2d786574 	cfldr64cs	mvdx6, [r8, #-464]!	; 0xfffffe30
  18:	0600344d 	streq	r3, [r0], -sp, asr #8
  1c:	094d070d 	stmdbeq	sp, {r0, r2, r3, r8, r9, sl}^
  20:	Address 0x0000000000000020 is out of bounds.


Disassembly of section .debug_line:

00000000 <.debug_line>:
   0:	00000ca8 	andeq	r0, r0, r8, lsr #25
   4:	008d0003 	addeq	r0, sp, r3
   8:	01020000 	mrseq	r0, (UNDEF: 2)
   c:	000d0efb 	strdeq	r0, [sp], -fp
  10:	01010101 	tsteq	r1, r1, lsl #2
  14:	01000000 	mrseq	r0, (UNDEF: 0)
  18:	00010000 	andeq	r0, r1, r0
  1c:	74696e69 	strbtvc	r6, [r9], #-3689	; 0xfffff197
  20:	0000732e 	andeq	r7, r0, lr, lsr #6
  24:	6e650000 	cdpvs	0, 6, cr0, cr5, cr0, {0}
  28:	6f726976 	svcvs	0x00726976
  2c:	6e656d6e 	cdpvs	13, 6, cr6, cr5, cr14, {3}
  30:	00732e74 	rsbseq	r2, r3, r4, ror lr
  34:	73000000 	movwvc	r0, #0
  38:	742d7265 	strtvc	r7, [sp], #-613	; 0xfffffd9b
  3c:	2e6d7265 	cdpcs	2, 6, cr7, cr13, cr5, {3}
  40:	00000073 	andeq	r0, r0, r3, ror r0
  44:	6f767400 	svcvs	0x00767400
  48:	732e7475 			; <UNDEFINED> instruction: 0x732e7475
  4c:	00000000 	andeq	r0, r0, r0
  50:	5f327370 	svcpl	0x00327370
  54:	2e64626b 	cdpcs	2, 6, cr6, cr4, cr11, {3}
  58:	00000073 	andeq	r0, r0, r3, ror r0
  5c:	69707300 	ldmdbvs	r0!, {r8, r9, ip, sp, lr}^
  60:	616c662d 	cmnvs	ip, sp, lsr #12
  64:	732e6873 			; <UNDEFINED> instruction: 0x732e6873
  68:	00000000 	andeq	r0, r0, r0
  6c:	2e757066 	cdpcs	0, 7, cr7, cr5, cr6, {3}
  70:	00000073 	andeq	r0, r0, r3, ror r0
  74:	72747300 	rsbsvc	r7, r4, #0, 6
  78:	2e666f74 	mcrcs	15, 3, r6, cr6, cr4, {3}
  7c:	00000073 	andeq	r0, r0, r3, ror r0
  80:	6f746600 	svcvs	0x00746600
  84:	00732e61 	rsbseq	r2, r3, r1, ror #28
  88:	66000000 	strvs	r0, [r0], -r0
  8c:	6874726f 	ldmdavs	r4!, {r0, r1, r2, r3, r5, r6, r9, ip, sp, lr}^
  90:	0000732e 	andeq	r7, r0, lr, lsr #6
  94:	00000000 	andeq	r0, r0, r0
  98:	02000205 	andeq	r0, r0, #1342177280	; 0x50000000
  9c:	9c030800 	stcls	8, cr0, [r3], {-0}
  a0:	2f590101 	svccs	0x00590101
  a4:	51022503 	tstpl	r2, r3, lsl #10
  a8:	2f2f2101 	svccs	0x002f2101
  ac:	032f212f 			; <UNDEFINED> instruction: 0x032f212f
  b0:	01920237 	orrseq	r0, r2, r7, lsr r2
  b4:	2f4b2f01 	svccs	0x004b2f01
  b8:	2f2f2f21 	svccs	0x002f2f21
  bc:	2f022903 	svccs	0x00022903
  c0:	11032f01 	tstne	r3, r1, lsl #30
  c4:	214b9008 	cmpcs	fp, r8
  c8:	0810032f 	ldmdaeq	r0, {r0, r1, r2, r3, r5, r8, r9}
  cc:	2f214b66 	svccs	0x00214b66
  d0:	2f021803 	svccs	0x00021803
  d4:	2f214b01 	svccs	0x00214b01
  d8:	43021e03 	movwmi	r1, #11779	; 0x2e03
  dc:	2f214b01 	svccs	0x00214b01
  e0:	2b021703 	blcs	85cf4 <FLASH_SIZE+0x5cf4>
  e4:	222f4b01 	eorcs	r4, pc, #1024	; 0x400
  e8:	252f214b 	strcs	r2, [pc, #-331]!	; ffffffa5 <EVEN_FIELD+0xffffffa6>
  ec:	212f214b 			; <UNDEFINED> instruction: 0x212f214b
  f0:	4b200a03 	blmi	802904 <FLASH_SIZE+0x782904>
  f4:	2f222f21 	svccs	0x00222f21
  f8:	21302f21 	teqcs	r0, r1, lsr #30
  fc:	23222f21 			; <UNDEFINED> instruction: 0x23222f21
 100:	10032f59 	andne	r2, r3, r9, asr pc
 104:	214b7408 	cmpcs	fp, r8, lsl #8
 108:	214b212f 	cmpcs	fp, pc, lsr #2
 10c:	03212f2f 			; <UNDEFINED> instruction: 0x03212f2f
 110:	224b2e09 	subcs	r2, fp, #9, 28	; 0x90
 114:	212f2f4b 			; <UNDEFINED> instruction: 0x212f2f4b
 118:	2f2f2f2f 	svccs	0x002f2f2f
 11c:	352f2f2f 	strcc	r2, [pc, #-3887]!	; fffff1f5 <EVEN_FIELD+0xfffff1f6>
 120:	2f4b4b4b 	svccs	0x004b4b4b
 124:	09032f2f 	stmdbeq	r3, {r0, r1, r2, r3, r5, r8, r9, sl, fp, sp}
 128:	232f4b2e 			; <UNDEFINED> instruction: 0x232f4b2e
 12c:	232f214b 			; <UNDEFINED> instruction: 0x232f214b
 130:	0a032f21 	beq	cbdbc <FLASH_SIZE+0x4bdbc>
 134:	224b4b20 	subcs	r4, fp, #32, 22	; 0x8000
 138:	21232f21 			; <UNDEFINED> instruction: 0x21232f21
 13c:	224b222f 	subcs	r2, fp, #-268435454	; 0xf0000002
 140:	21232f21 			; <UNDEFINED> instruction: 0x21232f21
 144:	212f252f 			; <UNDEFINED> instruction: 0x212f252f
 148:	2f4b222f 	svccs	0x004b222f
 14c:	5a2f592f 	bpl	bd6610 <FLASH_SIZE+0xb56610>
 150:	21222f4b 			; <UNDEFINED> instruction: 0x21222f4b
 154:	214c272f 	cmpcs	ip, pc, lsr #14
 158:	2f2f212f 	svccs	0x002f212f
 15c:	212f4b5a 			; <UNDEFINED> instruction: 0x212f4b5a
 160:	4b4c222f 	blmi	1308a24 <FLASH_SIZE+0x1288a24>
 164:	212f222f 			; <UNDEFINED> instruction: 0x212f222f
 168:	21222f21 			; <UNDEFINED> instruction: 0x21222f21
 16c:	5d2f212f 	stfpls	f2, [pc, #-188]!	; b8 <VK_CPGDN>
 170:	4b592f2f 	blmi	164be34 <FLASH_SIZE+0x15cbe34>
 174:	212f214b 			; <UNDEFINED> instruction: 0x212f214b
 178:	2f214b28 	svccs	0x00214b28
 17c:	2f2f2f2f 	svccs	0x002f2f2f
 180:	2f4b2221 	svccs	0x004b2221
 184:	4b21212f 	blmi	848648 <FLASH_SIZE+0x7c8648>
 188:	21212128 			; <UNDEFINED> instruction: 0x21212128
 18c:	21212f4b 			; <UNDEFINED> instruction: 0x21212f4b
 190:	2f2f4b22 	svccs	0x002f4b22
 194:	2621212f 	strtcs	r2, [r1], -pc, lsr #2
 198:	2f214b21 	svccs	0x00214b21
 19c:	2f2f2f2f 	svccs	0x002f2f2f
 1a0:	21212121 			; <UNDEFINED> instruction: 0x21212121
 1a4:	214b2125 	cmpcs	fp, r5, lsr #2
 1a8:	2f2f2f2f 	svccs	0x002f2f2f
 1ac:	2f2f212f 	svccs	0x002f212f
 1b0:	214b2521 	cmpcs	fp, r1, lsr #10
 1b4:	2f2f2f21 	svccs	0x002f2f21
 1b8:	2f212f2f 	svccs	0x00212f2f
 1bc:	1003212f 	andne	r2, r3, pc, lsr #2
 1c0:	2f2f3020 	svccs	0x002f3020
 1c4:	212f212f 			; <UNDEFINED> instruction: 0x212f212f
 1c8:	2f2f2f2f 	svccs	0x002f2f2f
 1cc:	212f212f 			; <UNDEFINED> instruction: 0x212f212f
 1d0:	2f222f21 	svccs	0x00222f21
 1d4:	212f212f 			; <UNDEFINED> instruction: 0x212f212f
 1d8:	222f2121 	eorcs	r2, pc, #1073741832	; 0x40000008
 1dc:	2f212f2f 	svccs	0x00212f2f
 1e0:	2f212221 	svccs	0x00212221
 1e4:	2f212f2f 	svccs	0x00212f2f
 1e8:	2f200a03 	svccs	0x00200a03
 1ec:	2f2f2f21 	svccs	0x002f2f21
 1f0:	2f2f2f2f 	svccs	0x002f2f2f
 1f4:	032f212f 			; <UNDEFINED> instruction: 0x032f212f
 1f8:	2f21200a 	svccs	0x0021200a
 1fc:	212f212f 			; <UNDEFINED> instruction: 0x212f212f
 200:	7ac10321 	bvc	ff040e8c <EVEN_FIELD+0xff040e8d>
 204:	03016202 	movweq	r6, #4610	; 0x1202
 208:	38032e2b 	stmdacc	r3, {r0, r1, r3, r5, r9, sl, fp, sp}
 20c:	2e30032e 	cdpcs	3, 3, cr0, cr0, cr14, {1}
 210:	032e1403 			; <UNDEFINED> instruction: 0x032e1403
 214:	1b032e13 	blne	cba68 <FLASH_SIZE+0x4ba68>
 218:	2e21032e 	cdpcs	3, 2, cr0, cr1, cr14, {1}
 21c:	2e00c503 	cfsh32cs	mvfx12, mvfx0, #3
 220:	032e3b03 			; <UNDEFINED> instruction: 0x032e3b03
 224:	042e018d 	strteq	r0, [lr], #-397	; 0xfffffe73
 228:	7b800302 	blvc	fe000e38 <EVEN_FIELD+0xfe000e39>
 22c:	023203ba 	eorseq	r0, r2, #-402653182	; 0xe8000002
 230:	2f2f013a 	svccs	0x002f013a
 234:	2f660b03 	svccs	0x00660b03
 238:	660a032f 	strvs	r0, [sl], -pc, lsr #6
 23c:	09032f2f 	stmdbeq	r3, {r0, r1, r2, r3, r5, r8, r9, sl, fp, sp}
 240:	032f2fba 			; <UNDEFINED> instruction: 0x032f2fba
 244:	0b03820a 	bleq	e0a74 <FLASH_SIZE+0x60a74>
 248:	032f2f82 			; <UNDEFINED> instruction: 0x032f2f82
 24c:	4b2f6609 	blmi	bd9a78 <FLASH_SIZE+0xb59a78>
 250:	09034b2f 	stmdbeq	r3, {r0, r1, r2, r3, r5, r8, r9, fp, lr}
 254:	034b2f66 	movteq	r2, #48998	; 0xbf66
 258:	2f2f6609 	svccs	0x002f6609
 25c:	2f820903 	svccs	0x00820903
 260:	032f2f2f 			; <UNDEFINED> instruction: 0x032f2f2f
 264:	2f2fd60a 	svccs	0x002fd60a
 268:	2f9e0f03 	svccs	0x009e0f03
 26c:	042f2f32 	strteq	r2, [pc], #-3890	; 274 <NVIC_ISPR7+0x58>
 270:	7ec20303 	cdpvc	3, 12, cr0, cr2, cr3, {0}
 274:	21214b2e 			; <UNDEFINED> instruction: 0x21214b2e
 278:	2f2f212f 	svccs	0x002f212f
 27c:	2f21212f 	svccs	0x0021212f
 280:	4b28222f 	blmi	a08b44 <FLASH_SIZE+0x988b44>
 284:	2f2f2f21 	svccs	0x002f2f21
 288:	222f222f 	eorcs	r2, pc, #-268435454	; 0xf0000002
 28c:	2f212f4c 	svccs	0x00212f4c
 290:	5a2f2f22 	bpl	bcbf20 <FLASH_SIZE+0xb4bf20>
 294:	0903592f 	stmdbeq	r3, {r0, r1, r2, r3, r5, r8, fp, ip, lr}
 298:	21212f82 	smlawbcs	r1, r2, pc, r2	; <UNPREDICTABLE>
 29c:	212f212f 			; <UNDEFINED> instruction: 0x212f212f
 2a0:	212f2f21 			; <UNDEFINED> instruction: 0x212f2f21
 2a4:	4ba52f2f 	blmi	fe94bf68 <EVEN_FIELD+0xfe94bf69>
 2a8:	21212f21 			; <UNDEFINED> instruction: 0x21212f21
 2ac:	2f2f7c2f 	svccs	0x002f7c2f
 2b0:	892f2f89 	stmdbhi	pc!, {r0, r3, r7, r8, r9, sl, fp, sp}	; <UNPREDICTABLE>
 2b4:	21222f21 			; <UNDEFINED> instruction: 0x21222f21
 2b8:	30212121 	eorcc	r2, r1, r1, lsr #2
 2bc:	21212121 			; <UNDEFINED> instruction: 0x21212121
 2c0:	021b03a6 	andseq	r0, fp, #-1744830462	; 0x98000002
 2c4:	0c03013c 	stfeqs	f0, [r3], {60}	; 0x3c
 2c8:	10035808 	andne	r5, r3, r8, lsl #16
 2cc:	b703c808 	strlt	ip, [r3, -r8, lsl #16]
 2d0:	303c087f 	eorscc	r0, ip, pc, ror r8
 2d4:	04043032 	streq	r3, [r4], #-50	; 0xffffffce
 2d8:	2e7fb103 	expcse	f3, f3
 2dc:	2f4d214b 	svccs	0x004d214b
 2e0:	2f232f21 	svccs	0x00232f21
 2e4:	2f2f592f 	svccs	0x002f592f
 2e8:	222f215a 	eorcs	r2, pc, #-2147483626	; 0x80000016
 2ec:	2f212f4b 	svccs	0x00212f4b
 2f0:	212f4b22 			; <UNDEFINED> instruction: 0x212f4b22
 2f4:	212f212f 			; <UNDEFINED> instruction: 0x212f212f
 2f8:	212f212f 			; <UNDEFINED> instruction: 0x212f212f
 2fc:	2f22212f 	svccs	0x0022212f
 300:	592f592f 	stmdbpl	pc!, {r0, r1, r2, r3, r5, r8, fp, ip, lr}	; <UNPREDICTABLE>
 304:	212f4b36 			; <UNDEFINED> instruction: 0x212f4b36
 308:	21222f21 			; <UNDEFINED> instruction: 0x21222f21
 30c:	21212121 			; <UNDEFINED> instruction: 0x21212121
 310:	21212121 			; <UNDEFINED> instruction: 0x21212121
 314:	2f222131 	svccs	0x00222131
 318:	21212f21 			; <UNDEFINED> instruction: 0x21212f21
 31c:	212f2221 			; <UNDEFINED> instruction: 0x212f2221
 320:	2f222121 	svccs	0x00222121
 324:	22212121 	eorcs	r2, r1, #1073741832	; 0x40000008
 328:	21212121 			; <UNDEFINED> instruction: 0x21212121
 32c:	212f2221 			; <UNDEFINED> instruction: 0x212f2221
 330:	212f212f 			; <UNDEFINED> instruction: 0x212f212f
 334:	2123212f 			; <UNDEFINED> instruction: 0x2123212f
 338:	2f212f21 	svccs	0x00212f21
 33c:	21212521 			; <UNDEFINED> instruction: 0x21212521
 340:	212f212f 			; <UNDEFINED> instruction: 0x212f212f
 344:	2f2f2122 	svccs	0x002f2122
 348:	2f4f212f 	svccs	0x004f212f
 34c:	2f2f212f 	svccs	0x002f212f
 350:	212f2f2f 			; <UNDEFINED> instruction: 0x212f2f2f
 354:	21212f2f 			; <UNDEFINED> instruction: 0x21212f2f
 358:	2f22212f 	svccs	0x0022212f
 35c:	21212221 			; <UNDEFINED> instruction: 0x21212221
 360:	212f222f 			; <UNDEFINED> instruction: 0x212f222f
 364:	2f21212f 	svccs	0x0021212f
 368:	900a0322 	andls	r0, sl, r2, lsr #6
 36c:	2fa32f2f 	svccs	0x00a32f2f
 370:	2f2f872f 	svccs	0x002f872f
 374:	872f2f6b 	strhi	r2, [pc, -fp, ror #30]!
 378:	2f872f2f 	svccs	0x00872f2f
 37c:	2f2f872f 	svccs	0x002f872f
 380:	03212f87 			; <UNDEFINED> instruction: 0x03212f87
 384:	2f21740b 	svccs	0x0021740b
 388:	21212f2f 			; <UNDEFINED> instruction: 0x21212f2f
 38c:	2f2f2121 	svccs	0x002f2121
 390:	302f2f21 	eorcc	r2, pc, r1, lsr #30
 394:	212f2f2f 			; <UNDEFINED> instruction: 0x212f2f2f
 398:	22212f2f 	eorcs	r2, r1, #47, 30	; 0xbc
 39c:	212f2f2f 			; <UNDEFINED> instruction: 0x212f2f2f
 3a0:	22212f2f 	eorcs	r2, r1, #47, 30	; 0xbc
 3a4:	2f22212f 	svccs	0x0022212f
 3a8:	2f2f212f 	svccs	0x002f212f
 3ac:	21a62f21 			; <UNDEFINED> instruction: 0x21a62f21
 3b0:	2f792121 	svccs	0x00792121
 3b4:	2f2f2f2f 	svccs	0x002f2f2f
 3b8:	2f2f2f2f 	svccs	0x002f2f2f
 3bc:	2121212f 			; <UNDEFINED> instruction: 0x2121212f
 3c0:	2f2f2121 	svccs	0x002f2121
 3c4:	1103962f 	tstne	r3, pc, lsr #12
 3c8:	03012202 	movweq	r2, #4610	; 0x1202
 3cc:	012c0215 			; <UNDEFINED> instruction: 0x012c0215
 3d0:	26021303 	strcs	r1, [r2], -r3, lsl #6
 3d4:	2f2f2101 	svccs	0x002f2101
 3d8:	21212f2f 			; <UNDEFINED> instruction: 0x21212f2f
 3dc:	2f7a2f2f 	svccs	0x007a2f2f
 3e0:	2f21212f 	svccs	0x0021212f
 3e4:	2f212f8a 	svccs	0x00212f8a
 3e8:	212f2f2f 			; <UNDEFINED> instruction: 0x212f2f2f
 3ec:	2f2f2f2f 	svccs	0x002f2f2f
 3f0:	2f2f2f33 	svccs	0x002f2f33
 3f4:	212f2132 			; <UNDEFINED> instruction: 0x212f2132
 3f8:	03362f32 	teqeq	r6, #50, 30	; 0xc8
 3fc:	2fe40811 	svccs	0x00e40811
 400:	21212f2f 			; <UNDEFINED> instruction: 0x21212f2f
 404:	02370389 	eorseq	r0, r7, #603979778	; 0x24000002
 408:	0b03017c 	bleq	c0a00 <FLASH_SIZE+0x40a00>
 40c:	081503ba 	ldmdaeq	r5, {r1, r3, r4, r5, r7, r8, r9}
 410:	f20b03e4 	vcgt.s8	q0, <illegal reg q13.5>, q10
 414:	44021f03 	strmi	r1, [r2], #-3843	; 0xfffff0fd
 418:	080c0301 	stmdaeq	ip, {r0, r8, r9}
 41c:	2f212190 	svccs	0x00212190
 420:	21212f2f 			; <UNDEFINED> instruction: 0x21212f2f
 424:	872f2f2f 	strhi	r2, [pc, -pc, lsr #30]!
 428:	087ce403 	ldmdaeq	ip!, {r0, r1, sl, sp, lr, pc}^
 42c:	2e1f0374 	mrccs	3, 0, r0, cr15, cr4, {3}
 430:	2e018103 	mvfcss	f0, f3
 434:	fb030504 	blx	c184e <FLASH_SIZE+0x4184e>
 438:	01c4027c 	biceq	r0, r4, ip, ror r2
 43c:	212f4b01 			; <UNDEFINED> instruction: 0x212f4b01
 440:	2f2f2f4b 	svccs	0x002f2f4b
 444:	2f2f2f21 	svccs	0x002f2f21
 448:	21212121 			; <UNDEFINED> instruction: 0x21212121
 44c:	2f2f2221 	svccs	0x002f2221
 450:	2f2f212f 	svccs	0x002f212f
 454:	222f2f2f 	eorcs	r2, pc, #47, 30	; 0xbc
 458:	2f2f212f 	svccs	0x002f212f
 45c:	2f2f2f2f 	svccs	0x002f2f2f
 460:	2f2f222f 	svccs	0x002f222f
 464:	222f2f21 	eorcs	r2, pc, #33, 30	; 0x84
 468:	2f2f212f 	svccs	0x002f212f
 46c:	212f2f21 			; <UNDEFINED> instruction: 0x212f2f21
 470:	212f2f21 			; <UNDEFINED> instruction: 0x212f2f21
 474:	2121212f 			; <UNDEFINED> instruction: 0x2121212f
 478:	59212f2f 	stmdbpl	r1!, {r0, r1, r2, r3, r5, r8, r9, sl, fp, sp}
 47c:	2f2f2f2f 	svccs	0x002f2f2f
 480:	2f222123 	svccs	0x00222123
 484:	5921212f 	stmdbpl	r1!, {r0, r1, r2, r3, r5, r8, sp}
 488:	212f2f21 			; <UNDEFINED> instruction: 0x212f2f21
 48c:	2f2f2f2f 	svccs	0x002f2f2f
 490:	200a032f 	andcs	r0, sl, pc, lsr #6
 494:	2f2f2f2f 	svccs	0x002f2f2f
 498:	21212130 			; <UNDEFINED> instruction: 0x21212130
 49c:	2f222121 	svccs	0x00222121
 4a0:	2f212f2f 	svccs	0x00212f2f
 4a4:	2f2f2f21 	svccs	0x002f2f21
 4a8:	2f2f2221 	svccs	0x002f2221
 4ac:	24212f21 	strtcs	r2, [r1], #-3873	; 0xfffff0df
 4b0:	22212f21 	eorcs	r2, r1, #33, 30	; 0x84
 4b4:	212f2f2f 			; <UNDEFINED> instruction: 0x212f2f2f
 4b8:	2f2f2f2f 	svccs	0x002f2f2f
 4bc:	21200a03 			; <UNDEFINED> instruction: 0x21200a03
 4c0:	0321592f 			; <UNDEFINED> instruction: 0x0321592f
 4c4:	2159200d 	cmpcs	r9, sp
 4c8:	21232121 			; <UNDEFINED> instruction: 0x21232121
 4cc:	2f302f2f 	svccs	0x00302f2f
 4d0:	30222f22 	eorcc	r2, r2, r2, lsr #30
 4d4:	2f2f212f 	svccs	0x002f212f
 4d8:	2f2f2f21 	svccs	0x002f2f21
 4dc:	9e1a0321 	cdpls	3, 1, cr0, cr10, cr1, {1}
 4e0:	2f2f214b 	svccs	0x002f214b
 4e4:	2f2f2159 	svccs	0x002f2159
 4e8:	222f4b5a 	eorcs	r4, pc, #92160	; 0x16800
 4ec:	21212f4b 			; <UNDEFINED> instruction: 0x21212f4b
 4f0:	2f302f2f 	svccs	0x00302f2f
 4f4:	592f592f 	stmdbpl	pc!, {r0, r1, r2, r3, r5, r8, fp, ip, lr}	; <UNPREDICTABLE>
 4f8:	2f2f2f95 	svccs	0x002f2f95
 4fc:	2f2f2135 	svccs	0x002f2135
 500:	21212f2f 			; <UNDEFINED> instruction: 0x21212f2f
 504:	2f2f2f21 	svccs	0x002f2f21
 508:	21592321 	cmpcs	r9, r1, lsr #6
 50c:	200a0321 	andcs	r0, sl, r1, lsr #6
 510:	21212f21 			; <UNDEFINED> instruction: 0x21212f21
 514:	21212f21 			; <UNDEFINED> instruction: 0x21212f21
 518:	2f8a2121 	svccs	0x008a2121
 51c:	2f2f212f 	svccs	0x002f212f
 520:	59212121 	stmdbpl	r1!, {r0, r5, r8, sp}
 524:	59212121 	stmdbpl	r1!, {r0, r5, r8, sp}
 528:	2f215921 	svccs	0x00215921
 52c:	2f30302f 	svccs	0x0030302f
 530:	33212159 			; <UNDEFINED> instruction: 0x33212159
 534:	2f212f2f 	svccs	0x00212f2f
 538:	22212f21 	eorcs	r2, r1, #33, 30	; 0x84
 53c:	21222121 			; <UNDEFINED> instruction: 0x21222121
 540:	21212221 			; <UNDEFINED> instruction: 0x21212221
 544:	23592159 	cmpcs	r9, #1073741846	; 0x40000016
 548:	21212f2f 			; <UNDEFINED> instruction: 0x21212f2f
 54c:	21212121 			; <UNDEFINED> instruction: 0x21212121
 550:	2f212121 	svccs	0x00212121
 554:	200d032f 	andcs	r0, sp, pc, lsr #6
 558:	22212123 	eorcs	r2, r1, #-1073741816	; 0xc0000008
 55c:	214b5a2f 	cmpcs	fp, pc, lsr #20
 560:	21592f2f 	cmpcs	r9, pc, lsr #30
 564:	2f5a2f2f 	svccs	0x005a2f2f
 568:	2f212121 	svccs	0x00212121
 56c:	2f2f2f2f 	svccs	0x002f2f2f
 570:	2f21312f 	svccs	0x0021312f
 574:	2f21592f 	svccs	0x0021592f
 578:	2f215a2f 	svccs	0x00215a2f
 57c:	212f5b2f 			; <UNDEFINED> instruction: 0x212f5b2f
 580:	2f2f2121 	svccs	0x002f2121
 584:	2f592f22 	svccs	0x00592f22
 588:	212f2f2f 			; <UNDEFINED> instruction: 0x212f2f2f
 58c:	2f212f21 	svccs	0x00212f21
 590:	25212f2f 	strcs	r2, [r1, #-3887]!	; 0xfffff0d1
 594:	2f2f2f2f 	svccs	0x002f2f2f
 598:	7b2f2f2f 	blvc	bcc25c <FLASH_SIZE+0xb4c25c>
 59c:	5921592f 	stmdbpl	r1!, {r0, r1, r2, r3, r5, r8, fp, ip, lr}
 5a0:	2f212159 	svccs	0x00212159
 5a4:	21215921 			; <UNDEFINED> instruction: 0x21215921
 5a8:	212f2121 			; <UNDEFINED> instruction: 0x212f2121
 5ac:	592f5998 	stmdbpl	pc!, {r3, r4, r7, r8, fp, ip, lr}	; <UNPREDICTABLE>
 5b0:	21212159 			; <UNDEFINED> instruction: 0x21212159
 5b4:	592f2121 	stmdbpl	pc!, {r0, r5, r8, sp}	; <UNPREDICTABLE>
 5b8:	21212159 			; <UNDEFINED> instruction: 0x21212159
 5bc:	2fa62f21 	svccs	0x00a62f21
 5c0:	2f2f212f 	svccs	0x002f212f
 5c4:	2f2f2f2f 	svccs	0x002f2f2f
 5c8:	7cf403b4 	ldclvc	3, cr0, [r4], #720	; 0x2d0
 5cc:	2e1903d6 	mrccs	3, 0, r0, cr9, cr6, {6}
 5d0:	2e018803 	cdpcs	8, 0, cr8, cr1, cr3, {0}
 5d4:	2e220333 	mcrcs	3, 1, r0, cr2, cr3, {1}
 5d8:	b4033232 	strlt	r3, [r3], #-562	; 0xfffffdce
 5dc:	06042e01 	streq	r2, [r4], -r1, lsl #28
 5e0:	2e7bb803 	cdpcs	8, 7, cr11, cr11, cr3, {0}
 5e4:	2f2f214b 	svccs	0x002f214b
 5e8:	2f2f2159 	svccs	0x002f2159
 5ec:	2f2f2159 	svccs	0x002f2159
 5f0:	2f2f2159 	svccs	0x002f2159
 5f4:	2f2f2159 	svccs	0x002f2159
 5f8:	4b212f5a 	blmi	84c368 <FLASH_SIZE+0x7cc368>
 5fc:	4b212f21 	blmi	84c288 <FLASH_SIZE+0x7cc288>
 600:	2f21212f 	svccs	0x0021212f
 604:	8a212f2f 	bhi	84c2c8 <FLASH_SIZE+0x7cc2c8>
 608:	592f2f4b 	stmdbpl	pc!, {r0, r1, r3, r6, r8, r9, sl, fp, sp}	; <UNPREDICTABLE>
 60c:	2f214b98 	svccs	0x00214b98
 610:	2f2f4b21 	svccs	0x002f4b21
 614:	214b9859 	cmpcs	fp, r9, asr r8
 618:	212f212f 			; <UNDEFINED> instruction: 0x212f212f
 61c:	2f222f21 	svccs	0x00222f21
 620:	214b8a21 	cmpcs	fp, r1, lsr #20
 624:	2121212f 			; <UNDEFINED> instruction: 0x2121212f
 628:	2f21212f 	svccs	0x0021212f
 62c:	080c038a 	stmdaeq	ip, {r1, r3, r7, r8, r9}
 630:	080c033c 	stmdaeq	ip, {r2, r3, r4, r5, r8, r9}
 634:	0810033c 	ldmdaeq	r0, {r2, r3, r4, r5, r8, r9}
 638:	021103ac 	andseq	r0, r1, #172, 6	; 0xb0000002
 63c:	0f030122 	svceq	0x00030122
 640:	0f03e408 	svceq	0x0003e408
 644:	1203ac08 	andne	sl, r3, #8, 24	; 0x800
 648:	1603c808 	strne	ip, [r3], -r8, lsl #16
 64c:	03012a02 	movweq	r2, #6658	; 0x1a02
 650:	01340226 	teqeq	r4, r6, lsr #4
 654:	03ba0903 			; <UNDEFINED> instruction: 0x03ba0903
 658:	09038209 	stmdbeq	r3, {r0, r3, r9, pc}
 65c:	9e09039e 	mcrls	3, 0, r0, cr9, cr14, {4}
 660:	db030704 	blle	c2278 <FLASH_SIZE+0x42278>
 664:	0130027d 	teqeq	r0, sp, ror r2
 668:	2121212f 			; <UNDEFINED> instruction: 0x2121212f
 66c:	2f212f36 	svccs	0x00212f36
 670:	2f212f21 	svccs	0x00212f21
 674:	2f603121 	svccs	0x00603121
 678:	592f7c59 	stmdbpl	pc!, {r0, r3, r4, r6, sl, fp, ip, sp, lr}	; <UNPREDICTABLE>
 67c:	2f2f2f7c 	svccs	0x002f2f7c
 680:	2f9e0a03 	svccs	0x009e0a03
 684:	2f2f2f2f 	svccs	0x002f2f2f
 688:	6d2f2f6e 	stcvs	15, cr2, [pc, #-440]!	; 4d8 <NVIC_IABR7+0x1bc>
 68c:	2f6d2f2f 	svccs	0x006d2f2f
 690:	2f2f6d2f 	svccs	0x002f6d2f
 694:	6d2f2f6d 	stcvs	15, cr2, [pc, #-436]!	; 4e8 <NVIC_IABR7+0x1cc>
 698:	09032f2f 	stmdbeq	r3, {r0, r1, r2, r3, r5, r8, r9, sl, fp, sp}
 69c:	2f2f2f66 	svccs	0x002f2f66
 6a0:	2f2f2f89 	svccs	0x002f2f89
 6a4:	2f2f2f6d 	svccs	0x002f2f6d
 6a8:	2f2f2f6d 	svccs	0x002f2f6d
 6ac:	2f6e2f2f 	svccs	0x006e2f2f
 6b0:	2f2f2f2f 	svccs	0x002f2f2f
 6b4:	2f660903 	svccs	0x00660903
 6b8:	2f2f2f2f 	svccs	0x002f2f2f
 6bc:	2f2f2f6e 	svccs	0x002f2f6e
 6c0:	2f8a2f2f 	svccs	0x008a2f2f
 6c4:	2f892f2f 	svccs	0x00892f2f
 6c8:	8a2f2f2f 	bhi	bcc38c <FLASH_SIZE+0xb4c38c>
 6cc:	6d2f2f2f 	stcvs	15, cr2, [pc, #-188]!	; 618 <SCB_VECTKEY+0x1e>
 6d0:	2f2f2f2f 	svccs	0x002f2f2f
 6d4:	0b036d2f 	bleq	dbb98 <FLASH_SIZE+0x5bb98>
 6d8:	d60a03d6 			; <UNDEFINED> instruction: 0xd60a03d6
 6dc:	74080d03 	strvc	r0, [r8], #-3331	; 0xfffff2fd
 6e0:	74080f03 	strvc	r0, [r8], #-3843	; 0xfffff0fd
 6e4:	2f2f2f2f 	svccs	0x002f2f2f
 6e8:	2f2f4b89 	svccs	0x002f4b89
 6ec:	2f4b892f 	svccs	0x004b892f
 6f0:	6e2f2f2f 	cdpvs	15, 2, cr2, cr15, cr15, {1}
 6f4:	2f6d4b2f 	svccs	0x006d4b2f
 6f8:	4b2f894b 	blmi	be2c2c <FLASH_SIZE+0xb62c2c>
 6fc:	8a4b2f8a 	bhi	12cc52c <FLASH_SIZE+0x124c52c>
 700:	087d8303 	ldmdaeq	sp!, {r0, r1, r8, r9, pc}^
 704:	2e0b0374 	mcrcs	3, 0, r0, cr11, cr4, {3}
 708:	03080433 	movweq	r0, #33843	; 0x8433
 70c:	0e03d65f 	mcreq	6, 0, sp, cr3, cr15, {2}
 710:	13032008 	movwne	r2, #12296	; 0x3008
 714:	1f032008 	svcne	0x00032008
 718:	03012a02 	movweq	r2, #6658	; 0x1a02
 71c:	012a021b 			; <UNDEFINED> instruction: 0x012a021b
 720:	28021903 	stmdacs	r2, {r0, r1, r8, fp, ip}
 724:	08130301 	ldmdaeq	r3, {r0, r8, r9}
 728:	021a0374 	andseq	r0, sl, #116, 6	; 0xd0000001
 72c:	1603012c 	strne	r0, [r3], -ip, lsr #2
 730:	04012402 	streq	r2, [r1], #-1026	; 0xfffffbfe
 734:	7ece0309 	cdpvc	3, 12, cr0, cr14, cr9, {0}
 738:	0101da02 	tsteq	r1, r2, lsl #20
 73c:	24021303 	strcs	r1, [r2], #-771	; 0xfffffcfd
 740:	2f212f01 	svccs	0x00212f01
 744:	03200903 			; <UNDEFINED> instruction: 0x03200903
 748:	01300223 	teqeq	r0, r3, lsr #4
 74c:	36022203 	strcc	r2, [r2], -r3, lsl #4
 750:	02210301 	eoreq	r0, r1, #67108864	; 0x4000000
 754:	1903012e 	stmdbne	r3, {r1, r2, r3, r5, r8}
 758:	31039008 	tstcc	r3, r8
 75c:	03015202 	movweq	r5, #4610	; 0x1202
 760:	0164023a 	cmneq	r4, sl, lsr r2
 764:	0200e303 	andeq	lr, r0, #201326592	; 0xc000000
 768:	040101ce 	streq	r0, [r1], #-462	; 0xfffffe32
 76c:	7db7030a 	ldcvc	3, cr0, [r7, #40]!	; 0x28
 770:	2f013402 	svccs	0x00013402
 774:	2f222f31 	svccs	0x00222f31
 778:	200c032f 	andcs	r0, ip, pc, lsr #6
 77c:	2f2f212f 	svccs	0x002f212f
 780:	212f2f2f 			; <UNDEFINED> instruction: 0x212f2f2f
 784:	252f2f25 	strcs	r2, [pc, #-3877]!	; fffff867 <EVEN_FIELD+0xfffff868>
 788:	4b6d2f2f 	blmi	1b4c44c <FLASH_SIZE+0x1acc44c>
 78c:	212f212f 			; <UNDEFINED> instruction: 0x212f212f
 790:	212f4b6d 			; <UNDEFINED> instruction: 0x212f4b6d
 794:	036d212f 	cmneq	sp, #-1073741813	; 0xc000000b
 798:	0c03ba0a 			; <UNDEFINED> instruction: 0x0c03ba0a
 79c:	24032008 	strcs	r2, [r3], #-8
 7a0:	021f03d6 	andseq	r0, pc, #1476395011	; 0x58000003
 7a4:	1003013e 	andne	r0, r3, lr, lsr r1
 7a8:	4b2f9008 	blmi	be47d0 <FLASH_SIZE+0xb647d0>
 7ac:	2f212f21 	svccs	0x00212f21
 7b0:	7b212221 	blvc	84903c <FLASH_SIZE+0x7c903c>
 7b4:	58080e03 	stmdapl	r8, {r0, r1, r9, sl, fp}
 7b8:	4b2f2f4b 	blmi	bcc4ec <FLASH_SIZE+0xb4c4ec>
 7bc:	2f212f21 	svccs	0x00212f21
 7c0:	2f212121 	svccs	0x00212121
 7c4:	580c032f 	stmdapl	ip, {r0, r1, r2, r3, r5, r8, r9}
 7c8:	7b2f2f28 	blvc	bcc470 <FLASH_SIZE+0xb4c470>
 7cc:	03212f2f 			; <UNDEFINED> instruction: 0x03212f2f
 7d0:	222f200a 	eorcs	r2, pc, #10
 7d4:	2f232f2f 	svccs	0x00232f2f
 7d8:	21282f2f 			; <UNDEFINED> instruction: 0x21282f2f
 7dc:	222f212f 	eorcs	r2, pc, #-1073741813	; 0xc000000b
 7e0:	2f21272f 	svccs	0x0021272f
 7e4:	2f212f21 	svccs	0x00212f21
 7e8:	2f200903 	svccs	0x00200903
 7ec:	212f527b 			; <UNDEFINED> instruction: 0x212f527b
 7f0:	5f215f2f 	svcpl	0x00215f2f
 7f4:	5f2f212f 	svcpl	0x002f212f
 7f8:	2f2f6021 	svccs	0x002f6021
 7fc:	2f2f2f6d 	svccs	0x002f2f6d
 800:	2f2f6d2f 	svccs	0x002f6d2f
 804:	6d2f2f6d 	stcvs	15, cr2, [pc, #-436]!	; 658 <SCB_VECTKEY+0x5e>
 808:	2f2f2f2f 	svccs	0x002f2f2f
 80c:	5f2f216e 	svcpl	0x002f216e
 810:	2f5f2f21 	svccs	0x005f2f21
 814:	212f5f21 			; <UNDEFINED> instruction: 0x212f5f21
 818:	2f6d2f7b 	svccs	0x006d2f7b
 81c:	2121216d 			; <UNDEFINED> instruction: 0x2121216d
 820:	2121217b 			; <UNDEFINED> instruction: 0x2121217b
 824:	21212121 			; <UNDEFINED> instruction: 0x21212121
 828:	7b212f7c 	blvc	84c620 <FLASH_SIZE+0x7cc620>
 82c:	212f2121 			; <UNDEFINED> instruction: 0x212f2121
 830:	2f6e212f 	svccs	0x006e212f
 834:	6d2f2f6d 	stcvs	15, cr2, [pc, #-436]!	; 688 <SCB_VECTKEY+0x8e>
 838:	2f6d2f2f 	svccs	0x006d2f2f
 83c:	21216d2f 			; <UNDEFINED> instruction: 0x21216d2f
 840:	7b212f2f 	blvc	84c504 <FLASH_SIZE+0x7cc504>
 844:	2f892f2f 	svccs	0x00892f2f
 848:	212f512f 			; <UNDEFINED> instruction: 0x212f512f
 84c:	512f2f5f 			; <UNDEFINED> instruction: 0x512f2f5f
 850:	216d2f2f 	cmncs	sp, pc, lsr #30
 854:	6021212f 	eorvs	r2, r1, pc, lsr #2
 858:	21212f21 			; <UNDEFINED> instruction: 0x21212f21
 85c:	2f6d2f5f 	svccs	0x006d2f5f
 860:	2f6d2f6d 	svccs	0x006d2f6d
 864:	2f6d2f6d 	svccs	0x006d2f6d
 868:	6d2f2f6d 	stcvs	15, cr2, [pc, #-436]!	; 6bc <SCB_VECTKEY+0xc2>
 86c:	6d2f6d2f 	stcvs	13, cr6, [pc, #-188]!	; 7b8 <SCB_VECTKEY+0x1be>
 870:	6d2f6d2f 	stcvs	13, cr6, [pc, #-188]!	; 7bc <SCB_VECTKEY+0x1c2>
 874:	6d2f2121 	stfvss	f2, [pc, #-132]!	; 7f8 <SCB_VECTKEY+0x1fe>
 878:	21212121 			; <UNDEFINED> instruction: 0x21212121
 87c:	2121216d 			; <UNDEFINED> instruction: 0x2121216d
 880:	2f2f6d21 	svccs	0x002f6d21
 884:	6d2f2f6d 	stcvs	15, cr2, [pc, #-436]!	; 6d8 <SCB_VECTKEY+0xde>
 888:	5f2f2f21 	svcpl	0x002f2f21
 88c:	21212f2f 			; <UNDEFINED> instruction: 0x21212f2f
 890:	2f7b2f21 	svccs	0x007b2f21
 894:	2f212f21 	svccs	0x00212f21
 898:	2f212121 	svccs	0x00212121
 89c:	21212f5f 			; <UNDEFINED> instruction: 0x21212f5f
 8a0:	21212121 			; <UNDEFINED> instruction: 0x21212121
 8a4:	5f2f212f 	svcpl	0x002f212f
 8a8:	212f2f21 			; <UNDEFINED> instruction: 0x212f2f21
 8ac:	892f892f 	stmdbhi	pc!, {r0, r1, r2, r3, r5, r8, fp, pc}	; <UNPREDICTABLE>
 8b0:	212f6d2f 			; <UNDEFINED> instruction: 0x212f6d2f
 8b4:	6d2f6d21 	stcvs	13, cr6, [pc, #-132]!	; 838 <SCB_VECTKEY+0x23e>
 8b8:	2f212f2f 	svccs	0x00212f2f
 8bc:	6021212f 	eorvs	r2, r1, pc, lsr #2
 8c0:	2f212f21 	svccs	0x00212f21
 8c4:	21212f51 			; <UNDEFINED> instruction: 0x21212f51
 8c8:	215f212f 	cmpcs	pc, pc, lsr #2
 8cc:	2f2f2f2f 	svccs	0x002f2f2f
 8d0:	212f5f2f 			; <UNDEFINED> instruction: 0x212f5f2f
 8d4:	5f212f21 	svcpl	0x00212f21
 8d8:	2f21212f 	svccs	0x0021212f
 8dc:	212f5f21 			; <UNDEFINED> instruction: 0x212f5f21
 8e0:	5f212f21 	svcpl	0x00212f21
 8e4:	2f21212f 	svccs	0x0021212f
 8e8:	212f5f21 			; <UNDEFINED> instruction: 0x212f5f21
 8ec:	2f5f2121 	svccs	0x005f2121
 8f0:	5f212121 	svcpl	0x00212121
 8f4:	2121212f 			; <UNDEFINED> instruction: 0x2121212f
 8f8:	2f2f7b2f 	svccs	0x002f7b2f
 8fc:	7b2f212f 	blvc	bc8dc0 <FLASH_SIZE+0xb48dc0>
 900:	89212f21 	stmdbhi	r1!, {r0, r5, r8, r9, sl, fp, sp}
 904:	97212f2f 	strls	r2, [r1, -pc, lsr #30]!
 908:	2f212f21 	svccs	0x00212f21
 90c:	2e0c0321 	cdpcs	3, 0, cr0, cr12, cr1, {1}
 910:	362f212f 	strtcc	r2, [pc], -pc, lsr #2
 914:	0d032f2f 	stceq	15, cr2, [r3, #-188]	; 0xffffff44
 918:	892f2f82 	stmdbhi	pc!, {r1, r7, r8, r9, sl, fp, sp}	; <UNPREDICTABLE>
 91c:	2f892f2f 	svccs	0x00892f2f
 920:	2f2f892f 	svccs	0x002f892f
 924:	892f2f89 	stmdbhi	pc!, {r0, r3, r7, r8, r9, sl, fp, sp}	; <UNPREDICTABLE>
 928:	09032f2f 	stmdbeq	r3, {r0, r1, r2, r3, r5, r8, r9, sl, fp, sp}
 92c:	362f2f82 	strtcc	r2, [pc], -r2, lsl #31
 930:	2f892f2f 	svccs	0x00892f2f
 934:	2f2f6d2f 	svccs	0x002f6d2f
 938:	892f2f8a 	stmdbhi	pc!, {r1, r3, r7, r8, r9, sl, fp, sp}	; <UNPREDICTABLE>
 93c:	2f6e2f2f 	svccs	0x006e2f2f
 940:	8209032f 	andhi	r0, r9, #-1140850688	; 0xbc000000
 944:	2f6e2f2f 	svccs	0x006e2f2f
 948:	2f2f6e2f 	svccs	0x002f6e2f
 94c:	032f2f8a 			; <UNDEFINED> instruction: 0x032f2f8a
 950:	2f2f9e0c 	svccs	0x002f9e0c
 954:	2fba0903 	svccs	0x00ba0903
 958:	9e09032f 	cdpls	3, 0, cr0, cr9, cr15, {1}
 95c:	2f894b2f 	svccs	0x00894b2f
 960:	4b2fa54b 	blmi	be9e94 <FLASH_SIZE+0xb69e94>
 964:	03820d03 	orreq	r0, r2, #3, 26	; 0xc0
 968:	2f580811 	svccs	0x00580811
 96c:	2121222f 			; <UNDEFINED> instruction: 0x2121222f
 970:	222f2f21 	eorcs	r2, pc, #33, 30	; 0x84
 974:	21212121 			; <UNDEFINED> instruction: 0x21212121
 978:	21212122 			; <UNDEFINED> instruction: 0x21212122
 97c:	82090321 	andhi	r0, r9, #-2080374784	; 0x84000000
 980:	3c022803 	stccc	8, cr2, [r2], {3}
 984:	02250301 	eoreq	r0, r5, #67108864	; 0x4000000
 988:	2f2f0148 	svccs	0x002f0148
 98c:	2121216d 			; <UNDEFINED> instruction: 0x2121216d
 990:	217b2f2f 	cmncs	fp, pc, lsr #30
 994:	03212f21 			; <UNDEFINED> instruction: 0x03212f21
 998:	2121740b 			; <UNDEFINED> instruction: 0x2121740b
 99c:	2f212f2f 	svccs	0x00212f2f
 9a0:	2f212f21 	svccs	0x00212f21
 9a4:	2f212121 	svccs	0x00212121
 9a8:	2f2f212f 	svccs	0x002f212f
 9ac:	21212f2f 			; <UNDEFINED> instruction: 0x21212f2f
 9b0:	03212121 			; <UNDEFINED> instruction: 0x03212121
 9b4:	2b03660b 	blcs	da1e8 <FLASH_SIZE+0x5a1e8>
 9b8:	2f012602 	svccs	0x00012602
 9bc:	2f2f2121 	svccs	0x002f2121
 9c0:	2f2f2122 	svccs	0x002f2122
 9c4:	2f21212f 	svccs	0x0021212f
 9c8:	212f2122 			; <UNDEFINED> instruction: 0x212f2122
 9cc:	03740903 	cmneq	r4, #49152	; 0xc000
 9d0:	0b03f20d 	bleq	fd20c <FLASH_SIZE+0x7d20c>
 9d4:	f20d03ba 	vcge.s8	d0, d29, d26
 9d8:	03f20e03 	mvnseq	r0, #3, 28	; 0x30
 9dc:	032ff210 	msreq	CPSR_fsxc, #16, 4
 9e0:	0a038209 	beq	e120c <FLASH_SIZE+0x6120c>
 9e4:	2f2f2182 	svccs	0x002f2182
 9e8:	82090321 	andhi	r0, r9, #-2080374784	; 0x84000000
 9ec:	8a2f2f2f 	bhi	bcc6b0 <FLASH_SIZE+0xb4c6b0>
 9f0:	26021403 	strcs	r1, [r2], -r3, lsl #8
 9f4:	2f2f4b01 	svccs	0x002f4b01
 9f8:	212f8a2f 			; <UNDEFINED> instruction: 0x212f8a2f
 9fc:	21740903 	cmncs	r4, r3, lsl #18
 a00:	2f212f2f 	svccs	0x00212f2f
 a04:	03820c03 	orreq	r0, r2, #768	; 0x300
 a08:	0d03ba0b 	vstreq	s22, [r3, #-44]	; 0xffffffd4
 a0c:	03212ff2 			; <UNDEFINED> instruction: 0x03212ff2
 a10:	212f9009 			; <UNDEFINED> instruction: 0x212f9009
 a14:	03900a03 	orrseq	r0, r0, #12288	; 0x3000
 a18:	2120080b 			; <UNDEFINED> instruction: 0x2120080b
 a1c:	212f212f 			; <UNDEFINED> instruction: 0x212f212f
 a20:	2f2f8921 	svccs	0x002f8921
 a24:	21302f22 	teqcs	r0, r2, lsr #30
 a28:	2f222f21 	svccs	0x00222f21
 a2c:	2f2f2f89 	svccs	0x002f2f89
 a30:	21212f2f 			; <UNDEFINED> instruction: 0x21212f2f
 a34:	2221212f 	eorcs	r2, r1, #-1073741813	; 0xc000000b
 a38:	22212221 	eorcs	r2, r1, #268435458	; 0x10000002
 a3c:	222f2121 	eorcs	r2, pc, #1073741832	; 0x40000008
 a40:	21218a2f 			; <UNDEFINED> instruction: 0x21218a2f
 a44:	22212f22 	eorcs	r2, r1, #34, 30	; 0x88
 a48:	7409032f 	strvc	r0, [r9], #-815	; 0xfffffcd1
 a4c:	32021f03 	andcc	r1, r2, #3, 30
 a50:	08110301 	ldmdaeq	r1, {r0, r8, r9}
 a54:	d60c03e4 	strle	r0, [ip], -r4, ror #7
 a58:	03f20c03 	mvnseq	r0, #768	; 0x300
 a5c:	03580812 	cmpeq	r8, #1179648	; 0x120000
 a60:	1203f20e 	andne	pc, r3, #-536870912	; 0xe0000000
 a64:	0e039008 	cdpeq	0, 0, cr9, cr3, cr8, {0}
 a68:	11033c08 	tstne	r3, r8, lsl #24
 a6c:	081303f2 	ldmdaeq	r3, {r1, r4, r5, r6, r7, r8, r9}
 a70:	f20d0390 	vcge.s8	d0, d29, d0
 a74:	20080c03 	andcs	r0, r8, r3, lsl #24
 a78:	20081103 	andcs	r1, r8, r3, lsl #2
 a7c:	34022303 	strcc	r2, [r2], #-771	; 0xfffffcfd
 a80:	02210301 	eoreq	r0, r1, #67108864	; 0x4000000
 a84:	2f21013a 	svccs	0x0021013a
 a88:	21212f21 			; <UNDEFINED> instruction: 0x21212f21
 a8c:	212f2121 			; <UNDEFINED> instruction: 0x212f2121
 a90:	2e09032f 	cdpcs	3, 0, cr0, cr9, cr15, {1}
 a94:	2f212f2f 	svccs	0x00212f2f
 a98:	21212121 			; <UNDEFINED> instruction: 0x21212121
 a9c:	21212f21 			; <UNDEFINED> instruction: 0x21212f21
 aa0:	0f03212f 	svceq	0x0003212f
 aa4:	02370382 	eorseq	r0, r7, #134217730	; 0x8000002
 aa8:	1403016a 	strne	r0, [r3], #-362	; 0xfffffe96
 aac:	0b035808 	bleq	d6ad4 <FLASH_SIZE+0x56ad4>
 ab0:	081103d6 	ldmdaeq	r1, {r1, r2, r4, r6, r7, r8, r9}
 ab4:	081203ac 	ldmdaeq	r2, {r2, r3, r5, r7, r8, r9}
 ab8:	f20e0390 	vcge.s8	d0, d30, d0
 abc:	74081603 	strvc	r1, [r8], #-1539	; 0xfffff9fd
 ac0:	03660c03 	cmneq	r6, #768	; 0x300
 ac4:	2103820e 	tstcs	r3, lr, lsl #4
 ac8:	03014402 	movweq	r4, #5122	; 0x1402
 acc:	03740813 	cmneq	r4, #1245184	; 0x130000
 ad0:	03900812 	orrseq	r0, r0, #1179648	; 0x120000
 ad4:	03900812 	orrseq	r0, r0, #1179648	; 0x120000
 ad8:	0128021d 			; <UNDEFINED> instruction: 0x0128021d
 adc:	74081103 	strvc	r1, [r8], #-259	; 0xfffffefd
 ae0:	3c080d03 	stccc	13, cr0, [r8], {3}
 ae4:	74081203 	strvc	r1, [r8], #-515	; 0xfffffdfd
 ae8:	28021803 	stmdacs	r2, {r0, r1, fp, ip}
 aec:	82100301 	andshi	r0, r0, #67108864	; 0x4000000
 af0:	0200cf03 	andeq	ip, r0, #3, 30
 af4:	03010198 	movweq	r0, #4504	; 0x1198
 af8:	01240217 			; <UNDEFINED> instruction: 0x01240217
 afc:	03f20d03 	mvnseq	r0, #3, 26	; 0xc0
 b00:	0d03f20d 	sfmeq	f7, 1, [r3, #-52]	; 0xffffffcc
 b04:	0c032008 	stceq	0, cr2, [r3], {8}
 b08:	0b032008 	bleq	c8b30 <FLASH_SIZE+0x48b30>
 b0c:	080e03d6 	stmdaeq	lr, {r1, r2, r4, r6, r7, r8, r9}
 b10:	f2100320 	vcgt.s16	d0, d0, d16
 b14:	58081503 	stmdapl	r8, {r0, r1, r8, sl, ip}
 b18:	30022203 	andcc	r2, r2, r3, lsl #4
 b1c:	023a0301 	eorseq	r0, sl, #67108864	; 0x4000000
 b20:	1103016e 	tstne	r3, lr, ror #2
 b24:	021503f2 	andseq	r0, r5, #-939524093	; 0xc8000003
 b28:	21030126 	tstcs	r3, r6, lsr #2
 b2c:	03014402 	movweq	r4, #5122	; 0x1402
 b30:	01260219 			; <UNDEFINED> instruction: 0x01260219
 b34:	03d61003 	bicseq	r1, r6, #3
 b38:	0132021c 	teqeq	r2, ip, lsl r2
 b3c:	3a022003 	bcc	88b50 <FLASH_SIZE+0x8b50>
 b40:	08160301 	ldmdaeq	r6, {r0, r8, r9}
 b44:	9e1003e4 	cdpls	3, 1, cr0, cr0, cr4, {7}
 b48:	58081403 	stmdapl	r8, {r0, r1, sl, ip}
 b4c:	e4081803 	str	r1, [r8], #-2051	; 0xfffff7fd
 b50:	2e021603 	cfmadd32cs	mvax0, mvfx1, mvfx2, mvfx3
 b54:	080f0301 	stmdaeq	pc, {r0, r8, r9}	; <UNPREDICTABLE>
 b58:	08110374 	ldmdaeq	r1, {r2, r4, r5, r6, r8, r9}
 b5c:	080c03c8 	stmdaeq	ip, {r3, r6, r7, r8, r9}
 b60:	021b0358 	andseq	r0, fp, #88, 6	; 0x60000001
 b64:	25030124 	strcs	r0, [r3, #-292]	; 0xfffffedc
 b68:	03015002 	movweq	r5, #4098	; 0x1002
 b6c:	0134021f 	teqeq	r4, pc, lsl r2
 b70:	2e021d03 	cdpcs	13, 0, cr1, cr2, cr3, {0}
 b74:	ba0c0301 	blt	301780 <FLASH_SIZE+0x281780>
 b78:	20080d03 	andcs	r0, r8, r3, lsl #26
 b7c:	03ba1103 			; <UNDEFINED> instruction: 0x03ba1103
 b80:	01280216 			; <UNDEFINED> instruction: 0x01280216
 b84:	03ba0b03 			; <UNDEFINED> instruction: 0x03ba0b03
 b88:	03740810 	cmneq	r4, #16, 16	; 0x100000
 b8c:	1203d60c 	andne	sp, r3, #12, 12	; 0xc00000
 b90:	0c03ac08 	stceq	12, cr10, [r3], {8}
 b94:	081803ba 	ldmdaeq	r8, {r1, r3, r4, r5, r7, r8, r9}
 b98:	f20b03e4 	vcgt.s8	q0, <illegal reg q13.5>, q10
 b9c:	ac080903 			; <UNDEFINED> instruction: 0xac080903
 ba0:	212f2f21 			; <UNDEFINED> instruction: 0x212f2f21
 ba4:	2f21212f 	svccs	0x0021212f
 ba8:	8a2f2f2f 	bhi	bcc86c <FLASH_SIZE+0xb4c86c>
 bac:	2f2f2fdd 	svccs	0x002f2fdd
 bb0:	2f21212f 	svccs	0x0021212f
 bb4:	322f2f2f 	eorcc	r2, pc, #47, 30	; 0xbc
 bb8:	ac081103 	stfges	f1, [r8], {3}
 bbc:	3c080b03 			; <UNDEFINED> instruction: 0x3c080b03
 bc0:	0d038a2f 	vstreq	s16, [r3, #-188]	; 0xffffff44
 bc4:	2f2f9008 	svccs	0x002f9008
 bc8:	03820a03 	orreq	r0, r2, #12288	; 0x3000
 bcc:	0a03ba0b 	beq	ef400 <FLASH_SIZE+0x6f400>
 bd0:	6d2f2ff2 	stcvs	15, cr2, [pc, #-968]!	; 810 <SCB_VECTKEY+0x216>
 bd4:	038a2f2f 	orreq	r2, sl, #47, 30	; 0xbc
 bd8:	0320080b 			; <UNDEFINED> instruction: 0x0320080b
 bdc:	0e03f20b 	cdpeq	2, 0, cr15, cr3, cr11, {0}
 be0:	0e039008 	cdpeq	0, 0, cr9, cr3, cr8, {0}
 be4:	0d039008 	stceq	0, cr9, [r3, #-32]	; 0xffffffe0
 be8:	0d032008 	stceq	0, cr2, [r3, #-32]	; 0xffffffe0
 bec:	080e03d6 	stmdaeq	lr, {r1, r2, r4, r6, r7, r8, r9}
 bf0:	f20c0320 	vcgt.s8	d0, d12, d16
 bf4:	03d60b03 	bicseq	r0, r6, #3072	; 0xc00
 bf8:	0c03f20b 	sfmeq	f7, 1, [r3], {11}
 bfc:	081003f2 	ldmdaeq	r0, {r1, r4, r5, r6, r7, r8, r9}
 c00:	08130320 	ldmdaeq	r3, {r5, r8, r9}
 c04:	021e0390 	andseq	r0, lr, #144, 6	; 0x40000002
 c08:	1c030134 	stfnes	f0, [r3], {52}	; 0x34
 c0c:	03012c02 	movweq	r2, #7170	; 0x1c02
 c10:	03c80814 	biceq	r0, r8, #20, 16	; 0x140000
 c14:	0e03f20d 	cdpeq	2, 0, cr15, cr3, cr13, {0}
 c18:	0f032008 	svceq	0x00032008
 c1c:	0e033c08 	cdpeq	12, 0, cr3, cr3, cr8, {0}
 c20:	080e03f2 	stmdaeq	lr, {r1, r4, r5, r6, r7, r8, r9}
 c24:	08140358 	ldmdaeq	r4, {r3, r4, r6, r8, r9}
 c28:	081403c8 	ldmdaeq	r4, {r3, r6, r7, r8, r9}
 c2c:	08110390 	ldmdaeq	r1, {r4, r7, r8, r9}
 c30:	08110390 	ldmdaeq	r1, {r4, r7, r8, r9}
 c34:	080c03c8 	stmdaeq	ip, {r3, r6, r7, r8, r9}
 c38:	080d0320 	stmdaeq	sp, {r5, r8, r9}
 c3c:	080d033c 	stmdaeq	sp, {r2, r3, r4, r5, r8, r9}
 c40:	ba0f03ac 	blt	3c1af8 <FLASH_SIZE+0x341af8>
 c44:	90080f03 	andls	r0, r8, r3, lsl #30
 c48:	20081403 	andcs	r1, r8, r3, lsl #8
 c4c:	3e022303 	cdpcc	3, 0, cr2, cr2, cr3, {0}
 c50:	022b0301 	eoreq	r0, fp, #67108864	; 0x4000000
 c54:	2903014e 	stmdbcs	r3, {r1, r2, r3, r6, r8}
 c58:	03014e02 	movweq	r4, #7682	; 0x1e02
 c5c:	2f74080e 	svccs	0x0074080e
 c60:	1d03354b 	cfstr32ne	mvfx3, [r3, #-300]	; 0xfffffed4
 c64:	03013802 	movweq	r3, #6146	; 0x1802
 c68:	01280215 			; <UNDEFINED> instruction: 0x01280215
 c6c:	19038a2f 	stmdbne	r3, {r0, r1, r2, r3, r5, r9, fp, pc}
 c70:	03012c02 	movweq	r2, #7170	; 0x1c02
 c74:	240200d7 	strcs	r0, [r2], #-215	; 0xffffff29
 c78:	02170301 	andseq	r0, r7, #67108864	; 0x4000000
 c7c:	03860124 	orreq	r0, r6, #36, 2
 c80:	03c80811 	biceq	r0, r8, #1114112	; 0x110000
 c84:	03e40810 	mvneq	r0, #16, 16	; 0x100000
 c88:	0a03f214 	beq	fd4e0 <FLASH_SIZE+0x7d4e0>
 c8c:	021b03ba 	andseq	r0, fp, #-402653182	; 0xe8000002
 c90:	0e030136 	mcreq	1, 0, r0, cr3, cr6, {1}
 c94:	021b03f2 	andseq	r0, fp, #-939524093	; 0xc8000003
 c98:	1003013c 	andne	r0, r3, ip, lsr r1
 c9c:	10039008 	andne	r9, r3, r8
 ca0:	2f592008 	svccs	0x00592008
 ca4:	02112d02 	andseq	r2, r1, #2, 26	; 0x80
 ca8:	01010002 	tsteq	r1, r2

Disassembly of section .debug_info:

00000000 <.debug_info>:
   0:	00000022 	andeq	r0, r0, r2, lsr #32
   4:	00000002 	andeq	r0, r0, r2
   8:	01040000 	mrseq	r0, (UNDEF: 4)
   c:	00000000 	andeq	r0, r0, r0
  10:	08000200 	stmdaeq	r0, {r9}
  14:	08006138 	stmdaeq	r0, {r3, r4, r5, r8, sp, lr}
  18:	00000000 	andeq	r0, r0, r0
  1c:	00000007 	andeq	r0, r0, r7
  20:	0000002b 	andeq	r0, r0, fp, lsr #32
  24:	Address 0x0000000000000024 is out of bounds.


Disassembly of section .debug_abbrev:

00000000 <.debug_abbrev>:
   0:	10001101 	andne	r1, r0, r1, lsl #2
   4:	12011106 	andne	r1, r1, #-2147483647	; 0x80000001
   8:	1b0e0301 	blne	380c14 <FLASH_SIZE+0x300c14>
   c:	130e250e 	movwne	r2, #58638	; 0xe50e
  10:	00000005 	andeq	r0, r0, r5

Disassembly of section .debug_aranges:

00000000 <.debug_aranges>:
   0:	0000001c 	andeq	r0, r0, ip, lsl r0
   4:	00000002 	andeq	r0, r0, r2
   8:	00040000 	andeq	r0, r4, r0
   c:	00000000 	andeq	r0, r0, r0
  10:	08000200 	stmdaeq	r0, {r9}
  14:	00005f38 	andeq	r5, r0, r8, lsr pc
	...

Disassembly of section .debug_str:

00000000 <.debug_str>:
   0:	74696e69 	strbtvc	r6, [r9], #-3689	; 0xfffff197
   4:	2f00732e 	svccs	0x0000732e
   8:	656d6f68 	strbvs	r6, [sp, #-3944]!	; 0xfffff098
   c:	63616a2f 	cmnvs	r1, #192512	; 0x2f000
  10:	73657571 	cmnvc	r5, #473956352	; 0x1c400000
  14:	7469672f 	strbtvc	r6, [r9], #-1839	; 0xfffff8d1
  18:	2f627568 	svccs	0x00627568
  1c:	6f796562 	svcvs	0x00796562
  20:	6a2d646e 	bvs	b591e0 <FLASH_SIZE+0xad91e0>
  24:	74697075 	strbtvc	r7, [r9], #-117	; 0xffffff8b
  28:	47007265 	strmi	r7, [r0, -r5, ror #4]
  2c:	4120554e 			; <UNDEFINED> instruction: 0x4120554e
  30:	2e322053 	mrccs	0, 1, r2, cr2, cr3, {2}
  34:	Address 0x0000000000000034 is out of bounds.

