
build/stm32eforth.elf:     file format elf32-littlearm


Disassembly of section .isr_vector:

08000000 <isr_vectors>:
 8000000:	20020000 	andcs	r0, r2, r0
 8000004:	08000561 	stmdaeq	r0, {r0, r5, r6, r8, sl}
 8000008:	08000305 	stmdaeq	r0, {r0, r2, r8, r9}
 800000c:	0800033d 	stmdaeq	r0, {r0, r2, r3, r4, r5, r8, r9}
 8000010:	08000379 	stmdaeq	r0, {r0, r3, r4, r5, r6, r8, r9}
 8000014:	080003e5 	stmdaeq	r0, {r0, r2, r5, r6, r7, r8, r9}
 8000018:	08000479 	stmdaeq	r0, {r0, r3, r4, r5, r6, sl}
	...
 800002c:	08000201 	stmdaeq	r0, {r0, r9}
 8000030:	08000201 	stmdaeq	r0, {r0, r9}
 8000034:	00000000 	andeq	r0, r0, r0
 8000038:	08000201 	stmdaeq	r0, {r0, r9}
 800003c:	080004dd 	stmdaeq	r0, {r0, r2, r3, r4, r6, r7, sl}

08000040 <irq0>:
 8000040:	08000201 	stmdaeq	r0, {r0, r9}
 8000044:	08000201 	stmdaeq	r0, {r0, r9}
 8000048:	08000201 	stmdaeq	r0, {r0, r9}
 800004c:	08000201 	stmdaeq	r0, {r0, r9}
 8000050:	08000201 	stmdaeq	r0, {r0, r9}
 8000054:	08000201 	stmdaeq	r0, {r0, r9}
 8000058:	08000201 	stmdaeq	r0, {r0, r9}
 800005c:	08000201 	stmdaeq	r0, {r0, r9}
 8000060:	08000201 	stmdaeq	r0, {r0, r9}
 8000064:	08000201 	stmdaeq	r0, {r0, r9}
 8000068:	08000201 	stmdaeq	r0, {r0, r9}
 800006c:	08000201 	stmdaeq	r0, {r0, r9}
 8000070:	08000201 	stmdaeq	r0, {r0, r9}
 8000074:	08000201 	stmdaeq	r0, {r0, r9}
 8000078:	08000201 	stmdaeq	r0, {r0, r9}
 800007c:	08000201 	stmdaeq	r0, {r0, r9}
 8000080:	08000201 	stmdaeq	r0, {r0, r9}
 8000084:	08000201 	stmdaeq	r0, {r0, r9}
 8000088:	08000201 	stmdaeq	r0, {r0, r9}
	...
 800009c:	08000201 	stmdaeq	r0, {r0, r9}
 80000a0:	08000201 	stmdaeq	r0, {r0, r9}
 80000a4:	08000201 	stmdaeq	r0, {r0, r9}
 80000a8:	08000201 	stmdaeq	r0, {r0, r9}
 80000ac:	08000201 	stmdaeq	r0, {r0, r9}
 80000b0:	08000201 	stmdaeq	r0, {r0, r9}
 80000b4:	08000c35 	stmdaeq	r0, {r0, r2, r4, r5, sl, fp}
 80000b8:	08000201 	stmdaeq	r0, {r0, r9}
 80000bc:	08000201 	stmdaeq	r0, {r0, r9}
 80000c0:	08000201 	stmdaeq	r0, {r0, r9}
 80000c4:	08000201 	stmdaeq	r0, {r0, r9}
 80000c8:	08000201 	stmdaeq	r0, {r0, r9}
 80000cc:	08000201 	stmdaeq	r0, {r0, r9}
 80000d0:	08000201 	stmdaeq	r0, {r0, r9}
 80000d4:	08000901 	stmdaeq	r0, {r0, r8, fp}
 80000d8:	08000201 	stmdaeq	r0, {r0, r9}
 80000dc:	00000000 	andeq	r0, r0, r0
 80000e0:	08001511 	stmdaeq	r0, {r0, r4, r8, sl, ip}
 80000e4:	08000201 	stmdaeq	r0, {r0, r9}
 80000e8:	08000201 	stmdaeq	r0, {r0, r9}
	...
 80000fc:	08000201 	stmdaeq	r0, {r0, r9}
 8000100:	00000000 	andeq	r0, r0, r0
 8000104:	08000201 	stmdaeq	r0, {r0, r9}
 8000108:	08000201 	stmdaeq	r0, {r0, r9}
 800010c:	08000201 	stmdaeq	r0, {r0, r9}
	...
 8000120:	08000201 	stmdaeq	r0, {r0, r9}
 8000124:	08000201 	stmdaeq	r0, {r0, r9}
 8000128:	08000201 	stmdaeq	r0, {r0, r9}
 800012c:	08000201 	stmdaeq	r0, {r0, r9}
 8000130:	08000201 	stmdaeq	r0, {r0, r9}
	...
 800014c:	08000201 	stmdaeq	r0, {r0, r9}
 8000150:	08000201 	stmdaeq	r0, {r0, r9}
 8000154:	08000201 	stmdaeq	r0, {r0, r9}
 8000158:	08000201 	stmdaeq	r0, {r0, r9}
 800015c:	08000201 	stmdaeq	r0, {r0, r9}
 8000160:	08000201 	stmdaeq	r0, {r0, r9}
 8000164:	08000201 	stmdaeq	r0, {r0, r9}
	...
 8000184:	080002b1 	stmdaeq	r0, {r0, r4, r5, r7, r9}
	...
 8000190:	08000201 	stmdaeq	r0, {r0, r9}
 8000194:	08000201 	stmdaeq	r0, {r0, r9}

08000198 <isr_end>:
	...

Disassembly of section .text:

08000200 <default_handler>:
 8000200:	b500      	push	{lr}
 8000202:	f000 f9cb 	bl	800059c <forth_init>
 8000206:	f85d eb04 	ldr.w	lr, [sp], #4
 800020a:	f8df c6cc 	ldr.w	ip, [pc, #1740]	; 80008d8 <ULAST>
 800020e:	f002 bae7 	b.w	80027e0 <INEXT>

08000212 <dh>:
 8000212:	08004449 	stmdaeq	r0, {r0, r3, r6, sl, lr}
 8000216:	08003b01 	stmdaeq	r0, {r0, r8, r9, fp, ip, sp}
 800021a:	65786517 	ldrbvs	r6, [r8, #-1303]!	; 0xfffffae9
 800021e:	6f697470 	svcvs	0x00697470
 8000222:	6572206e 	ldrbvs	r2, [r2, #-110]!	; 0xffffff92
 8000226:	746f6f62 	strbtvc	r6, [pc], #-3938	; 800022e <dh+0x1c>
 800022a:	4643202c 	strbmi	r2, [r3], -ip, lsr #32
 800022e:	203a5253 	eorscs	r5, sl, r3, asr r2
 8000232:	bf00      	nop
 8000234:	08002831 	stmdaeq	r0, {r0, r4, r5, fp, sp}
 8000238:	08002b21 	stmdaeq	r0, {r0, r5, r8, r9, fp, sp}
 800023c:	08002a9d 	stmdaeq	r0, {r0, r2, r3, r4, r7, r9, fp, sp}
 8000240:	080029a7 	stmdaeq	r0, {r0, r1, r2, r5, r7, r8, fp, sp}
 8000244:	00000010 	andeq	r0, r0, r0, lsl r0
 8000248:	08003015 	stmdaeq	r0, {r0, r2, r4, ip, sp}
 800024c:	08002a19 	stmdaeq	r0, {r0, r3, r4, r9, fp, sp}
 8000250:	08003b85 	stmdaeq	r0, {r0, r2, r7, r8, r9, fp, ip, sp}
 8000254:	08003b01 	stmdaeq	r0, {r0, r8, r9, fp, ip, sp}
 8000258:	42202c08 	eormi	r2, r0, #8, 24	; 0x800
 800025c:	3a524146 	bcc	949077c <OPTKEY1+0x12fdd41>
 8000260:	bf000020 	svclt	0x00000020
 8000264:	08002a59 	stmdaeq	r0, {r0, r3, r4, r6, r9, fp, sp}
 8000268:	080029a7 	stmdaeq	r0, {r0, r1, r2, r5, r7, r8, fp, sp}
 800026c:	00008000 	andeq	r8, r0, r0
 8000270:	08002b65 	stmdaeq	r0, {r0, r2, r5, r6, r8, r9, fp, sp}
 8000274:	080029e7 	stmdaeq	r0, {r0, r1, r2, r5, r6, r7, r8, fp, sp}
 8000278:	08000294 	stmdaeq	r0, {r2, r4, r7, r9}
 800027c:	08002855 	stmdaeq	r0, {r0, r2, r4, r6, fp, sp}
 8000280:	080029a7 	stmdaeq	r0, {r0, r1, r2, r5, r7, r8, fp, sp}
 8000284:	0000002c 	andeq	r0, r0, ip, lsr #32
 8000288:	080028b1 	stmdaeq	r0, {r0, r4, r5, r7, fp, sp}
 800028c:	08003a11 	stmdaeq	r0, {r0, r4, r9, fp, ip, sp}
 8000290:	08003b85 	stmdaeq	r0, {r0, r2, r7, r8, r9, fp, ip, sp}
 8000294:	08003b01 	stmdaeq	r0, {r0, r8, r9, fp, ip, sp}
 8000298:	46202c09 	strtmi	r2, [r0], -r9, lsl #24
 800029c:	52435350 	subpl	r5, r3, #80, 6	; 0x40000001
 80002a0:	bf00203a 	svclt	0x0000203a
 80002a4:	08001ff5 	stmdaeq	r0, {r0, r2, r4, r5, r6, r7, r8, r9, sl, fp, ip}
 80002a8:	08003b85 	stmdaeq	r0, {r0, r2, r7, r8, r9, fp, ip, sp}
 80002ac:	08000539 	stmdaeq	r0, {r0, r3, r4, r5, r8, sl}

080002b0 <fpu_exception>:
 80002b0:	f04f 0000 	mov.w	r0, #0
 80002b4:	f2c2 0002 	movt	r0, #8194	; 0x2002
 80002b8:	4685      	mov	sp, r0
 80002ba:	f8df c620 	ldr.w	ip, [pc, #1568]	; 80008dc <ULAST+0x4>
 80002be:	f002 ba8f 	b.w	80027e0 <INEXT>

080002c2 <fpu_except>:
 80002c2:	08004449 	stmdaeq	r0, {r0, r3, r6, sl, lr}
 80002c6:	08003a99 	stmdaeq	r0, {r0, r3, r4, r7, r9, fp, ip, sp}
 80002ca:	080029a7 	stmdaeq	r0, {r0, r1, r2, r5, r7, r8, fp, sp}
 80002ce:	00000010 	andeq	r0, r0, r0, lsl r0
 80002d2:	08003015 	stmdaeq	r0, {r0, r2, r4, ip, sp}
 80002d6:	08002a19 	stmdaeq	r0, {r0, r3, r4, r9, fp, sp}
 80002da:	08003b01 	stmdaeq	r0, {r0, r8, r9, fp, ip, sp}
 80002de:	75706615 	ldrbvc	r6, [r0, #-1557]!	; 0xfffff9eb
 80002e2:	63786520 	cmnvs	r8, #32, 10	; 0x8000000
 80002e6:	69747065 	ldmdbvs	r4!, {r0, r2, r5, r6, ip, sp, lr}^
 80002ea:	46206e6f 	strtmi	r6, [r0], -pc, ror #28
 80002ee:	52435350 	subpl	r5, r3, #80, 6	; 0x40000001
 80002f2:	1ff5203a 	svcne	0x00f5203a
 80002f6:	3b850800 	blcc	61422fe <FCLK+0x5b4afe>
 80002fa:	3a990800 	bcc	6642302 <FCLK+0xab4b02>
 80002fe:	05390800 	ldreq	r0, [r9, #-2048]!	; 0xfffff800
 8000302:	 			; <UNDEFINED> instruction: 0xf8df0800

08000304 <nmi_handler>:
 8000304:	f8df c5d8 	ldr.w	ip, [pc, #1496]	; 80008e0 <ULAST+0x8>
 8000308:	f002 ba6a 	b.w	80027e0 <INEXT>

0800030c <nmi_hl>:
 800030c:	08004449 	stmdaeq	r0, {r0, r3, r6, sl, lr}
 8000310:	08003a99 	stmdaeq	r0, {r0, r3, r4, r7, r9, fp, ip, sp}
 8000314:	08003b01 	stmdaeq	r0, {r0, r8, r9, fp, ip, sp}
 8000318:	746f6e19 	strbtvc	r6, [pc], #-3609	; 8000320 <nmi_hl+0x14>
 800031c:	6e616d20 	cdpvs	13, 6, cr6, cr1, cr0, {1}
 8000320:	64656761 	strbtvs	r6, [r5], #-1889	; 0xfffff89f
 8000324:	696d6e20 	stmdbvs	sp!, {r5, r9, sl, fp, sp, lr}^
 8000328:	63786520 	cmnvs	r8, #32, 10	; 0x8000000
 800032c:	69747065 	ldmdbvs	r4!, {r0, r2, r5, r6, ip, sp, lr}^
 8000330:	bf006e6f 	svclt	0x00006e6f
 8000334:	08003a99 	stmdaeq	r0, {r0, r3, r4, r7, r9, fp, ip, sp}
 8000338:	080042c1 	stmdaeq	r0, {r0, r6, r7, r9, lr}

0800033c <hardfault_handler>:
 800033c:	f04f 0000 	mov.w	r0, #0
 8000340:	f2c2 0002 	movt	r0, #8194	; 0x2002
 8000344:	4685      	mov	sp, r0
 8000346:	f8df c59c 	ldr.w	ip, [pc, #1436]	; 80008e4 <ULAST+0xc>
 800034a:	f002 ba49 	b.w	80027e0 <INEXT>

0800034e <hardfault_hl>:
 800034e:	08004449 	stmdaeq	r0, {r0, r3, r6, sl, lr}
 8000352:	08003a99 	stmdaeq	r0, {r0, r3, r4, r7, r9, fp, ip, sp}
 8000356:	08003b01 	stmdaeq	r0, {r0, r8, r9, fp, ip, sp}
 800035a:	72616814 	rsbvc	r6, r1, #20, 16	; 0x140000
 800035e:	61662064 	cmnvs	r6, r4, rrx
 8000362:	20746c75 	rsbscs	r6, r4, r5, ror ip
 8000366:	65637865 	strbvs	r7, [r3, #-2149]!	; 0xfffff79b
 800036a:	6f697470 	svcvs	0x00697470
 800036e:	3a99006e 	bcc	664052e <FCLK+0xab2d2e>
 8000372:	05390800 	ldreq	r0, [r9, #-2048]!	; 0xfffff800
 8000376:	 			; <UNDEFINED> instruction: 0xf04f0800

08000378 <memfault_handler>:
 8000378:	f04f 0000 	mov.w	r0, #0
 800037c:	f2c2 0002 	movt	r0, #8194	; 0x2002
 8000380:	4685      	mov	sp, r0
 8000382:	f8df c564 	ldr.w	ip, [pc, #1380]	; 80008e8 <ULAST+0x10>
 8000386:	f002 ba2b 	b.w	80027e0 <INEXT>

0800038a <memfault_hl>:
 800038a:	08004449 	stmdaeq	r0, {r0, r3, r6, sl, lr}
 800038e:	08003a99 	stmdaeq	r0, {r0, r3, r4, r7, r9, fp, ip, sp}
 8000392:	08003b01 	stmdaeq	r0, {r0, r8, r9, fp, ip, sp}
 8000396:	6d656d21 	stclvs	13, cr6, [r5, #-132]!	; 0xffffff7c
 800039a:	2079726f 	rsbscs	r7, r9, pc, ror #4
 800039e:	616e616d 	cmnvs	lr, sp, ror #2
 80003a2:	20726567 	rsbscs	r6, r2, r7, ror #10
 80003a6:	65637865 	strbvs	r7, [r3, #-2149]!	; 0xfffff79b
 80003aa:	6f697470 	svcvs	0x00697470
 80003ae:	4d202c6e 	stcmi	12, cr2, [r0, #-440]!	; 0xfffffe48
 80003b2:	5253464d 	subspl	r4, r3, #80740352	; 0x4d00000
 80003b6:	29a7203a 	stmibcs	r7!, {r1, r3, r4, r5, sp}
 80003ba:	00100800 	andseq	r0, r0, r0, lsl #16
 80003be:	30150000 	andscc	r0, r5, r0
 80003c2:	2a190800 	bcs	86423ca <OPTKEY1+0x4af98f>
 80003c6:	28310800 	ldmdacs	r1!, {fp}
 80003ca:	29a70800 	stmibcs	r7!, {fp}
 80003ce:	00ff0800 	rscseq	r0, pc, r0, lsl #16
 80003d2:	2b650000 	blcs	99403da <OPTKEY1+0x17ad99f>
 80003d6:	3b850800 	blcc	61423de <FCLK+0x5b4bde>
 80003da:	3a990800 	bcc	66423e2 <FCLK+0xab4be2>
 80003de:	05390800 	ldreq	r0, [r9, #-2048]!	; 0xfffff800
 80003e2:	 			; <UNDEFINED> instruction: 0xf04f0800

080003e4 <busfault_handler>:
 80003e4:	f04f 0000 	mov.w	r0, #0
 80003e8:	f2c2 0002 	movt	r0, #8194	; 0x2002
 80003ec:	4685      	mov	sp, r0
 80003ee:	f8df c4fc 	ldr.w	ip, [pc, #1276]	; 80008ec <ULAST+0x14>
 80003f2:	f002 b9f5 	b.w	80027e0 <INEXT>

080003f6 <busfault_hl>:
 80003f6:	08004449 	stmdaeq	r0, {r0, r3, r6, sl, lr}
 80003fa:	080029a7 	stmdaeq	r0, {r0, r1, r2, r5, r7, r8, fp, sp}
 80003fe:	00000001 	andeq	r0, r0, r1
 8000402:	0800297d 	stmdaeq	r0, {r0, r2, r3, r4, r5, r6, r8, fp, sp}
 8000406:	080029a7 	stmdaeq	r0, {r0, r1, r2, r5, r7, r8, fp, sp}
 800040a:	00000064 	andeq	r0, r0, r4, rrx
 800040e:	08002fd1 	stmdaeq	r0, {r0, r4, r6, r7, r8, r9, sl, fp, sp}
 8000412:	08002855 	stmdaeq	r0, {r0, r2, r4, r6, fp, sp}
 8000416:	08002831 	stmdaeq	r0, {r0, r4, r5, fp, sp}
 800041a:	08003a99 	stmdaeq	r0, {r0, r3, r4, r7, r9, fp, ip, sp}
 800041e:	08003b01 	stmdaeq	r0, {r0, r8, r9, fp, ip, sp}
 8000422:	7375621b 	cmnvc	r5, #-1342177279	; 0xb0000001
 8000426:	75616620 	strbvc	r6, [r1, #-1568]!	; 0xfffff9e0
 800042a:	6520746c 	strvs	r7, [r0, #-1132]!	; 0xfffffb94
 800042e:	70656378 	rsbvc	r6, r5, r8, ror r3
 8000432:	6e6f6974 			; <UNDEFINED> instruction: 0x6e6f6974
 8000436:	4642202c 	strbmi	r2, [r2], -ip, lsr #32
 800043a:	203a5253 	eorscs	r5, sl, r3, asr r2
 800043e:	bf00      	nop
 8000440:	080029a7 	stmdaeq	r0, {r0, r1, r2, r5, r7, r8, fp, sp}
 8000444:	00000010 	andeq	r0, r0, r0, lsl r0
 8000448:	08003015 	stmdaeq	r0, {r0, r2, r4, ip, sp}
 800044c:	08002a19 	stmdaeq	r0, {r0, r3, r4, r9, fp, sp}
 8000450:	080029a7 	stmdaeq	r0, {r0, r1, r2, r5, r7, r8, fp, sp}
 8000454:	0000ff00 	andeq	pc, r0, r0, lsl #30
 8000458:	08002b65 	stmdaeq	r0, {r0, r2, r5, r6, r8, r9, fp, sp}
 800045c:	08003b85 	stmdaeq	r0, {r0, r2, r7, r8, r9, fp, ip, sp}
 8000460:	08003b01 	stmdaeq	r0, {r0, r8, r9, fp, ip, sp}
 8000464:	46422007 	strbmi	r2, [r2], -r7
 8000468:	203a5241 	eorscs	r5, sl, r1, asr #4
 800046c:	08003b85 	stmdaeq	r0, {r0, r2, r7, r8, r9, fp, ip, sp}
 8000470:	08003a99 	stmdaeq	r0, {r0, r3, r4, r7, r9, fp, ip, sp}
 8000474:	08000539 	stmdaeq	r0, {r0, r3, r4, r5, r8, sl}

08000478 <usagefault_handler>:
 8000478:	f04f 0000 	mov.w	r0, #0
 800047c:	f2c2 0002 	movt	r0, #8194	; 0x2002
 8000480:	4685      	mov	sp, r0
 8000482:	f8df c46c 	ldr.w	ip, [pc, #1132]	; 80008f0 <ULAST+0x18>
 8000486:	f002 b9ab 	b.w	80027e0 <INEXT>

0800048a <usagefault_hl>:
 800048a:	08004449 	stmdaeq	r0, {r0, r3, r6, sl, lr}
 800048e:	08003a99 	stmdaeq	r0, {r0, r3, r4, r7, r9, fp, ip, sp}
 8000492:	08003b01 	stmdaeq	r0, {r0, r8, r9, fp, ip, sp}
 8000496:	61737517 	cmnvs	r3, r7, lsl r5
 800049a:	65206567 	strvs	r6, [r0, #-1383]!	; 0xfffffa99
 800049e:	70656378 	rsbvc	r6, r5, r8, ror r3
 80004a2:	6e6f6974 			; <UNDEFINED> instruction: 0x6e6f6974
 80004a6:	4655202c 	ldrbmi	r2, [r5], -ip, lsr #32
 80004aa:	203a5253 	eorscs	r5, sl, r3, asr r2
 80004ae:	bf00      	nop
 80004b0:	080029a7 	stmdaeq	r0, {r0, r1, r2, r5, r7, r8, fp, sp}
 80004b4:	00000010 	andeq	r0, r0, r0, lsl r0
 80004b8:	08003015 	stmdaeq	r0, {r0, r2, r4, ip, sp}
 80004bc:	08002a19 	stmdaeq	r0, {r0, r3, r4, r9, fp, sp}
 80004c0:	08002831 	stmdaeq	r0, {r0, r4, r5, fp, sp}
 80004c4:	080029a7 	stmdaeq	r0, {r0, r1, r2, r5, r7, r8, fp, sp}
 80004c8:	00000010 	andeq	r0, r0, r0, lsl r0
 80004cc:	08002bbd 	stmdaeq	r0, {r0, r2, r3, r4, r5, r7, r8, r9, fp, sp}
 80004d0:	08003b85 	stmdaeq	r0, {r0, r2, r7, r8, r9, fp, ip, sp}
 80004d4:	08003a99 	stmdaeq	r0, {r0, r3, r4, r7, r9, fp, ip, sp}
 80004d8:	08000539 	stmdaeq	r0, {r0, r3, r4, r5, r8, sl}

080004dc <systick_handler>:
 80004dc:	f04f 0300 	mov.w	r3, #0
 80004e0:	f2c2 0300 	movt	r3, #8192	; 0x2000
 80004e4:	6898      	ldr	r0, [r3, #8]
 80004e6:	f100 0001 	add.w	r0, r0, #1
 80004ea:	6098      	str	r0, [r3, #8]
 80004ec:	68d8      	ldr	r0, [r3, #12]
 80004ee:	b110      	cbz	r0, 80004f6 <systick_exit>
 80004f0:	f1a0 0001 	sub.w	r0, r0, #1
 80004f4:	60d8      	str	r0, [r3, #12]

080004f6 <systick_exit>:
 80004f6:	4770      	bx	lr

080004f8 <user_reboot>:
 80004f8:	b500      	push	{lr}
 80004fa:	f000 f84f 	bl	800059c <forth_init>
 80004fe:	f85d eb04 	ldr.w	lr, [sp], #4
 8000502:	f8df c3f0 	ldr.w	ip, [pc, #1008]	; 80008f4 <ULAST+0x1c>
 8000506:	f002 b96b 	b.w	80027e0 <INEXT>

0800050a <ur>:
 800050a:	08004449 	stmdaeq	r0, {r0, r3, r6, sl, lr}
 800050e:	08003a99 	stmdaeq	r0, {r0, r3, r4, r7, r9, fp, ip, sp}
 8000512:	080029a7 	stmdaeq	r0, {r0, r1, r2, r5, r7, r8, fp, sp}
 8000516:	08000528 	stmdaeq	r0, {r3, r5, r8, sl}
 800051a:	08002f75 	stmdaeq	r0, {r0, r2, r4, r5, r6, r8, r9, sl, fp, sp}
 800051e:	08003a65 	stmdaeq	r0, {r0, r2, r5, r6, r9, fp, ip, sp}
 8000522:	08000539 	stmdaeq	r0, {r0, r3, r4, r5, r8, sl}
 8000526:	bf00      	nop

08000528 <user_reboot_msg>:
 8000528:	6573750c 	ldrbvs	r7, [r3, #-1292]!	; 0xfffffaf4
 800052c:	65722072 	ldrbvs	r2, [r2, #-114]!	; 0xffffff8e
 8000530:	746f6f62 	strbtvc	r6, [pc], #-3938	; 8000538 <reset_mcu>
 8000534:	bf000021 	svclt	0x00000021

08000538 <reset_mcu>:
 8000538:	f44f 5080 	mov.w	r0, #4096	; 0x1000
 800053c:	f2c4 0001 	movt	r0, #16385	; 0x4001
 8000540:	6801      	ldr	r1, [r0, #0]
 8000542:	f011 0f40 	tst.w	r1, #64	; 0x40
 8000546:	d0fb      	beq.n	8000540 <reset_mcu+0x8>
 8000548:	f44f 406d 	mov.w	r0, #60672	; 0xed00
 800054c:	f2ce 0000 	movt	r0, #57344	; 0xe000
 8000550:	68c1      	ldr	r1, [r0, #12]
 8000552:	f041 0104 	orr.w	r1, r1, #4
 8000556:	f2c0 51fa 	movt	r1, #1530	; 0x5fa
 800055a:	60c1      	str	r1, [r0, #12]
 800055c:	e7fe      	b.n	800055c <reset_mcu+0x24>
 800055e:	bf00      	nop

08000560 <reset_handler>:
 8000560:	f04f 0000 	mov.w	r0, #0
 8000564:	f2c2 0002 	movt	r0, #8194	; 0x2002
 8000568:	4685      	mov	sp, r0
 800056a:	f44f 406d 	mov.w	r0, #60672	; 0xed00
 800056e:	f2ce 0000 	movt	r0, #57344	; 0xe000
 8000572:	ea81 0101 	eor.w	r1, r1, r1
 8000576:	f2c0 0107 	movt	r1, #7
 800057a:	6241      	str	r1, [r0, #36]	; 0x24
 800057c:	f000 f88e 	bl	800069c <remap>
 8000580:	f000 f820 	bl	80005c4 <init_devices>
 8000584:	f001 fd19 	bl	8001fba <fpu_init>
 8000588:	f000 f9d1 	bl	800092e <ser_init>
 800058c:	f000 fafa 	bl	8000b84 <tv_init>
 8000590:	f001 f8ce 	bl	8001730 <kbd_init>
 8000594:	f001 fad6 	bl	8001b44 <flash_spi_init>
 8000598:	f004 be82 	b.w	80052a0 <COLD>

0800059c <forth_init>:
 800059c:	f04f 0400 	mov.w	r4, #0
 80005a0:	f2c2 0400 	movt	r4, #8192	; 0x2000
 80005a4:	f64f 6780 	movw	r7, #65152	; 0xfe80
 80005a8:	f2c2 0701 	movt	r7, #8193	; 0x2001
 80005ac:	f44f 487f 	mov.w	r8, #65280	; 0xff00
 80005b0:	f2c2 0801 	movt	r8, #8193	; 0x2001
 80005b4:	f8df a340 	ldr.w	sl, [pc, #832]	; 80008f8 <ULAST+0x20>
 80005b8:	f04a 0a01 	orr.w	sl, sl, #1
 80005bc:	ea86 0606 	eor.w	r6, r6, r6
 80005c0:	4770      	bx	lr
 80005c2:	bf00      	nop

080005c4 <init_devices>:
 80005c4:	f44f 5070 	mov.w	r0, #15360	; 0x3c00
 80005c8:	f2c4 0002 	movt	r0, #16386	; 0x4002
 80005cc:	f04f 0103 	mov.w	r1, #3
 80005d0:	6001      	str	r1, [r0, #0]
 80005d2:	f44f 5060 	mov.w	r0, #14336	; 0x3800
 80005d6:	f2c4 0002 	movt	r0, #16386	; 0x4002
 80005da:	6801      	ldr	r1, [r0, #0]
 80005dc:	f441 3180 	orr.w	r1, r1, #65536	; 0x10000
 80005e0:	6001      	str	r1, [r0, #0]

080005e2 <wait_hserdy>:
 80005e2:	6801      	ldr	r1, [r0, #0]
 80005e4:	f411 3f00 	tst.w	r1, #131072	; 0x20000
 80005e8:	d0fb      	beq.n	80005e2 <wait_hserdy>
 80005ea:	f44f 5060 	mov.w	r0, #14336	; 0x3800
 80005ee:	f2c4 0002 	movt	r0, #16386	; 0x4002
 80005f2:	f246 0132 	movw	r1, #24626	; 0x6032
 80005f6:	f2c0 4140 	movt	r1, #1088	; 0x440
 80005fa:	6041      	str	r1, [r0, #4]
 80005fc:	6801      	ldr	r1, [r0, #0]
 80005fe:	f041 7180 	orr.w	r1, r1, #16777216	; 0x1000000
 8000602:	6001      	str	r1, [r0, #0]

08000604 <wait_pllrdy>:
 8000604:	6801      	ldr	r1, [r0, #0]
 8000606:	f011 7f00 	tst.w	r1, #33554432	; 0x2000000
 800060a:	d1fb      	bne.n	8000604 <wait_pllrdy>
 800060c:	f44f 5180 	mov.w	r1, #4096	; 0x1000
 8000610:	f2c0 0119 	movt	r1, #25
 8000614:	6081      	str	r1, [r0, #8]
 8000616:	6881      	ldr	r1, [r0, #8]
 8000618:	f041 0102 	orr.w	r1, r1, #2
 800061c:	6081      	str	r1, [r0, #8]

0800061e <wait_sws>:
 800061e:	6881      	ldr	r1, [r0, #8]
 8000620:	f011 0f08 	tst.w	r1, #8
 8000624:	d0fb      	beq.n	800061e <wait_sws>
 8000626:	f04f 019f 	mov.w	r1, #159	; 0x9f
 800062a:	6301      	str	r1, [r0, #48]	; 0x30
 800062c:	f244 0110 	movw	r1, #16400	; 0x4010
 8000630:	6441      	str	r1, [r0, #68]	; 0x44
 8000632:	f44f 6000 	mov.w	r0, #2048	; 0x800
 8000636:	f2c4 0002 	movt	r0, #16386	; 0x4002
 800063a:	f04f 010d 	mov.w	r1, #13
 800063e:	f04f 0211 	mov.w	r2, #17
 8000642:	b500      	push	{lr}
 8000644:	f000 f88f 	bl	8000766 <gpio_config>
 8000648:	f85d eb04 	ldr.w	lr, [sp], #4
 800064c:	f04f 0201 	mov.w	r2, #1
 8000650:	b500      	push	{lr}
 8000652:	f000 f8de 	bl	8000812 <gpio_out>
 8000656:	f85d eb04 	ldr.w	lr, [sp], #4
 800065a:	f44f 5160 	mov.w	r1, #14336	; 0x3800
 800065e:	f2c4 0101 	movt	r1, #16385	; 0x4001
 8000662:	f04f 0001 	mov.w	r0, #1
 8000666:	6208      	str	r0, [r1, #32]
 8000668:	6a08      	ldr	r0, [r1, #32]
 800066a:	f410 7f80 	tst.w	r0, #256	; 0x100
 800066e:	d0fb      	beq.n	8000668 <wait_sws+0x4a>
 8000670:	f04f 30ff 	mov.w	r0, #4294967295	; 0xffffffff
 8000674:	f04f 010f 	mov.w	r1, #15
 8000678:	b500      	push	{lr}
 800067a:	f000 f82f 	bl	80006dc <nvic_set_priority>
 800067e:	f85d eb04 	ldr.w	lr, [sp], #4
 8000682:	f24e 0010 	movw	r0, #57360	; 0xe010
 8000686:	f2ce 0000 	movt	r0, #57344	; 0xe000
 800068a:	f247 61ff 	movw	r1, #30463	; 0x76ff
 800068e:	f2c0 0101 	movt	r1, #1
 8000692:	6041      	str	r1, [r0, #4]
 8000694:	f04f 0107 	mov.w	r1, #7
 8000698:	6001      	str	r1, [r0, #0]
 800069a:	4770      	bx	lr

0800069c <remap>:
 800069c:	f04f 0000 	mov.w	r0, #0
 80006a0:	f2c2 0000 	movt	r0, #8192	; 0x2000
 80006a4:	4995      	ldr	r1, [pc, #596]	; (80008fc <ULAST+0x24>)
 80006a6:	f04f 02b0 	mov.w	r2, #176	; 0xb0
 80006aa:	f102 0203 	add.w	r2, r2, #3
 80006ae:	f022 0203 	bic.w	r2, r2, #3
 80006b2:	f851 3b04 	ldr.w	r3, [r1], #4
 80006b6:	f840 3b04 	str.w	r3, [r0], #4
 80006ba:	3a04      	subs	r2, #4
 80006bc:	d1f9      	bne.n	80006b2 <remap+0x16>
 80006be:	f04f 0200 	mov.w	r2, #0
 80006c2:	f2c2 0202 	movt	r2, #8194	; 0x2002
 80006c6:	ea83 0303 	eor.w	r3, r3, r3
 80006ca:	f840 3b04 	str.w	r3, [r0], #4
 80006ce:	4290      	cmp	r0, r2
 80006d0:	dbfb      	blt.n	80006ca <remap+0x2e>
 80006d2:	f04f 0400 	mov.w	r4, #0
 80006d6:	f2c2 0400 	movt	r4, #8192	; 0x2000
 80006da:	4770      	bx	lr

080006dc <nvic_set_priority>:
 80006dc:	b408      	push	{r3}
 80006de:	2800      	cmp	r0, #0
 80006e0:	d408      	bmi.n	80006f4 <negative_irq>
 80006e2:	f44f 4364 	mov.w	r3, #58368	; 0xe400
 80006e6:	f2ce 0300 	movt	r3, #57344	; 0xe000
 80006ea:	ea4f 1101 	mov.w	r1, r1, lsl #4
 80006ee:	5419      	strb	r1, [r3, r0]
 80006f0:	bc08      	pop	{r3}
 80006f2:	4770      	bx	lr

080006f4 <negative_irq>:
 80006f4:	f64e 5318 	movw	r3, #60696	; 0xed18
 80006f8:	f2ce 0300 	movt	r3, #57344	; 0xe000
 80006fc:	f000 000f 	and.w	r0, r0, #15
 8000700:	f1a0 0004 	sub.w	r0, r0, #4
 8000704:	ea4f 1101 	mov.w	r1, r1, lsl #4
 8000708:	5419      	strb	r1, [r3, r0]
 800070a:	bc08      	pop	{r3}
 800070c:	4770      	bx	lr

0800070e <nvic_enable_irq>:
 800070e:	b40e      	push	{r1, r2, r3}
 8000710:	f44f 4361 	mov.w	r3, #57600	; 0xe100
 8000714:	f2ce 0300 	movt	r3, #57344	; 0xe000
 8000718:	4601      	mov	r1, r0
 800071a:	ea4f 1151 	mov.w	r1, r1, lsr #5
 800071e:	ea4f 0181 	mov.w	r1, r1, lsl #2
 8000722:	f000 001f 	and.w	r0, r0, #31
 8000726:	f04f 0201 	mov.w	r2, #1
 800072a:	fa02 f200 	lsl.w	r2, r2, r0
 800072e:	b672      	cpsid	i
 8000730:	505a      	str	r2, [r3, r1]
 8000732:	b662      	cpsie	i
 8000734:	bc0e      	pop	{r1, r2, r3}
 8000736:	4770      	bx	lr

08000738 <nvic_disable_irq>:
 8000738:	b40e      	push	{r1, r2, r3}
 800073a:	f24e 1380 	movw	r3, #57728	; 0xe180
 800073e:	f2ce 0300 	movt	r3, #57344	; 0xe000
 8000742:	4601      	mov	r1, r0
 8000744:	ea4f 1151 	mov.w	r1, r1, lsr #5
 8000748:	ea4f 0181 	mov.w	r1, r1, lsl #2
 800074c:	f000 001f 	and.w	r0, r0, #31
 8000750:	f04f 0201 	mov.w	r2, #1
 8000754:	fa02 f200 	lsl.w	r2, r2, r0
 8000758:	505a      	str	r2, [r3, r1]
 800075a:	f3bf 8f4f 	dsb	sy
 800075e:	f3bf 8f6f 	isb	sy
 8000762:	bc0e      	pop	{r1, r2, r3}
 8000764:	4770      	bx	lr

08000766 <gpio_config>:
 8000766:	e92d 0828 	stmdb	sp!, {r3, r5, fp}
 800076a:	f04f 0501 	mov.w	r5, #1
 800076e:	fa05 f501 	lsl.w	r5, r5, r1
 8000772:	ea6f 0505 	mvn.w	r5, r5
 8000776:	6843      	ldr	r3, [r0, #4]
 8000778:	ea03 0305 	and.w	r3, r3, r5
 800077c:	6043      	str	r3, [r0, #4]
 800077e:	f04f 0503 	mov.w	r5, #3
 8000782:	f04f 0b02 	mov.w	fp, #2
 8000786:	fb01 fb0b 	mul.w	fp, r1, fp
 800078a:	fa05 f50b 	lsl.w	r5, r5, fp
 800078e:	ea6f 0505 	mvn.w	r5, r5
 8000792:	6803      	ldr	r3, [r0, #0]
 8000794:	ea03 0305 	and.w	r3, r3, r5
 8000798:	6003      	str	r3, [r0, #0]
 800079a:	68c3      	ldr	r3, [r0, #12]
 800079c:	ea03 0305 	and.w	r3, r3, r5
 80007a0:	60c3      	str	r3, [r0, #12]
 80007a2:	f002 0503 	and.w	r5, r2, #3
 80007a6:	fa05 f50b 	lsl.w	r5, r5, fp
 80007aa:	6803      	ldr	r3, [r0, #0]
 80007ac:	ea43 0305 	orr.w	r3, r3, r5
 80007b0:	6003      	str	r3, [r0, #0]
 80007b2:	2a03      	cmp	r2, #3
 80007b4:	d013      	beq.n	80007de <input_pull+0x10>
 80007b6:	f012 0503 	ands.w	r5, r2, #3
 80007ba:	d008      	beq.n	80007ce <input_pull>

080007bc <output_type>:
 80007bc:	ea4f 1212 	mov.w	r2, r2, lsr #4
 80007c0:	fa02 f201 	lsl.w	r2, r2, r1
 80007c4:	6843      	ldr	r3, [r0, #4]
 80007c6:	ea43 0302 	orr.w	r3, r3, r2
 80007ca:	6043      	str	r3, [r0, #4]
 80007cc:	e007      	b.n	80007de <input_pull+0x10>

080007ce <input_pull>:
 80007ce:	68c3      	ldr	r3, [r0, #12]
 80007d0:	ea4f 1212 	mov.w	r2, r2, lsr #4
 80007d4:	fa02 f20b 	lsl.w	r2, r2, fp
 80007d8:	ea43 0302 	orr.w	r3, r3, r2
 80007dc:	60c3      	str	r3, [r0, #12]
 80007de:	e8bd 0828 	ldmia.w	sp!, {r3, r5, fp}
 80007e2:	4770      	bx	lr

080007e4 <gpio_speed>:
 80007e4:	e92d 0828 	stmdb	sp!, {r3, r5, fp}
 80007e8:	6883      	ldr	r3, [r0, #8]
 80007ea:	f04f 0503 	mov.w	r5, #3
 80007ee:	f04f 0b02 	mov.w	fp, #2
 80007f2:	fb01 fb0b 	mul.w	fp, r1, fp
 80007f6:	fa05 f50b 	lsl.w	r5, r5, fp
 80007fa:	ea6f 0505 	mvn.w	r5, r5
 80007fe:	ea03 0305 	and.w	r3, r3, r5
 8000802:	fa02 f20b 	lsl.w	r2, r2, fp
 8000806:	ea43 0302 	orr.w	r3, r3, r2
 800080a:	6083      	str	r3, [r0, #8]
 800080c:	e8bd 0828 	ldmia.w	sp!, {r3, r5, fp}
 8000810:	4770      	bx	lr

08000812 <gpio_out>:
 8000812:	b408      	push	{r3}
 8000814:	f04f 0301 	mov.w	r3, #1
 8000818:	fa03 f301 	lsl.w	r3, r3, r1
 800081c:	b90a      	cbnz	r2, 8000822 <gpio_out+0x10>
 800081e:	ea4f 4303 	mov.w	r3, r3, lsl #16
 8000822:	6183      	str	r3, [r0, #24]
 8000824:	bc08      	pop	{r3}
 8000826:	4770      	bx	lr

08000828 <UZERO>:
 8000828:	00000000 	andeq	r0, r0, r0
 800082c:	aa55aa55 	bge	956b188 <OPTKEY1+0x13d874d>
	...
 8000838:	080051b0 	stmdaeq	r0, {r4, r5, r7, r8, ip, lr}
 800083c:	0800182c 	stmdaeq	r0, {r2, r3, r5, fp, ip}
 8000840:	080010f4 	stmdaeq	r0, {r2, r4, r5, r6, r7, ip}
 8000844:	0000000a 	andeq	r0, r0, sl
	...
 8000858:	2001fe80 	andcs	pc, r1, r0, lsl #29
 800085c:	08004320 	stmdaeq	r0, {r5, r8, r9, lr}
 8000860:	00000000 	andeq	r0, r0, r0
 8000864:	08005298 	stmdaeq	r0, {r3, r4, r7, r9, ip, lr}
 8000868:	08005300 	stmdaeq	r0, {r8, r9, ip, lr}
 800086c:	20004ad8 	ldrdcs	r4, [r0], -r8
 8000870:	08005298 	stmdaeq	r0, {r3, r4, r7, r9, ip, lr}
	...
 8000898:	20018080 	andcs	r8, r1, r0, lsl #1
	...
 80008c4:	00000007 	andeq	r0, r0, r7
	...

080008d8 <ULAST>:
 80008d8:	08000212 	stmdaeq	r0, {r1, r4, r9}
 80008dc:	080002c2 	stmdaeq	r0, {r1, r6, r7, r9}
 80008e0:	0800030c 	stmdaeq	r0, {r2, r3, r8, r9}
 80008e4:	0800034e 	stmdaeq	r0, {r1, r2, r3, r6, r8, r9}
 80008e8:	0800038a 	stmdaeq	r0, {r1, r3, r7, r8, r9}
 80008ec:	080003f6 	stmdaeq	r0, {r1, r2, r4, r5, r6, r7, r8, r9}
 80008f0:	0800048a 	stmdaeq	r0, {r1, r3, r7, sl}
 80008f4:	0800050a 	stmdaeq	r0, {r1, r3, r8, sl}
 80008f8:	080027d8 	stmdaeq	r0, {r3, r4, r6, r7, r8, r9, sl, sp}
 80008fc:	08000828 	stmdaeq	r0, {r3, r5, fp}

08000900 <uart_rx_handler>:
 8000900:	f44f 5380 	mov.w	r3, #4096	; 0x1000
 8000904:	f2c4 0301 	movt	r3, #16385	; 0x4001
 8000908:	6818      	ldr	r0, [r3, #0]
 800090a:	6859      	ldr	r1, [r3, #4]
 800090c:	f010 0f20 	tst.w	r0, #32
 8000910:	d00c      	beq.n	800092c <uart_rx_handler+0x2c>
 8000912:	f1b1 0f03 	cmp.w	r1, #3
 8000916:	f43f adef 	beq.w	80004f8 <user_reboot>
 800091a:	f104 004c 	add.w	r0, r4, #76	; 0x4c
 800091e:	6e22      	ldr	r2, [r4, #96]	; 0x60
 8000920:	5481      	strb	r1, [r0, r2]
 8000922:	f102 0201 	add.w	r2, r2, #1
 8000926:	f002 020f 	and.w	r2, r2, #15
 800092a:	6622      	str	r2, [r4, #96]	; 0x60
 800092c:	4770      	bx	lr

0800092e <ser_init>:
 800092e:	f04f 0000 	mov.w	r0, #0
 8000932:	f2c4 0002 	movt	r0, #16386	; 0x4002
 8000936:	6801      	ldr	r1, [r0, #0]
 8000938:	f46f 1270 	mvn.w	r2, #3932160	; 0x3c0000
 800093c:	ea01 0102 	and.w	r1, r1, r2
 8000940:	f44f 1220 	mov.w	r2, #2621440	; 0x280000
 8000944:	ea41 0102 	orr.w	r1, r1, r2
 8000948:	6001      	str	r1, [r0, #0]
 800094a:	f44f 61ee 	mov.w	r1, #1904	; 0x770
 800094e:	6241      	str	r1, [r0, #36]	; 0x24
 8000950:	f44f 5080 	mov.w	r0, #4096	; 0x1000
 8000954:	f2c4 0001 	movt	r0, #16385	; 0x4001
 8000958:	f240 3141 	movw	r1, #833	; 0x341
 800095c:	6081      	str	r1, [r0, #8]
 800095e:	f242 012c 	movw	r1, #8236	; 0x202c
 8000962:	60c1      	str	r1, [r0, #12]
 8000964:	f04f 0025 	mov.w	r0, #37	; 0x25
 8000968:	f04f 0107 	mov.w	r1, #7
 800096c:	b500      	push	{lr}
 800096e:	f7ff feb5 	bl	80006dc <nvic_set_priority>
 8000972:	f85d eb04 	ldr.w	lr, [sp], #4
 8000976:	f04f 0025 	mov.w	r0, #37	; 0x25
 800097a:	b500      	push	{lr}
 800097c:	f7ff fec7 	bl	800070e <nvic_enable_irq>
 8000980:	f85d eb04 	ldr.w	lr, [sp], #4
 8000984:	4770      	bx	lr
 8000986:	00000000 	andeq	r0, r0, r0

0800098a <_SER_QKEY>:
 800098a:	52455308 	subpl	r5, r5, #8, 6	; 0x20000000
 800098e:	59454b2d 	stmdbpl	r5, {r0, r2, r3, r5, r8, r9, fp, lr}^
 8000992:	 			; <UNDEFINED> instruction: 0xf847003f

08000994 <SER_QKEY>:
 8000994:	f847 6d04 	str.w	r6, [r7, #-4]!
 8000998:	6e20      	ldr	r0, [r4, #96]	; 0x60
 800099a:	6de1      	ldr	r1, [r4, #92]	; 0x5c
 800099c:	ea90 0601 	eors.w	r6, r0, r1
 80009a0:	d00c      	beq.n	80009bc <SER_QKEY+0x28>
 80009a2:	f104 004c 	add.w	r0, r4, #76	; 0x4c
 80009a6:	4408      	add	r0, r1
 80009a8:	7806      	ldrb	r6, [r0, #0]
 80009aa:	f101 0101 	add.w	r1, r1, #1
 80009ae:	f001 010f 	and.w	r1, r1, #15
 80009b2:	65e1      	str	r1, [r4, #92]	; 0x5c
 80009b4:	f847 6d04 	str.w	r6, [r7, #-4]!
 80009b8:	f04f 36ff 	mov.w	r6, #4294967295	; 0xffffffff
 80009bc:	f001 bf10 	b.w	80027e0 <INEXT>
 80009c0:	0800098a 	stmdaeq	r0, {r1, r3, r7, r8, fp}

080009c4 <_SER_EMIT>:
 80009c4:	52455308 	subpl	r5, r5, #8, 6	; 0x20000000
 80009c8:	494d452d 	stmdbmi	sp, {r0, r2, r3, r5, r8, sl, lr}^
 80009cc:	bf000054 	svclt	0x00000054

080009d0 <SER_EMIT>:
 80009d0:	f44f 5580 	mov.w	r5, #4096	; 0x1000
 80009d4:	f2c4 0501 	movt	r5, #16385	; 0x4001
 80009d8:	6828      	ldr	r0, [r5, #0]
 80009da:	f010 0f80 	tst.w	r0, #128	; 0x80
 80009de:	d0fb      	beq.n	80009d8 <SER_EMIT+0x8>
 80009e0:	712e      	strb	r6, [r5, #4]
 80009e2:	f857 6b04 	ldr.w	r6, [r7], #4
 80009e6:	f001 befb 	b.w	80027e0 <INEXT>
 80009ea:	080009c4 	stmdaeq	r0, {r2, r6, r7, r8, fp}

080009ee <_LOCAL>:
 80009ee:	434f4c05 	movtmi	r4, #64517	; 0xfc05
 80009f2:	 			; <UNDEFINED> instruction: 0xf8474c41

080009f4 <LOCAL>:
 80009f4:	f847 6d04 	str.w	r6, [r7, #-4]!
 80009f8:	f04f 0600 	mov.w	r6, #0
 80009fc:	f001 bef0 	b.w	80027e0 <INEXT>
 8000a00:	080009ee 	stmdaeq	r0, {r1, r2, r3, r5, r6, r7, r8, fp}

08000a04 <_SERIAL>:
 8000a04:	52455306 	subpl	r5, r5, #402653184	; 0x18000000
 8000a08:	004c4149 	subeq	r4, ip, r9, asr #2

08000a0c <SERIAL>:
 8000a0c:	f847 6d04 	str.w	r6, [r7, #-4]!
 8000a10:	f04f 0601 	mov.w	r6, #1
 8000a14:	f001 bee4 	b.w	80027e0 <INEXT>
 8000a18:	08000a04 	stmdaeq	r0, {r2, r9, fp}

08000a1c <_CONSOLE>:
 8000a1c:	4e4f4307 	cdpmi	3, 4, cr4, cr15, cr7, {0}
 8000a20:	454c4f53 	strbmi	r4, [ip, #-3923]	; 0xfffff0ad

08000a24 <CONSOLE>:
 8000a24:	4630      	mov	r0, r6
 8000a26:	f857 6b04 	ldr.w	r6, [r7], #4
 8000a2a:	b150      	cbz	r0, 8000a42 <CONSOLE+0x1e>
 8000a2c:	4850      	ldr	r0, [pc, #320]	; (8000b70 <SER_CLS+0x28>)
 8000a2e:	6160      	str	r0, [r4, #20]
 8000a30:	4850      	ldr	r0, [pc, #320]	; (8000b74 <SER_CLS+0x2c>)
 8000a32:	61a0      	str	r0, [r4, #24]
 8000a34:	4d50      	ldr	r5, [pc, #320]	; (8000b78 <SER_CLS+0x30>)
 8000a36:	f045 0501 	orr.w	r5, r5, #1
 8000a3a:	f004 bc1f 	b.w	800527c <READY>
 8000a3e:	f001 becf 	b.w	80027e0 <INEXT>
 8000a42:	484e      	ldr	r0, [pc, #312]	; (8000b7c <SER_CLS+0x34>)
 8000a44:	6160      	str	r0, [r4, #20]
 8000a46:	484e      	ldr	r0, [pc, #312]	; (8000b80 <SER_CLS+0x38>)
 8000a48:	61a0      	str	r0, [r4, #24]
 8000a4a:	4d4b      	ldr	r5, [pc, #300]	; (8000b78 <SER_CLS+0x30>)
 8000a4c:	f045 0501 	orr.w	r5, r5, #1
 8000a50:	f004 bc14 	b.w	800527c <READY>
 8000a54:	f001 bec4 	b.w	80027e0 <INEXT>
 8000a58:	08000a1c 	stmdaeq	r0, {r2, r3, r4, r9, fp}

08000a5c <_ANSI_PARAM>:
 8000a5c:	534e410a 	movtpl	r4, #57610	; 0xe10a
 8000a60:	41502d49 	cmpmi	r0, r9, asr #26
 8000a64:	004d4152 	subeq	r4, sp, r2, asr r1

08000a68 <ANSI_PARAM>:
 8000a68:	4750      	bx	sl
 8000a6a:	bf00      	nop
 8000a6c:	080029a7 	stmdaeq	r0, {r0, r1, r2, r5, r7, r8, fp, sp}
 8000a70:	ffffffff 			; <UNDEFINED> instruction: 0xffffffff
 8000a74:	08002c41 	stmdaeq	r0, {r0, r6, sl, fp, sp}
 8000a78:	08002a9d 	stmdaeq	r0, {r0, r2, r3, r4, r7, r9, fp, sp}
 8000a7c:	080029a7 	stmdaeq	r0, {r0, r1, r2, r5, r7, r8, fp, sp}
 8000a80:	0000000a 	andeq	r0, r0, sl
 8000a84:	08003345 	stmdaeq	r0, {r0, r2, r6, r8, r9, ip, sp}
 8000a88:	08002cf5 	stmdaeq	r0, {r0, r2, r4, r5, r6, r7, sl, fp, sp}
 8000a8c:	080029e7 	stmdaeq	r0, {r0, r1, r2, r5, r6, r7, r8, fp, sp}
 8000a90:	08000aa0 	stmdaeq	r0, {r5, r7, r9, fp}
 8000a94:	08002a59 	stmdaeq	r0, {r0, r3, r4, r6, r9, fp, sp}
 8000a98:	080029fb 	stmdaeq	r0, {r0, r1, r3, r4, r5, r6, r7, r8, fp, sp}
 8000a9c:	08000a74 	stmdaeq	r0, {r2, r4, r5, r6, r9, fp}
 8000aa0:	080029a7 	stmdaeq	r0, {r0, r1, r2, r5, r7, r8, fp, sp}
 8000aa4:	00000030 	andeq	r0, r0, r0, lsr r0
 8000aa8:	08002be5 	stmdaeq	r0, {r0, r2, r5, r6, r7, r8, r9, fp, sp}
 8000aac:	080028b1 	stmdaeq	r0, {r0, r4, r5, r7, fp, sp}
 8000ab0:	08002a59 	stmdaeq	r0, {r0, r3, r4, r6, r9, fp, sp}
 8000ab4:	08002cf5 	stmdaeq	r0, {r0, r2, r4, r5, r6, r7, sl, fp, sp}
 8000ab8:	080029e7 	stmdaeq	r0, {r0, r1, r2, r5, r6, r7, r8, fp, sp}
 8000abc:	08000ad0 	stmdaeq	r0, {r4, r6, r7, r9, fp}
 8000ac0:	08002c51 	stmdaeq	r0, {r0, r4, r6, sl, fp, sp}
 8000ac4:	08002a9d 	stmdaeq	r0, {r0, r2, r3, r4, r7, r9, fp, sp}
 8000ac8:	080029fb 	stmdaeq	r0, {r0, r1, r3, r4, r5, r6, r7, r8, fp, sp}
 8000acc:	08000aa0 	stmdaeq	r0, {r5, r7, r9, fp}
 8000ad0:	080027e7 	stmdaeq	r0, {r0, r1, r2, r5, r6, r7, r8, r9, sl, sp}
 8000ad4:	08000a5c 	stmdaeq	r0, {r2, r3, r4, r6, r9, fp}

08000ad8 <_ANSI_ESC>:
 8000ad8:	43534504 	cmpmi	r3, #4, 10	; 0x1000000
 8000adc:	bf00005b 	svclt	0x0000005b

08000ae0 <ANSI_ESC>:
 8000ae0:	4750      	bx	sl
 8000ae2:	bf00      	nop
 8000ae4:	080029a7 	stmdaeq	r0, {r0, r1, r2, r5, r7, r8, fp, sp}
 8000ae8:	0000001b 	andeq	r0, r0, fp, lsl r0
 8000aec:	080028b1 	stmdaeq	r0, {r0, r4, r5, r7, fp, sp}
 8000af0:	080029a7 	stmdaeq	r0, {r0, r1, r2, r5, r7, r8, fp, sp}
 8000af4:	0000005b 	andeq	r0, r0, fp, asr r0
 8000af8:	080028b1 	stmdaeq	r0, {r0, r4, r5, r7, fp, sp}
 8000afc:	080027e7 	stmdaeq	r0, {r0, r1, r2, r5, r6, r7, r8, r9, sl, sp}
 8000b00:	08000ad8 	stmdaeq	r0, {r3, r4, r6, r7, r9, fp}

08000b04 <_SER_AT>:
 8000b04:	52455306 	subpl	r5, r5, #402653184	; 0x18000000
 8000b08:	0054412d 	subseq	r4, r4, sp, lsr #2

08000b0c <SER_AT>:
 8000b0c:	4750      	bx	sl
 8000b0e:	bf00      	nop
 8000b10:	08000ae1 	stmdaeq	r0, {r0, r5, r6, r7, r9, fp}
 8000b14:	08002b31 	stmdaeq	r0, {r0, r4, r5, r8, r9, fp, sp}
 8000b18:	08000a69 	stmdaeq	r0, {r0, r3, r5, r6, r9, fp}
 8000b1c:	080029a7 	stmdaeq	r0, {r0, r1, r2, r5, r7, r8, fp, sp}
 8000b20:	0000003b 	andeq	r0, r0, fp, lsr r0
 8000b24:	080028b1 	stmdaeq	r0, {r0, r4, r5, r7, fp, sp}
 8000b28:	08000a69 	stmdaeq	r0, {r0, r3, r5, r6, r9, fp}
 8000b2c:	080029a7 	stmdaeq	r0, {r0, r1, r2, r5, r7, r8, fp, sp}
 8000b30:	00000048 	andeq	r0, r0, r8, asr #32
 8000b34:	080028b1 	stmdaeq	r0, {r0, r4, r5, r7, fp, sp}
 8000b38:	080027e7 	stmdaeq	r0, {r0, r1, r2, r5, r6, r7, r8, r9, sl, sp}
 8000b3c:	08000b04 	stmdaeq	r0, {r2, r8, r9, fp}

08000b40 <_SER_CLS>:
 8000b40:	52455307 	subpl	r5, r5, #469762048	; 0x1c000000
 8000b44:	534c432d 	movtpl	r4, #49965	; 0xc32d

08000b48 <SER_CLS>:
 8000b48:	4750      	bx	sl
 8000b4a:	bf00      	nop
 8000b4c:	080029a7 	stmdaeq	r0, {r0, r1, r2, r5, r7, r8, fp, sp}
 8000b50:	00000001 	andeq	r0, r0, r1
 8000b54:	08002b21 	stmdaeq	r0, {r0, r5, r8, r9, fp, sp}
 8000b58:	08000b0d 	stmdaeq	r0, {r0, r2, r3, r8, r9, fp}
 8000b5c:	08000ae1 	stmdaeq	r0, {r0, r5, r6, r7, r9, fp}
 8000b60:	080029a7 	stmdaeq	r0, {r0, r1, r2, r5, r7, r8, fp, sp}
 8000b64:	0000004a 	andeq	r0, r0, sl, asr #32
 8000b68:	080028b1 	stmdaeq	r0, {r0, r4, r5, r7, fp, sp}
 8000b6c:	080027e7 	stmdaeq	r0, {r0, r1, r2, r5, r6, r7, r8, r9, sl, sp}
 8000b70:	08000994 	stmdaeq	r0, {r2, r4, r7, r8, fp}
 8000b74:	080009d0 	stmdaeq	r0, {r4, r6, r7, r8, fp}
 8000b78:	0800527c 	stmdaeq	r0, {r2, r3, r4, r5, r6, r9, ip, lr}
 8000b7c:	0800182c 	stmdaeq	r0, {r2, r3, r5, fp, ip}
 8000b80:	080010f4 	stmdaeq	r0, {r2, r4, r5, r6, r7, ip}

08000b84 <tv_init>:
 8000b84:	f44f 6080 	mov.w	r0, #1024	; 0x400
 8000b88:	f2c4 0002 	movt	r0, #16386	; 0x4002
 8000b8c:	6801      	ldr	r1, [r0, #0]
 8000b8e:	f04f 0200 	mov.w	r2, #0
 8000b92:	f2c5 5200 	movt	r2, #21760	; 0x5500
 8000b96:	ea41 0102 	orr.w	r1, r1, r2
 8000b9a:	6001      	str	r1, [r0, #0]
 8000b9c:	ea81 0101 	eor.w	r1, r1, r1
 8000ba0:	6141      	str	r1, [r0, #20]
 8000ba2:	f04f 0101 	mov.w	r1, #1
 8000ba6:	f04f 0202 	mov.w	r2, #2
 8000baa:	b500      	push	{lr}
 8000bac:	f7ff fddb 	bl	8000766 <gpio_config>
 8000bb0:	f85d eb04 	ldr.w	lr, [sp], #4
 8000bb4:	f04f 0101 	mov.w	r1, #1
 8000bb8:	f04f 0202 	mov.w	r2, #2
 8000bbc:	b500      	push	{lr}
 8000bbe:	f7ff fe11 	bl	80007e4 <gpio_speed>
 8000bc2:	f85d eb04 	ldr.w	lr, [sp], #4
 8000bc6:	6a01      	ldr	r1, [r0, #32]
 8000bc8:	f041 0120 	orr.w	r1, r1, #32
 8000bcc:	6201      	str	r1, [r0, #32]
 8000bce:	f44f 5260 	mov.w	r2, #14336	; 0x3800
 8000bd2:	f2c4 0202 	movt	r2, #16386	; 0x4002
 8000bd6:	f04f 0002 	mov.w	r0, #2
 8000bda:	6c11      	ldr	r1, [r2, #64]	; 0x40
 8000bdc:	ea41 0100 	orr.w	r1, r1, r0
 8000be0:	6411      	str	r1, [r2, #64]	; 0x40
 8000be2:	f44f 6280 	mov.w	r2, #1024	; 0x400
 8000be6:	f2c4 0200 	movt	r2, #16384	; 0x4000
 8000bea:	f241 70d4 	movw	r0, #6100	; 0x17d4
 8000bee:	62d0      	str	r0, [r2, #44]	; 0x2c
 8000bf0:	f240 503f 	movw	r0, #1343	; 0x53f
 8000bf4:	63d0      	str	r0, [r2, #60]	; 0x3c
 8000bf6:	f44f 70e1 	mov.w	r0, #450	; 0x1c2
 8000bfa:	6410      	str	r0, [r2, #64]	; 0x40
 8000bfc:	f247 0070 	movw	r0, #28784	; 0x7070
 8000c00:	61d0      	str	r0, [r2, #28]
 8000c02:	f44f 5088 	mov.w	r0, #4352	; 0x1100
 8000c06:	6210      	str	r0, [r2, #32]
 8000c08:	f04f 0001 	mov.w	r0, #1
 8000c0c:	60d0      	str	r0, [r2, #12]
 8000c0e:	6010      	str	r0, [r2, #0]
 8000c10:	f04f 001d 	mov.w	r0, #29
 8000c14:	f04f 0102 	mov.w	r1, #2
 8000c18:	b500      	push	{lr}
 8000c1a:	f7ff fd5f 	bl	80006dc <nvic_set_priority>
 8000c1e:	f85d eb04 	ldr.w	lr, [sp], #4
 8000c22:	f04f 001d 	mov.w	r0, #29
 8000c26:	b500      	push	{lr}
 8000c28:	f7ff fd71 	bl	800070e <nvic_enable_irq>
 8000c2c:	f85d eb04 	ldr.w	lr, [sp], #4
 8000c30:	4770      	bx	lr
 8000c32:	bf00      	nop

08000c34 <tv_out_isr>:
 8000c34:	f44f 6080 	mov.w	r0, #1024	; 0x400
 8000c38:	f2c4 0000 	movt	r0, #16384	; 0x4000
 8000c3c:	ea81 0101 	eor.w	r1, r1, r1
 8000c40:	6101      	str	r1, [r0, #16]
 8000c42:	6e61      	ldr	r1, [r4, #100]	; 0x64
 8000c44:	f101 0101 	add.w	r1, r1, #1
 8000c48:	6661      	str	r1, [r4, #100]	; 0x64
 8000c4a:	6ea2      	ldr	r2, [r4, #104]	; 0x68
 8000c4c:	2a00      	cmp	r2, #0
 8000c4e:	d007      	beq.n	8000c60 <state_vsync>
 8000c50:	2a01      	cmp	r2, #1
 8000c52:	d02f      	beq.n	8000cb4 <state_pre_video>
 8000c54:	2a02      	cmp	r2, #2
 8000c56:	d036      	beq.n	8000cc6 <state_video_out>
 8000c58:	2a03      	cmp	r2, #3
 8000c5a:	d063      	beq.n	8000d24 <state_post_video>
 8000c5c:	f7ff bad0 	b.w	8000200 <default_handler>

08000c60 <state_vsync>:
 8000c60:	2901      	cmp	r1, #1
 8000c62:	d106      	bne.n	8000c72 <state_vsync+0x12>
 8000c64:	f04f 01db 	mov.w	r1, #219	; 0xdb
 8000c68:	6401      	str	r1, [r0, #64]	; 0x40
 8000c6a:	f640 31e9 	movw	r1, #3049	; 0xbe9
 8000c6e:	62c1      	str	r1, [r0, #44]	; 0x2c
 8000c70:	e06b      	b.n	8000d4a <tv_isr_exit>
 8000c72:	2907      	cmp	r1, #7
 8000c74:	d103      	bne.n	8000c7e <state_vsync+0x1e>
 8000c76:	f640 2128 	movw	r1, #2600	; 0xa28
 8000c7a:	6401      	str	r1, [r0, #64]	; 0x40
 8000c7c:	e065      	b.n	8000d4a <tv_isr_exit>
 8000c7e:	290d      	cmp	r1, #13
 8000c80:	d103      	bne.n	8000c8a <state_vsync+0x2a>
 8000c82:	f04f 01db 	mov.w	r1, #219	; 0xdb
 8000c86:	6401      	str	r1, [r0, #64]	; 0x40
 8000c88:	e05f      	b.n	8000d4a <tv_isr_exit>
 8000c8a:	2912      	cmp	r1, #18
 8000c8c:	d103      	bne.n	8000c96 <state_vsync+0x36>
 8000c8e:	6ee1      	ldr	r1, [r4, #108]	; 0x6c
 8000c90:	2900      	cmp	r1, #0
 8000c92:	d05a      	beq.n	8000d4a <tv_isr_exit>
 8000c94:	e001      	b.n	8000c9a <sync_end>
 8000c96:	2913      	cmp	r1, #19
 8000c98:	d157      	bne.n	8000d4a <tv_isr_exit>

08000c9a <sync_end>:
 8000c9a:	f04f 0109 	mov.w	r1, #9
 8000c9e:	6661      	str	r1, [r4, #100]	; 0x64
 8000ca0:	f44f 71e1 	mov.w	r1, #450	; 0x1c2
 8000ca4:	6401      	str	r1, [r0, #64]	; 0x40
 8000ca6:	f241 71d4 	movw	r1, #6100	; 0x17d4
 8000caa:	62c1      	str	r1, [r0, #44]	; 0x2c
 8000cac:	f04f 0101 	mov.w	r1, #1
 8000cb0:	66a1      	str	r1, [r4, #104]	; 0x68
 8000cb2:	e04a      	b.n	8000d4a <tv_isr_exit>

08000cb4 <state_pre_video>:
 8000cb4:	2928      	cmp	r1, #40	; 0x28
 8000cb6:	d448      	bmi.n	8000d4a <tv_isr_exit>
 8000cb8:	f04f 0102 	mov.w	r1, #2
 8000cbc:	66a1      	str	r1, [r4, #104]	; 0x68
 8000cbe:	f04f 0108 	mov.w	r1, #8
 8000cc2:	60c1      	str	r1, [r0, #12]
 8000cc4:	e041      	b.n	8000d4a <tv_isr_exit>

08000cc6 <state_video_out>:
 8000cc6:	29f0      	cmp	r1, #240	; 0xf0
 8000cc8:	d906      	bls.n	8000cd8 <state_video_out+0x12>
 8000cca:	f04f 0103 	mov.w	r1, #3
 8000cce:	66a1      	str	r1, [r4, #104]	; 0x68
 8000cd0:	f04f 0101 	mov.w	r1, #1
 8000cd4:	60c1      	str	r1, [r0, #12]
 8000cd6:	e038      	b.n	8000d4a <tv_isr_exit>
 8000cd8:	6f20      	ldr	r0, [r4, #112]	; 0x70
 8000cda:	f1a1 0129 	sub.w	r1, r1, #41	; 0x29
 8000cde:	f04f 03a0 	mov.w	r3, #160	; 0xa0
 8000ce2:	fb03 f101 	mul.w	r1, r3, r1
 8000ce6:	4408      	add	r0, r1
 8000ce8:	f44f 6180 	mov.w	r1, #1024	; 0x400
 8000cec:	f2c4 0102 	movt	r1, #16386	; 0x4002
 8000cf0:	f810 2b01 	ldrb.w	r2, [r0], #1
 8000cf4:	ea4f 2202 	mov.w	r2, r2, lsl #8
 8000cf8:	828a      	strh	r2, [r1, #20]
 8000cfa:	f3af 8000 	nop.w
 8000cfe:	f3af 8000 	nop.w
 8000d02:	f3af 8000 	nop.w
 8000d06:	f3af 8000 	nop.w
 8000d0a:	ea4f 1202 	mov.w	r2, r2, lsl #4
 8000d0e:	828a      	strh	r2, [r1, #20]
 8000d10:	f3af 8000 	nop.w
 8000d14:	f3af 8000 	nop.w
 8000d18:	3b01      	subs	r3, #1
 8000d1a:	d1e9      	bne.n	8000cf0 <state_video_out+0x2a>
 8000d1c:	f44f 2270 	mov.w	r2, #983040	; 0xf0000
 8000d20:	618a      	str	r2, [r1, #24]
 8000d22:	e012      	b.n	8000d4a <tv_isr_exit>

08000d24 <state_post_video>:
 8000d24:	f44f 7283 	mov.w	r2, #262	; 0x106
 8000d28:	4291      	cmp	r1, r2
 8000d2a:	d40e      	bmi.n	8000d4a <tv_isr_exit>
 8000d2c:	6ee1      	ldr	r1, [r4, #108]	; 0x6c
 8000d2e:	b911      	cbnz	r1, 8000d36 <frame_end>
 8000d30:	f640 31e9 	movw	r1, #3049	; 0xbe9
 8000d34:	62c1      	str	r1, [r0, #44]	; 0x2c

08000d36 <frame_end>:
 8000d36:	f04f 0100 	mov.w	r1, #0
 8000d3a:	66a1      	str	r1, [r4, #104]	; 0x68
 8000d3c:	ea81 0101 	eor.w	r1, r1, r1
 8000d40:	6661      	str	r1, [r4, #100]	; 0x64
 8000d42:	6ee1      	ldr	r1, [r4, #108]	; 0x6c
 8000d44:	ea6f 0101 	mvn.w	r1, r1
 8000d48:	66e1      	str	r1, [r4, #108]	; 0x6c

08000d4a <tv_isr_exit>:
 8000d4a:	4770      	bx	lr
 8000d4c:	08000b40 	stmdaeq	r0, {r6, r8, r9, fp}

08000d50 <_BACKCOLOR>:
 8000d50:	4341420a 	movtmi	r4, #4618	; 0x120a
 8000d54:	4f432d4b 	svcmi	0x00432d4b
 8000d58:	00524f4c 	subseq	r4, r2, ip, asr #30

08000d5c <BACKCOLOR>:
 8000d5c:	f847 6d04 	str.w	r6, [r7, #-4]!
 8000d60:	f104 0698 	add.w	r6, r4, #152	; 0x98
 8000d64:	f001 bd3c 	b.w	80027e0 <INEXT>
 8000d68:	08000d50 	stmdaeq	r0, {r4, r6, r8, sl, fp}

08000d6c <_PENCOLOR>:
 8000d6c:	4e455009 	cdpmi	0, 4, cr5, cr5, cr9, {0}
 8000d70:	4c4f432d 	mcrrmi	3, 2, r4, pc, cr13
 8000d74:	bf00524f 	svclt	0x0000524f

08000d78 <PENCOLOR>:
 8000d78:	f847 6d04 	str.w	r6, [r7, #-4]!
 8000d7c:	f104 069c 	add.w	r6, r4, #156	; 0x9c
 8000d80:	f001 bd2e 	b.w	80027e0 <INEXT>
 8000d84:	08000d6c 	stmdaeq	r0, {r2, r3, r5, r6, r8, sl, fp}

08000d88 <_CURSOR_COL>:
 8000d88:	4c4f4306 	mcrrmi	3, 0, r4, pc, cr6
 8000d8c:	004e4d55 	subeq	r4, lr, r5, asr sp

08000d90 <CURSOR_COL>:
 8000d90:	f847 6d04 	str.w	r6, [r7, #-4]!
 8000d94:	f104 0694 	add.w	r6, r4, #148	; 0x94
 8000d98:	f001 bd22 	b.w	80027e0 <INEXT>
 8000d9c:	08000d88 	stmdaeq	r0, {r3, r7, r8, sl, fp}

08000da0 <_CURSOR_ROW>:
 8000da0:	574f5203 	strbpl	r5, [pc, -r3, lsl #4]

08000da4 <CURSOR_ROW>:
 8000da4:	f847 6d04 	str.w	r6, [r7, #-4]!
 8000da8:	f104 0690 	add.w	r6, r4, #144	; 0x90
 8000dac:	f001 bd18 	b.w	80027e0 <INEXT>
 8000db0:	08000da0 	stmdaeq	r0, {r5, r7, r8, sl, fp}

08000db4 <_ROWY>:
 8000db4:	574f5205 	strbpl	r5, [pc, -r5, lsl #4]
 8000db8:	bf00593e 	svclt	0x0000593e

08000dbc <ROWY>:
 8000dbc:	f04f 0008 	mov.w	r0, #8
 8000dc0:	fb00 f606 	mul.w	r6, r0, r6
 8000dc4:	f001 bd0c 	b.w	80027e0 <INEXT>
 8000dc8:	08000db4 	stmdaeq	r0, {r2, r4, r5, r7, r8, sl, fp}

08000dcc <_COLX>:
 8000dcc:	4c4f4305 	mcrrmi	3, 0, r4, pc, cr5
 8000dd0:	bf00583e 	svclt	0x0000583e

08000dd4 <COLX>:
 8000dd4:	f04f 0006 	mov.w	r0, #6
 8000dd8:	fb00 f606 	mul.w	r6, r0, r6
 8000ddc:	f001 bd00 	b.w	80027e0 <INEXT>
 8000de0:	08000dcc 	stmdaeq	r0, {r2, r3, r6, r7, r8, sl, fp}

08000de4 <_FONT>:
 8000de4:	4e4f4604 	cdpmi	6, 4, cr4, cr15, cr4, {0}
 8000de8:	bf000054 	svclt	0x00000054

08000dec <FONT>:
 8000dec:	f847 6d04 	str.w	r6, [r7, #-4]!
 8000df0:	f8df 658c 	ldr.w	r6, [pc, #1420]	; 8001380 <INPUT+0x30>
 8000df4:	f001 bcf4 	b.w	80027e0 <INEXT>
 8000df8:	08000de4 	stmdaeq	r0, {r2, r5, r6, r7, r8, sl, fp}

08000dfc <_VIDBUFF>:
 8000dfc:	44495607 	strbmi	r5, [r9], #-1543	; 0xfffff9f9
 8000e00:	46465542 	strbmi	r5, [r6], -r2, asr #10

08000e04 <VIDBUFF>:
 8000e04:	f847 6d04 	str.w	r6, [r7, #-4]!
 8000e08:	6f26      	ldr	r6, [r4, #112]	; 0x70
 8000e0a:	f001 bce9 	b.w	80027e0 <INEXT>
 8000e0e:	08000dfc 	stmdaeq	r0, {r2, r3, r4, r5, r6, r7, r8, sl, fp}

08000e12 <_PLOT>:
 8000e12:	4f4c5004 	svcmi	0x004c5004
 8000e16:	 	svcgt	0x00030054

08000e18 <PLOT>:
 8000e18:	cf03      	ldmia	r7!, {r0, r1}
 8000e1a:	f04f 02a0 	mov.w	r2, #160	; 0xa0
 8000e1e:	fb02 f000 	mul.w	r0, r2, r0
 8000e22:	ea4f 0251 	mov.w	r2, r1, lsr #1
 8000e26:	4410      	add	r0, r2
 8000e28:	6f23      	ldr	r3, [r4, #112]	; 0x70
 8000e2a:	4403      	add	r3, r0
 8000e2c:	781d      	ldrb	r5, [r3, #0]
 8000e2e:	f04f 020f 	mov.w	r2, #15
 8000e32:	f011 0f01 	tst.w	r1, #1
 8000e36:	d001      	beq.n	8000e3c <PLOT+0x24>
 8000e38:	ea4f 1202 	mov.w	r2, r2, lsl #4
 8000e3c:	f8df 0544 	ldr.w	r0, [pc, #1348]	; 8001384 <INPUT+0x34>
 8000e40:	e8d0 f006 	tbb	[r0, r6]

08000e44 <op_back>:
 8000e44:	ea05 0502 	and.w	r5, r5, r2
 8000e48:	f894 0098 	ldrb.w	r0, [r4, #152]	; 0x98
 8000e4c:	f011 0f01 	tst.w	r1, #1
 8000e50:	d101      	bne.n	8000e56 <op_back+0x12>
 8000e52:	ea4f 1000 	mov.w	r0, r0, lsl #4
 8000e56:	ea45 0500 	orr.w	r5, r5, r0
 8000e5a:	701d      	strb	r5, [r3, #0]
 8000e5c:	e01a      	b.n	8000e94 <op_xor+0x14>

08000e5e <op_pen>:
 8000e5e:	ea05 0502 	and.w	r5, r5, r2
 8000e62:	f894 009c 	ldrb.w	r0, [r4, #156]	; 0x9c
 8000e66:	f011 0f01 	tst.w	r1, #1
 8000e6a:	d101      	bne.n	8000e70 <op_pen+0x12>
 8000e6c:	ea4f 1000 	mov.w	r0, r0, lsl #4
 8000e70:	ea45 0500 	orr.w	r5, r5, r0
 8000e74:	701d      	strb	r5, [r3, #0]
 8000e76:	e00d      	b.n	8000e94 <op_xor+0x14>

08000e78 <op_invert>:
 8000e78:	ea85 0502 	eor.w	r5, r5, r2
 8000e7c:	701d      	strb	r5, [r3, #0]
 8000e7e:	e009      	b.n	8000e94 <op_xor+0x14>

08000e80 <op_xor>:
 8000e80:	f8d4 009c 	ldr.w	r0, [r4, #156]	; 0x9c
 8000e84:	f011 0f01 	tst.w	r1, #1
 8000e88:	d101      	bne.n	8000e8e <op_xor+0xe>
 8000e8a:	ea4f 1000 	mov.w	r0, r0, lsl #4
 8000e8e:	ea85 0500 	eor.w	r5, r5, r0
 8000e92:	701d      	strb	r5, [r3, #0]
 8000e94:	f857 6b04 	ldr.w	r6, [r7], #4
 8000e98:	f001 bca2 	b.w	80027e0 <INEXT>

08000e9c <plot_op>:
 8000e9c:	1e1a0d00 	cdpne	13, 1, cr0, cr10, cr0, {0}
 8000ea0:	08000e12 	stmdaeq	r0, {r1, r4, r9, sl, fp}

08000ea4 <_VSYNC>:
 8000ea4:	59535605 	ldmdbpl	r3, {r0, r2, r9, sl, ip, lr}^
 8000ea8:	bf00434e 	svclt	0x0000434e

08000eac <VSYNC>:
 8000eac:	6e60      	ldr	r0, [r4, #100]	; 0x64
 8000eae:	2800      	cmp	r0, #0
 8000eb0:	d1fc      	bne.n	8000eac <VSYNC>
 8000eb2:	f001 bc95 	b.w	80027e0 <INEXT>
 8000eb6:	08000ea4 	stmdaeq	r0, {r2, r5, r7, r9, sl, fp}

08000eba <_CLS>:
 8000eba:	534c4303 	movtpl	r4, #49923	; 0xc303
 8000ebe:	bf00      	nop

08000ec0 <CLS>:
 8000ec0:	ea80 0000 	eor.w	r0, r0, r0
 8000ec4:	f894 1098 	ldrb.w	r1, [r4, #152]	; 0x98
 8000ec8:	ea40 0001 	orr.w	r0, r0, r1
 8000ecc:	ea4f 1101 	mov.w	r1, r1, lsl #4
 8000ed0:	ea40 0001 	orr.w	r0, r0, r1
 8000ed4:	ea4f 2100 	mov.w	r1, r0, lsl #8
 8000ed8:	ea40 0001 	orr.w	r0, r0, r1
 8000edc:	ea4f 4100 	mov.w	r1, r0, lsl #16
 8000ee0:	ea40 0001 	orr.w	r0, r0, r1
 8000ee4:	f647 41fc 	movw	r1, #31996	; 0x7cfc
 8000ee8:	6f22      	ldr	r2, [r4, #112]	; 0x70
 8000eea:	5050      	str	r0, [r2, r1]
 8000eec:	3904      	subs	r1, #4
 8000eee:	d1fc      	bne.n	8000eea <CLS+0x2a>
 8000ef0:	6010      	str	r0, [r2, #0]
 8000ef2:	ea80 0000 	eor.w	r0, r0, r0
 8000ef6:	f8c4 0090 	str.w	r0, [r4, #144]	; 0x90
 8000efa:	f8c4 0094 	str.w	r0, [r4, #148]	; 0x94
 8000efe:	f001 bc6f 	b.w	80027e0 <INEXT>
 8000f02:	08000eba 	stmdaeq	r0, {r1, r3, r4, r5, r7, r9, sl, fp}

08000f06 <_CLRLINE>:
 8000f06:	524c4307 	subpl	r4, ip, #469762048	; 0x1c000000
 8000f0a:	454e494c 	strbmi	r4, [lr, #-2380]	; 0xfffff6b4
 8000f0e:	bf00      	nop

08000f10 <CLRLINE>:
 8000f10:	4750      	bx	sl
 8000f12:	bf00      	nop
 8000f14:	080029a7 	stmdaeq	r0, {r0, r1, r2, r5, r7, r8, fp, sp}
 8000f18:	00000500 	andeq	r0, r0, r0, lsl #10
 8000f1c:	08002b21 	stmdaeq	r0, {r0, r5, r8, r9, fp, sp}
 8000f20:	08002a9d 	stmdaeq	r0, {r0, r2, r3, r4, r7, r9, fp, sp}
 8000f24:	08002c05 	stmdaeq	r0, {r0, r2, sl, fp, sp}
 8000f28:	08000e05 	stmdaeq	r0, {r0, r2, r9, sl, fp}
 8000f2c:	08002be5 	stmdaeq	r0, {r0, r2, r5, r6, r7, r8, r9, fp, sp}
 8000f30:	08002a59 	stmdaeq	r0, {r0, r3, r4, r6, r9, fp, sp}
 8000f34:	080029a7 	stmdaeq	r0, {r0, r1, r2, r5, r7, r8, fp, sp}
 8000f38:	00000000 	andeq	r0, r0, r0
 8000f3c:	08003579 	stmdaeq	r0, {r0, r3, r4, r5, r6, r8, sl, ip, sp}
 8000f40:	080027e7 	stmdaeq	r0, {r0, r1, r2, r5, r6, r7, r8, r9, sl, sp}
 8000f44:	08000f06 	stmdaeq	r0, {r1, r2, r8, r9, sl, fp}

08000f48 <_SCROLLUP>:
 8000f48:	52435308 	subpl	r5, r3, #8, 6	; 0x20000000
 8000f4c:	554c4c4f 	strbpl	r4, [ip, #-3151]	; 0xfffff3b1
 8000f50:	bf000050 	svclt	0x00000050

08000f54 <SCROLLUP>:
 8000f54:	4750      	bx	sl
 8000f56:	bf00      	nop
 8000f58:	08000e05 	stmdaeq	r0, {r0, r2, r9, sl, fp}
 8000f5c:	08002b21 	stmdaeq	r0, {r0, r5, r8, r9, fp, sp}
 8000f60:	080029a7 	stmdaeq	r0, {r0, r1, r2, r5, r7, r8, fp, sp}
 8000f64:	00000500 	andeq	r0, r0, r0, lsl #10
 8000f68:	08002b21 	stmdaeq	r0, {r0, r5, r8, r9, fp, sp}
 8000f6c:	08002a9d 	stmdaeq	r0, {r0, r2, r3, r4, r7, r9, fp, sp}
 8000f70:	08002be5 	stmdaeq	r0, {r0, r2, r5, r6, r7, r8, r9, fp, sp}
 8000f74:	08002b31 	stmdaeq	r0, {r0, r4, r5, r8, r9, fp, sp}
 8000f78:	080029a7 	stmdaeq	r0, {r0, r1, r2, r5, r7, r8, fp, sp}
 8000f7c:	00007d00 	andeq	r7, r0, r0, lsl #26
 8000f80:	08002a59 	stmdaeq	r0, {r0, r3, r4, r6, r9, fp, sp}
 8000f84:	08002bf5 	stmdaeq	r0, {r0, r2, r4, r5, r6, r7, r8, r9, fp, sp}
 8000f88:	08003531 	stmdaeq	r0, {r0, r4, r5, r8, sl, ip, sp}
 8000f8c:	080029a7 	stmdaeq	r0, {r0, r1, r2, r5, r7, r8, fp, sp}
 8000f90:	00000018 	andeq	r0, r0, r8, lsl r0
 8000f94:	08000f11 	stmdaeq	r0, {r0, r4, r8, r9, sl, fp}
 8000f98:	080027e7 	stmdaeq	r0, {r0, r1, r2, r5, r6, r7, r8, r9, sl, sp}
 8000f9c:	08000f48 	stmdaeq	r0, {r3, r6, r8, r9, sl, fp}

08000fa0 <_SCROLLDOWN>:
 8000fa0:	5243530a 	subpl	r5, r3, #671088640	; 0x28000000
 8000fa4:	444c4c4f 	strbmi	r4, [ip], #-3151	; 0xfffff3b1
 8000fa8:	004e574f 	subeq	r5, lr, pc, asr #14

08000fac <SCROLLDOWN>:
 8000fac:	4750      	bx	sl
 8000fae:	bf00      	nop
 8000fb0:	08000e05 	stmdaeq	r0, {r0, r2, r9, sl, fp}
 8000fb4:	08002b21 	stmdaeq	r0, {r0, r5, r8, r9, fp, sp}
 8000fb8:	080029a7 	stmdaeq	r0, {r0, r1, r2, r5, r7, r8, fp, sp}
 8000fbc:	00000500 	andeq	r0, r0, r0, lsl #10
 8000fc0:	08002be5 	stmdaeq	r0, {r0, r2, r5, r6, r7, r8, r9, fp, sp}
 8000fc4:	080029a7 	stmdaeq	r0, {r0, r1, r2, r5, r7, r8, fp, sp}
 8000fc8:	00007d00 	andeq	r7, r0, r0, lsl #26
 8000fcc:	080029a7 	stmdaeq	r0, {r0, r1, r2, r5, r7, r8, fp, sp}
 8000fd0:	00000500 	andeq	r0, r0, r0, lsl #10
 8000fd4:	08002bf5 	stmdaeq	r0, {r0, r2, r4, r5, r6, r7, r8, r9, fp, sp}
 8000fd8:	08003531 	stmdaeq	r0, {r0, r4, r5, r8, sl, ip, sp}
 8000fdc:	080029a7 	stmdaeq	r0, {r0, r1, r2, r5, r7, r8, fp, sp}
 8000fe0:	00000000 	andeq	r0, r0, r0
 8000fe4:	08000f11 	stmdaeq	r0, {r0, r4, r8, r9, sl, fp}
 8000fe8:	080027e7 	stmdaeq	r0, {r0, r1, r2, r5, r6, r7, r8, r9, sl, sp}
 8000fec:	08000fa0 	stmdaeq	r0, {r5, r7, r8, r9, sl, fp}

08000ff0 <_TV_CRLF>:
 8000ff0:	2d565407 	cfldrdcs	mvd5, [r6, #-28]	; 0xffffffe4
 8000ff4:	464c5243 	strbmi	r5, [ip], -r3, asr #4

08000ff8 <TV_CRLF>:
 8000ff8:	4de3      	ldr	r5, [pc, #908]	; (8001388 <INPUT+0x38>)
 8000ffa:	f045 0501 	orr.w	r5, r5, #1
 8000ffe:	ea80 0000 	eor.w	r0, r0, r0
 8001002:	f8c4 0094 	str.w	r0, [r4, #148]	; 0x94
 8001006:	f8d4 0090 	ldr.w	r0, [r4, #144]	; 0x90
 800100a:	2818      	cmp	r0, #24
 800100c:	d0a2      	beq.n	8000f54 <SCROLLUP>
 800100e:	f100 0001 	add.w	r0, r0, #1
 8001012:	f8c4 0090 	str.w	r0, [r4, #144]	; 0x90
 8001016:	f001 bbe3 	b.w	80027e0 <INEXT>
 800101a:	08000ff0 	stmdaeq	r0, {r4, r5, r6, r7, r8, r9, sl, fp}

0800101e <_RIGHT>:
 800101e:	47495205 	strbmi	r5, [r9, -r5, lsl #4]
 8001022:	 			; <UNDEFINED> instruction: 0xf8d45448

08001024 <RIGHT>:
 8001024:	f8d4 0094 	ldr.w	r0, [r4, #148]	; 0x94
 8001028:	f100 0001 	add.w	r0, r0, #1
 800102c:	2835      	cmp	r0, #53	; 0x35
 800102e:	d5e3      	bpl.n	8000ff8 <TV_CRLF>
 8001030:	f8c4 0094 	str.w	r0, [r4, #148]	; 0x94
 8001034:	f001 bbd4 	b.w	80027e0 <INEXT>
 8001038:	0800101e 	stmdaeq	r0, {r1, r2, r3, r4, ip}

0800103c <_LEFT>:
 800103c:	46454c04 	strbmi	r4, [r5], -r4, lsl #24
 8001040:	bf000054 	svclt	0x00000054

08001044 <LEFT>:
 8001044:	f8d4 0094 	ldr.w	r0, [r4, #148]	; 0x94
 8001048:	b128      	cbz	r0, 8001056 <LEFT+0x12>
 800104a:	f1a0 0001 	sub.w	r0, r0, #1
 800104e:	f8c4 0094 	str.w	r0, [r4, #148]	; 0x94
 8001052:	f001 bbc5 	b.w	80027e0 <INEXT>
 8001056:	f8d4 0090 	ldr.w	r0, [r4, #144]	; 0x90
 800105a:	b138      	cbz	r0, 800106c <LEFT+0x28>
 800105c:	f1a0 0001 	sub.w	r0, r0, #1
 8001060:	f8c4 0090 	str.w	r0, [r4, #144]	; 0x90
 8001064:	f04f 0034 	mov.w	r0, #52	; 0x34
 8001068:	f8c4 0094 	str.w	r0, [r4, #148]	; 0x94
 800106c:	f001 bbb8 	b.w	80027e0 <INEXT>

08001070 <FONT_PIXEL>:
 8001070:	f04f 0080 	mov.w	r0, #128	; 0x80
 8001074:	ea06 0600 	and.w	r6, r6, r0
 8001078:	ea4f 16d6 	mov.w	r6, r6, lsr #7
 800107c:	f001 bbb0 	b.w	80027e0 <INEXT>

08001080 <INCR_X>:
 8001080:	6838      	ldr	r0, [r7, #0]
 8001082:	f100 0001 	add.w	r0, r0, #1
 8001086:	6038      	str	r0, [r7, #0]
 8001088:	f001 bbaa 	b.w	80027e0 <INEXT>

0800108c <NEXT_PIXEL>:
 800108c:	ea4f 0646 	mov.w	r6, r6, lsl #1
 8001090:	f001 bba6 	b.w	80027e0 <INEXT>

08001094 <CHAR_ROW>:
 8001094:	4750      	bx	sl
 8001096:	bf00      	nop
 8001098:	080029a7 	stmdaeq	r0, {r0, r1, r2, r5, r7, r8, fp, sp}
 800109c:	00000005 	andeq	r0, r0, r5
 80010a0:	08002a9d 	stmdaeq	r0, {r0, r2, r3, r4, r7, r9, fp, sp}
 80010a4:	08002a9d 	stmdaeq	r0, {r0, r2, r3, r4, r7, r9, fp, sp}
 80010a8:	08002d59 	stmdaeq	r0, {r0, r3, r4, r6, r8, sl, fp, sp}
 80010ac:	08002a89 	stmdaeq	r0, {r0, r3, r7, r9, fp, sp}
 80010b0:	08001071 	stmdaeq	r0, {r0, r4, r5, r6, ip}
 80010b4:	08000e19 	stmdaeq	r0, {r0, r3, r4, r9, sl, fp}
 80010b8:	08001081 	stmdaeq	r0, {r0, r7, ip}
 80010bc:	08002a59 	stmdaeq	r0, {r0, r3, r4, r6, r9, fp, sp}
 80010c0:	0800108d 	stmdaeq	r0, {r0, r2, r3, r7, ip}
 80010c4:	080029c9 	stmdaeq	r0, {r0, r3, r6, r7, r8, fp, sp}
 80010c8:	080010a4 	stmdaeq	r0, {r2, r5, r7, ip}
 80010cc:	08002d45 	stmdaeq	r0, {r0, r2, r6, r8, sl, fp, sp}
 80010d0:	080027e7 	stmdaeq	r0, {r0, r1, r2, r5, r6, r7, r8, r9, sl, sp}

080010d4 <CHAR_FONT>:
 80010d4:	f1a6 0620 	sub.w	r6, r6, #32
 80010d8:	f04f 0008 	mov.w	r0, #8
 80010dc:	fb00 f606 	mul.w	r6, r0, r6
 80010e0:	48a7      	ldr	r0, [pc, #668]	; (8001380 <INPUT+0x30>)
 80010e2:	4406      	add	r6, r0
 80010e4:	f001 bb7c 	b.w	80027e0 <INEXT>
 80010e8:	0800103c 	stmdaeq	r0, {r2, r3, r4, r5, ip}

080010ec <_TV_EMIT>:
 80010ec:	2d565407 	cfldrdcs	mvd5, [r6, #-28]	; 0xffffffe4
 80010f0:	54494d45 	strbpl	r4, [r9], #-3397	; 0xfffff2bb

080010f4 <TV_EMIT>:
 80010f4:	4750      	bx	sl
 80010f6:	bf00      	nop
 80010f8:	08002b21 	stmdaeq	r0, {r0, r5, r8, r9, fp, sp}
 80010fc:	080029a7 	stmdaeq	r0, {r0, r1, r2, r5, r7, r8, fp, sp}
 8001100:	00000020 	andeq	r0, r0, r0, lsr #32
 8001104:	08002ea5 	stmdaeq	r0, {r0, r2, r5, r7, r9, sl, fp, sp}
 8001108:	080029e7 	stmdaeq	r0, {r0, r1, r2, r5, r6, r7, r8, fp, sp}
 800110c:	08001118 	stmdaeq	r0, {r3, r4, r8, ip}
 8001110:	080029fb 	stmdaeq	r0, {r0, r1, r3, r4, r5, r6, r7, r8, fp, sp}
 8001114:	0800117c 	stmdaeq	r0, {r2, r3, r4, r5, r6, r8, ip}
 8001118:	080010d5 	stmdaeq	r0, {r0, r2, r4, r6, r7, ip}
 800111c:	08000d91 	stmdaeq	r0, {r0, r4, r7, r8, sl, fp}
 8001120:	08002a2d 	stmdaeq	r0, {r0, r2, r3, r5, r9, fp, sp}
 8001124:	08000dd5 	stmdaeq	r0, {r0, r2, r4, r6, r7, r8, sl, fp}
 8001128:	08000da5 	stmdaeq	r0, {r0, r2, r5, r7, r8, sl, fp}
 800112c:	08002a2d 	stmdaeq	r0, {r0, r2, r3, r5, r9, fp, sp}
 8001130:	08000dbd 	stmdaeq	r0, {r0, r2, r3, r4, r5, r7, r8, sl, fp}
 8001134:	08002d09 	stmdaeq	r0, {r0, r3, r8, sl, fp, sp}
 8001138:	080029a7 	stmdaeq	r0, {r0, r1, r2, r5, r7, r8, fp, sp}
 800113c:	00000007 	andeq	r0, r0, r7
 8001140:	08002a9d 	stmdaeq	r0, {r0, r2, r3, r4, r7, r9, fp, sp}
 8001144:	08002a9d 	stmdaeq	r0, {r0, r2, r3, r4, r7, r9, fp, sp}
 8001148:	08002d59 	stmdaeq	r0, {r0, r3, r4, r6, r8, sl, fp, sp}
 800114c:	08002a89 	stmdaeq	r0, {r0, r3, r7, r9, fp, sp}
 8001150:	08002a4d 	stmdaeq	r0, {r0, r2, r3, r6, r9, fp, sp}
 8001154:	08001095 	stmdaeq	r0, {r0, r2, r4, r7, ip}
 8001158:	08002c41 	stmdaeq	r0, {r0, r6, sl, fp, sp}
 800115c:	08002a59 	stmdaeq	r0, {r0, r3, r4, r6, r9, fp, sp}
 8001160:	08002c41 	stmdaeq	r0, {r0, r6, sl, fp, sp}
 8001164:	080029c9 	stmdaeq	r0, {r0, r3, r6, r7, r8, fp, sp}
 8001168:	08001144 	stmdaeq	r0, {r2, r6, r8, ip}
 800116c:	08002d45 	stmdaeq	r0, {r0, r2, r6, r8, sl, fp, sp}
 8001170:	08001025 	stmdaeq	r0, {r0, r2, r5, ip}
 8001174:	08001265 	stmdaeq	r0, {r0, r2, r5, r6, r9, ip}
 8001178:	080027e7 	stmdaeq	r0, {r0, r1, r2, r5, r6, r7, r8, r9, sl, sp}

0800117c <CTRL_KEY>:
 800117c:	080012ed 	stmdaeq	r0, {r0, r2, r3, r5, r6, r7, r9, ip}
 8001180:	08002b21 	stmdaeq	r0, {r0, r5, r8, r9, fp, sp}
 8001184:	080029a7 	stmdaeq	r0, {r0, r1, r2, r5, r7, r8, fp, sp}
 8001188:	00000008 	andeq	r0, r0, r8
 800118c:	08002e6d 	stmdaeq	r0, {r0, r2, r3, r5, r6, r9, sl, fp, sp}
 8001190:	080029e7 	stmdaeq	r0, {r0, r1, r2, r5, r6, r7, r8, fp, sp}
 8001194:	080011a8 	stmdaeq	r0, {r3, r5, r7, r8, ip}
 8001198:	08001245 	stmdaeq	r0, {r0, r2, r6, r9, ip}
 800119c:	08002b11 	stmdaeq	r0, {r0, r4, r8, r9, fp, sp}
 80011a0:	080029fb 	stmdaeq	r0, {r0, r1, r3, r4, r5, r6, r7, r8, fp, sp}
 80011a4:	08001174 	stmdaeq	r0, {r2, r4, r5, r6, r8, ip}
 80011a8:	08002b21 	stmdaeq	r0, {r0, r5, r8, r9, fp, sp}
 80011ac:	080029a7 	stmdaeq	r0, {r0, r1, r2, r5, r7, r8, fp, sp}
 80011b0:	0000000d 	andeq	r0, r0, sp
 80011b4:	08002e6d 	stmdaeq	r0, {r0, r2, r3, r5, r6, r9, sl, fp, sp}
 80011b8:	080029e7 	stmdaeq	r0, {r0, r1, r2, r5, r6, r7, r8, fp, sp}
 80011bc:	080011cc 	stmdaeq	r0, {r2, r3, r6, r7, r8, ip}
 80011c0:	080011ed 	stmdaeq	r0, {r0, r2, r3, r5, r6, r7, r8, ip}
 80011c4:	080029fb 	stmdaeq	r0, {r0, r1, r3, r4, r5, r6, r7, r8, fp, sp}
 80011c8:	0800119c 	stmdaeq	r0, {r2, r3, r4, r7, r8, ip}
 80011cc:	080029a7 	stmdaeq	r0, {r0, r1, r2, r5, r7, r8, fp, sp}
 80011d0:	0000000a 	andeq	r0, r0, sl
 80011d4:	08002e6d 	stmdaeq	r0, {r0, r2, r3, r5, r6, r9, sl, fp, sp}
 80011d8:	080029e7 	stmdaeq	r0, {r0, r1, r2, r5, r6, r7, r8, fp, sp}
 80011dc:	08001174 	stmdaeq	r0, {r2, r4, r5, r6, r8, ip}
 80011e0:	08001205 	stmdaeq	r0, {r0, r2, r9, ip}
 80011e4:	080029fb 	stmdaeq	r0, {r0, r1, r3, r4, r5, r6, r7, r8, fp, sp}
 80011e8:	08001174 	stmdaeq	r0, {r2, r4, r5, r6, r8, ip}

080011ec <CAR_RET>:
 80011ec:	4750      	bx	sl
 80011ee:	bf00      	nop
 80011f0:	080029a7 	stmdaeq	r0, {r0, r1, r2, r5, r7, r8, fp, sp}
 80011f4:	00000000 	andeq	r0, r0, r0
 80011f8:	08000d91 	stmdaeq	r0, {r0, r4, r7, r8, sl, fp}
 80011fc:	08002a19 	stmdaeq	r0, {r0, r3, r4, r9, fp, sp}
 8001200:	080027e7 	stmdaeq	r0, {r0, r1, r2, r5, r6, r7, r8, r9, sl, sp}

08001204 <LN_FEED>:
 8001204:	4750      	bx	sl
 8001206:	bf00      	nop
 8001208:	08000da5 	stmdaeq	r0, {r0, r2, r5, r7, r8, sl, fp}
 800120c:	08002a2d 	stmdaeq	r0, {r0, r2, r3, r5, r9, fp, sp}
 8001210:	08002b21 	stmdaeq	r0, {r0, r5, r8, r9, fp, sp}
 8001214:	080029a7 	stmdaeq	r0, {r0, r1, r2, r5, r7, r8, fp, sp}
 8001218:	00000018 	andeq	r0, r0, r8, lsl r0
 800121c:	08002b8d 	stmdaeq	r0, {r0, r2, r3, r7, r8, r9, fp, sp}
 8001220:	080029e7 	stmdaeq	r0, {r0, r1, r2, r5, r6, r7, r8, fp, sp}
 8001224:	08001238 	stmdaeq	r0, {r3, r4, r5, r9, ip}
 8001228:	08002c41 	stmdaeq	r0, {r0, r6, sl, fp, sp}
 800122c:	08000da5 	stmdaeq	r0, {r0, r2, r5, r7, r8, sl, fp}
 8001230:	08002a19 	stmdaeq	r0, {r0, r3, r4, r9, fp, sp}
 8001234:	080027e7 	stmdaeq	r0, {r0, r1, r2, r5, r6, r7, r8, r9, sl, sp}
 8001238:	08002b11 	stmdaeq	r0, {r0, r4, r8, r9, fp, sp}
 800123c:	08000f55 	stmdaeq	r0, {r0, r2, r4, r6, r8, r9, sl, fp}
 8001240:	080027e7 	stmdaeq	r0, {r0, r1, r2, r5, r6, r7, r8, r9, sl, sp}

08001244 <BACK_SPACE>:
 8001244:	4750      	bx	sl
 8001246:	bf00      	nop
 8001248:	08001045 	stmdaeq	r0, {r0, r2, r6, ip}
 800124c:	08001265 	stmdaeq	r0, {r0, r2, r5, r6, r9, ip}
 8001250:	080027e7 	stmdaeq	r0, {r0, r1, r2, r5, r6, r7, r8, r9, sl, sp}
 8001254:	080010ec 	stmdaeq	r0, {r2, r3, r5, r6, r7, ip}

08001258 <_SHOW_CURSOR>:
 8001258:	4f48530b 	svcmi	0x0048530b
 800125c:	55432d57 	strbpl	r2, [r3, #-3415]	; 0xfffff2a9
 8001260:	524f5352 	subpl	r5, pc, #1207959553	; 0x48000001

08001264 <SHOW_CURSOR>:
 8001264:	4750      	bx	sl
 8001266:	bf00      	nop
 8001268:	080029a7 	stmdaeq	r0, {r0, r1, r2, r5, r7, r8, fp, sp}
 800126c:	000000ff 	strdeq	r0, [r0], -pc	; <UNPREDICTABLE>
 8001270:	08000da5 	stmdaeq	r0, {r0, r2, r5, r7, r8, sl, fp}
 8001274:	08002a2d 	stmdaeq	r0, {r0, r2, r3, r5, r9, fp, sp}
 8001278:	08002c41 	stmdaeq	r0, {r0, r6, sl, fp, sp}
 800127c:	08000dbd 	stmdaeq	r0, {r0, r2, r3, r4, r5, r7, r8, sl, fp}
 8001280:	080029a7 	stmdaeq	r0, {r0, r1, r2, r5, r7, r8, fp, sp}
 8001284:	000000a0 	andeq	r0, r0, r0, lsr #1
 8001288:	08002c05 	stmdaeq	r0, {r0, r2, sl, fp, sp}
 800128c:	080029a7 	stmdaeq	r0, {r0, r1, r2, r5, r7, r8, fp, sp}
 8001290:	000000a0 	andeq	r0, r0, r0, lsr #1
 8001294:	08002bf5 	stmdaeq	r0, {r0, r2, r4, r5, r6, r7, r8, r9, fp, sp}
 8001298:	08000d91 	stmdaeq	r0, {r0, r4, r7, r8, sl, fp}
 800129c:	08002a2d 	stmdaeq	r0, {r0, r2, r3, r5, r9, fp, sp}
 80012a0:	08000dd5 	stmdaeq	r0, {r0, r2, r4, r6, r7, r8, sl, fp}
 80012a4:	08002ce5 	stmdaeq	r0, {r0, r2, r5, r6, r7, sl, fp, sp}
 80012a8:	08002be5 	stmdaeq	r0, {r0, r2, r5, r6, r7, r8, r9, fp, sp}
 80012ac:	08000e05 	stmdaeq	r0, {r0, r2, r9, sl, fp}
 80012b0:	08002be5 	stmdaeq	r0, {r0, r2, r5, r6, r7, r8, r9, fp, sp}
 80012b4:	080029a7 	stmdaeq	r0, {r0, r1, r2, r5, r7, r8, fp, sp}
 80012b8:	00000002 	andeq	r0, r0, r2
 80012bc:	08002a9d 	stmdaeq	r0, {r0, r2, r3, r4, r7, r9, fp, sp}
 80012c0:	08002d59 	stmdaeq	r0, {r0, r3, r4, r6, r8, sl, fp, sp}
 80012c4:	08002a39 	stmdaeq	r0, {r0, r3, r4, r5, r9, fp, sp}
 80012c8:	08002c41 	stmdaeq	r0, {r0, r6, sl, fp, sp}
 80012cc:	080029c9 	stmdaeq	r0, {r0, r3, r6, r7, r8, fp, sp}
 80012d0:	080012c0 	stmdaeq	r0, {r6, r7, r9, ip}
 80012d4:	08002d31 	stmdaeq	r0, {r0, r4, r5, r8, sl, fp, sp}
 80012d8:	080027e7 	stmdaeq	r0, {r0, r1, r2, r5, r6, r7, r8, r9, sl, sp}
 80012dc:	08001258 	stmdaeq	r0, {r3, r4, r6, r9, ip}

080012e0 <_HIDE_CURSOR>:
 80012e0:	4449480b 	strbmi	r4, [r9], #-2059	; 0xfffff7f5
 80012e4:	55432d45 	strbpl	r2, [r3, #-3397]	; 0xfffff2bb
 80012e8:	524f5352 	subpl	r5, pc, #1207959553	; 0x48000001

080012ec <HIDE_CURSOR>:
 80012ec:	4750      	bx	sl
 80012ee:	bf00      	nop
 80012f0:	08000d5d 	stmdaeq	r0, {r0, r2, r3, r4, r6, r8, sl, fp}
 80012f4:	08002a2d 	stmdaeq	r0, {r0, r2, r3, r5, r9, fp, sp}
 80012f8:	08002b21 	stmdaeq	r0, {r0, r5, r8, r9, fp, sp}
 80012fc:	080029a7 	stmdaeq	r0, {r0, r1, r2, r5, r7, r8, fp, sp}
 8001300:	00000004 	andeq	r0, r0, r4
 8001304:	08002bd5 	stmdaeq	r0, {r0, r2, r4, r6, r7, r8, r9, fp, sp}
 8001308:	08002b79 	stmdaeq	r0, {r0, r3, r4, r5, r6, r8, r9, fp, sp}
 800130c:	080029fb 	stmdaeq	r0, {r0, r1, r3, r4, r5, r6, r7, r8, fp, sp}
 8001310:	08001270 	stmdaeq	r0, {r4, r5, r6, r9, ip}
 8001314:	080012e0 	stmdaeq	r0, {r5, r6, r7, r9, ip}

08001318 <_TV_AT>:
 8001318:	2d565405 	cfldrdcs	mvd5, [r6, #-20]	; 0xffffffec
 800131c:	bf005441 	svclt	0x00005441

08001320 <TV_AT>:
 8001320:	2e35      	cmp	r6, #53	; 0x35
 8001322:	d401      	bmi.n	8001328 <TV_AT+0x8>
 8001324:	f04f 0634 	mov.w	r6, #52	; 0x34
 8001328:	f8c4 6094 	str.w	r6, [r4, #148]	; 0x94
 800132c:	f857 6b04 	ldr.w	r6, [r7], #4
 8001330:	2e19      	cmp	r6, #25
 8001332:	d401      	bmi.n	8001338 <TV_AT+0x18>
 8001334:	f04f 0618 	mov.w	r6, #24
 8001338:	f8c4 6090 	str.w	r6, [r4, #144]	; 0x90
 800133c:	f857 6b04 	ldr.w	r6, [r7], #4
 8001340:	f001 ba4e 	b.w	80027e0 <INEXT>
 8001344:	08001318 	stmdaeq	r0, {r3, r4, r8, r9, ip}

08001348 <_INPUT>:
 8001348:	504e4905 	subpl	r4, lr, r5, lsl #18
 800134c:	bf005455 	svclt	0x00005455

08001350 <INPUT>:
 8001350:	4750      	bx	sl
 8001352:	bf00      	nop
 8001354:	080034a9 	stmdaeq	r0, {r0, r3, r5, r7, sl, ip, sp}
 8001358:	08002b21 	stmdaeq	r0, {r0, r5, r8, r9, fp, sp}
 800135c:	08002c41 	stmdaeq	r0, {r0, r6, sl, fp, sp}
 8001360:	080029a7 	stmdaeq	r0, {r0, r1, r2, r5, r7, r8, fp, sp}
 8001364:	00000035 	andeq	r0, r0, r5, lsr r0
 8001368:	0800420d 	stmdaeq	r0, {r0, r2, r3, r9, lr}
 800136c:	08002b31 	stmdaeq	r0, {r0, r4, r5, r8, r9, fp, sp}
 8001370:	08002b11 	stmdaeq	r0, {r0, r4, r8, r9, fp, sp}
 8001374:	08002b45 	stmdaeq	r0, {r0, r2, r6, r8, r9, fp, sp}
 8001378:	08002a39 	stmdaeq	r0, {r0, r3, r4, r5, r9, fp, sp}
 800137c:	080027e7 	stmdaeq	r0, {r0, r1, r2, r5, r6, r7, r8, r9, sl, sp}
 8001380:	08005308 	stmdaeq	r0, {r3, r8, r9, ip, lr}
 8001384:	08000e9c 	stmdaeq	r0, {r2, r3, r4, r7, r9, sl, fp}
 8001388:	08000f54 	stmdaeq	r0, {r2, r4, r6, r8, r9, sl, fp}

0800138c <sc_ascii>:
 800138c:	6232611c 	eorsvs	r6, r2, #28, 2
 8001390:	64236321 	strtvs	r6, [r3], #-801	; 0xfffffcdf
 8001394:	662b6524 	strtvs	r6, [fp], -r4, lsr #10
 8001398:	68336734 	ldmdavs	r3!, {r2, r4, r5, r8, r9, sl, sp, lr}
 800139c:	6a3b6943 	bvs	8edb8b0 <OPTKEY1+0xd48e75>
 80013a0:	6c4b6b42 	mcrrvs	11, 4, r6, fp, cr2
 80013a4:	6e316d3a 	mrcvs	13, 1, r6, cr1, cr10, {1}
 80013a8:	704d6f44 	subvc	r6, sp, r4, asr #30
 80013ac:	722d7115 	eorvc	r7, sp, #1073741829	; 0x40000005
 80013b0:	742c731b 	strtvc	r7, [ip], #-795	; 0xfffffce5
 80013b4:	762a753c 			; <UNDEFINED> instruction: 0x762a753c
 80013b8:	7822771d 	stmdavc	r2!, {r0, r2, r3, r4, r8, r9, sl, ip, sp, lr}
 80013bc:	7a1a7935 	bvc	869f898 <OPTKEY1+0x50ce5d>
 80013c0:	31163045 	tstcc	r6, r5, asr #32
 80013c4:	3326321e 			; <UNDEFINED> instruction: 0x3326321e
 80013c8:	352e3425 	strcc	r3, [lr, #-1061]!	; 0xfffffbdb
 80013cc:	373d3636 			; <UNDEFINED> instruction: 0x373d3636
 80013d0:	3946383e 	stmdbcc	r6, {r1, r2, r3, r4, r5, fp, ip, sp}^
 80013d4:	2d4e600e 	stclcs	0, cr6, [lr, #-56]	; 0xffffffc8
 80013d8:	5c5d3d55 	mrrcpl	13, 5, r3, sp, cr5
 80013dc:	5d5b5b54 	vldrpl	d21, [fp, #-336]	; 0xfffffeb0
 80013e0:	27523b4c 	ldrbcs	r3, [r2, -ip, asr #22]
 80013e4:	2e492c41 	cdpcs	12, 4, cr2, cr9, cr1, {2}
 80013e8:	2b792a7c 	blcs	9e4bde0 <OPTKEY1+0x1cb93a5>
 80013ec:	0d5a2029 	ldcleq	0, cr2, [sl, #-164]	; 0xffffff5c
 80013f0:	090d0866 	stmdbeq	sp, {r1, r2, r5, r6, fp}
 80013f4:	9e111b76 	vmovls.s16	r1, d1[1]
 80013f8:	9d149c12 	ldcls	12, cr9, [r4, #-72]	; 0xffffffb8
 80013fc:	9a77a47e 	bls	9dea5fc <OPTKEY1+0x1c57bc1>
 8001400:	80050058 	andhi	r0, r5, r8, asr r0
 8001404:	82048106 	andhi	r8, r4, #-2147483647	; 0x80000001
 8001408:	8403830c 	strhi	r8, [r3], #-780	; 0xfffffcf4
 800140c:	8683850b 	strhi	r8, [r3], fp, lsl #10
 8001410:	8801870a 	stmdahi	r1, {r1, r3, r8, r9, sl, pc}
 8001414:	8b788a09 	blhi	9e23c40 <OPTKEY1+0x1c91205>
 8001418:	30708c07 	rsbscc	r8, r0, r7, lsl #24
 800141c:	32723169 	rsbscc	r3, r2, #1073741850	; 0x4000001a
 8001420:	346b337a 	strbtcc	r3, [fp], #-890	; 0xfffffc86
 8001424:	36743573 			; <UNDEFINED> instruction: 0x36743573
 8001428:	3875376c 	ldmdacc	r5!, {r2, r3, r5, r6, r8, r9, sl, ip, sp}^
 800142c:	2a7c397d 	bcs	9f0fa28 <OPTKEY1+0x1d7cfed>
 8001430:	2b792f4a 	blcs	9e4d160 <OPTKEY1+0x1cba725>
 8001434:	2e712d7b 	mrccs	13, 3, r2, cr1, cr11, {3}
 8001438:	fafa0d5a 	blx	7e849a8 <FCLK+0x22f71a8>
 800143c:	0000aaaa 	andeq	sl, r0, sl, lsr #21

08001440 <shifted>:
 8001440:	42624161 	rsbmi	r4, r2, #1073741848	; 0x40000018
 8001444:	44644363 	strbtmi	r4, [r4], #-867	; 0xfffffc9d
 8001448:	46664565 	strbtmi	r4, [r6], -r5, ror #10
 800144c:	48684767 	stmdami	r8!, {r0, r1, r2, r5, r6, r8, r9, sl, lr}^
 8001450:	4a6a4969 	bmi	9a939fc <OPTKEY1+0x1900fc1>
 8001454:	4c6c4b6b 			; <UNDEFINED> instruction: 0x4c6c4b6b
 8001458:	4e6e4d6d 	cdpmi	13, 6, cr4, cr14, cr13, {3}
 800145c:	50704f6f 	rsbspl	r4, r0, pc, ror #30
 8001460:	52725171 	rsbspl	r5, r2, #1073741852	; 0x4000001c
 8001464:	54745373 	ldrbtpl	r5, [r4], #-883	; 0xfffffc8d
 8001468:	56765575 			; <UNDEFINED> instruction: 0x56765575
 800146c:	58785777 	ldmdapl	r8!, {r0, r1, r2, r4, r5, r6, r8, r9, sl, ip, lr}^
 8001470:	5a7a5979 	bpl	9e97a5c <OPTKEY1+0x1d05021>
 8001474:	40322131 	eorsmi	r2, r2, r1, lsr r1
 8001478:	24342333 	ldrtcs	r2, [r4], #-819	; 0xfffffccd
 800147c:	5e362535 	mrcpl	5, 1, r2, cr6, cr5, {1}
 8001480:	2a382637 	bcs	8e0ad64 <OPTKEY1+0xc78329>
 8001484:	29302839 	ldmdbcs	r0!, {r0, r3, r4, r5, fp, sp}
 8001488:	2b3d5f2d 	blcs	8f59144 <OPTKEY1+0xdc6709>
 800148c:	22277e60 	eorcs	r7, r7, #96, 28	; 0x600
 8001490:	3e2e3c2c 	cdpcc	12, 2, cr3, cr14, cr12, {1}
 8001494:	7c5c3f2f 	mrrcvc	15, 2, r3, ip, cr15
 8001498:	7b5b3a3b 	blvc	96cfd8c <OPTKEY1+0x153d351>
 800149c:	00007d5d 	andeq	r7, r0, sp, asr sp

080014a0 <altchar>:
 80014a0:	40325c31 	eorsmi	r5, r2, r1, lsr ip
 80014a4:	3f362f33 	svccc	0x00362f33
 80014a8:	7b397c37 	blvc	8e6058c <OPTKEY1+0xccdb51>
 80014ac:	00007d30 	andeq	r7, r0, r0, lsr sp

080014b0 <extended>:
 80014b0:	a01fa114 	andsge	sl, pc, r4, lsl r1	; <UNPREDICTABLE>
 80014b4:	a311a227 	tstge	r1, #1879048194	; 0x70000002
 80014b8:	8d75972f 	ldclhi	7, cr9, [r5, #-188]!	; 0xffffff44
 80014bc:	8f6b8e72 	svchi	0x006b8e72
 80014c0:	95709074 	ldrbls	r9, [r0, #-116]!	; 0xffffff8c
 80014c4:	937d916c 	cmnls	sp, #108, 2
 80014c8:	7f71947a 	svcvc	0x0071947a
 80014cc:	2f4a9269 	svccs	0x004a9269
 80014d0:	00120d5a 	andseq	r0, r2, sl, asr sp
 80014d4:	0000007c 	andeq	r0, r0, ip, ror r0

080014d8 <controls>:
 80014d8:	a01f0363 	andsge	r0, pc, r3, ror #6
 80014dc:	a227a114 	eorge	sl, r7, #20, 2
 80014e0:	972fa311 			; <UNDEFINED> instruction: 0x972fa311
 80014e4:	916c9570 	smcls	51536	; 0xc950
 80014e8:	7f71937d 	svcvc	0x0071937d
 80014ec:	947a9269 	ldrbtls	r9, [sl], #-617	; 0xfffffd97
 80014f0:	8f6b8d75 	svchi	0x006b8d75
 80014f4:	90748e72 	rsbsls	r8, r4, r2, ror lr
 80014f8:	0d5a2f4a 	ldcleq	15, cr2, [sl, #-296]	; 0xfffffed8
 80014fc:	9d149c12 	ldcls	12, cr9, [r4, #-72]	; 0xffffffb8
 8001500:	9f599e11 	svcls	0x00599e11
 8001504:	1b760d5a 	blne	9d84a74 <OPTKEY1+0x1bf2039>
 8001508:	9b589a77 	blls	9627eec <OPTKEY1+0x14954b1>
 800150c:	bf000000 	svclt	0x00000000

08001510 <kbd_isr>:
 8001510:	f44f 5270 	mov.w	r2, #15360	; 0x3c00
 8001514:	f2c4 0201 	movt	r2, #16385	; 0x4001
 8001518:	f44f 4000 	mov.w	r0, #32768	; 0x8000
 800151c:	6150      	str	r0, [r2, #20]
 800151e:	f44f 6300 	mov.w	r3, #2048	; 0x800
 8001522:	f2c4 0302 	movt	r3, #16386	; 0x4002
 8001526:	f8d4 0076 	ldr.w	r0, [r4, #118]	; 0x76
 800152a:	f010 0f02 	tst.w	r0, #2
 800152e:	f040 8084 	bne.w	800163a <send_bit>
 8001532:	8a18      	ldrh	r0, [r3, #16]
 8001534:	f894 1074 	ldrb.w	r1, [r4, #116]	; 0x74
 8001538:	f101 0201 	add.w	r2, r1, #1
 800153c:	f884 2074 	strb.w	r2, [r4, #116]	; 0x74
 8001540:	2900      	cmp	r1, #0
 8001542:	d015      	beq.n	8001570 <start_bit>
 8001544:	2909      	cmp	r1, #9
 8001546:	d025      	beq.n	8001594 <parity_bit>
 8001548:	290a      	cmp	r1, #10
 800154a:	d02d      	beq.n	80015a8 <stop_bit>
 800154c:	f894 2075 	ldrb.w	r2, [r4, #117]	; 0x75
 8001550:	ea4f 0252 	mov.w	r2, r2, lsr #1
 8001554:	f410 4f80 	tst.w	r0, #16384	; 0x4000
 8001558:	d007      	beq.n	800156a <kbd_isr+0x5a>
 800155a:	f042 0280 	orr.w	r2, r2, #128	; 0x80
 800155e:	f894 0077 	ldrb.w	r0, [r4, #119]	; 0x77
 8001562:	f100 0001 	add.w	r0, r0, #1
 8001566:	f884 0077 	strb.w	r0, [r4, #119]	; 0x77
 800156a:	f884 2075 	strb.w	r2, [r4, #117]	; 0x75
 800156e:	e063      	b.n	8001638 <store_code+0x3a>

08001570 <start_bit>:
 8001570:	f410 4f80 	tst.w	r0, #16384	; 0x4000
 8001574:	d160      	bne.n	8001638 <store_code+0x3a>
 8001576:	ea80 0000 	eor.w	r0, r0, r0
 800157a:	f884 0075 	strb.w	r0, [r4, #117]	; 0x75
 800157e:	f884 0077 	strb.w	r0, [r4, #119]	; 0x77
 8001582:	f894 0076 	ldrb.w	r0, [r4, #118]	; 0x76
 8001586:	f06f 0101 	mvn.w	r1, #1
 800158a:	ea00 0001 	and.w	r0, r0, r1
 800158e:	f884 0076 	strb.w	r0, [r4, #118]	; 0x76
 8001592:	e051      	b.n	8001638 <store_code+0x3a>

08001594 <parity_bit>:
 8001594:	f894 1077 	ldrb.w	r1, [r4, #119]	; 0x77
 8001598:	f410 4f80 	tst.w	r0, #16384	; 0x4000
 800159c:	d04c      	beq.n	8001638 <store_code+0x3a>
 800159e:	f101 0101 	add.w	r1, r1, #1
 80015a2:	f884 1077 	strb.w	r1, [r4, #119]	; 0x77
 80015a6:	e047      	b.n	8001638 <store_code+0x3a>

080015a8 <stop_bit>:
 80015a8:	f410 4f80 	tst.w	r0, #16384	; 0x4000
 80015ac:	d040      	beq.n	8001630 <store_code+0x32>
 80015ae:	f894 1077 	ldrb.w	r1, [r4, #119]	; 0x77
 80015b2:	f011 0f01 	tst.w	r1, #1
 80015b6:	d03b      	beq.n	8001630 <store_code+0x32>
 80015b8:	f894 0075 	ldrb.w	r0, [r4, #117]	; 0x75
 80015bc:	f894 1076 	ldrb.w	r1, [r4, #118]	; 0x76
 80015c0:	28e0      	cmp	r0, #224	; 0xe0
 80015c2:	d104      	bne.n	80015ce <stop_bit+0x26>
 80015c4:	f041 0140 	orr.w	r1, r1, #64	; 0x40
 80015c8:	f884 1076 	strb.w	r1, [r4, #118]	; 0x76
 80015cc:	e030      	b.n	8001630 <store_code+0x32>
 80015ce:	f011 0f80 	tst.w	r1, #128	; 0x80
 80015d2:	d014      	beq.n	80015fe <store_code>
 80015d4:	2858      	cmp	r0, #88	; 0x58
 80015d6:	d104      	bne.n	80015e2 <stop_bit+0x3a>
 80015d8:	f081 0104 	eor.w	r1, r1, #4
 80015dc:	f041 0101 	orr.w	r1, r1, #1
 80015e0:	e006      	b.n	80015f0 <stop_bit+0x48>
 80015e2:	b500      	push	{lr}
 80015e4:	f000 f873 	bl	80016ce <do_async_key>
 80015e8:	f85d eb04 	ldr.w	lr, [sp], #4
 80015ec:	f894 1076 	ldrb.w	r1, [r4, #118]	; 0x76
 80015f0:	f06f 02c0 	mvn.w	r2, #192	; 0xc0
 80015f4:	ea01 0102 	and.w	r1, r1, r2
 80015f8:	f884 1076 	strb.w	r1, [r4, #118]	; 0x76
 80015fc:	e018      	b.n	8001630 <store_code+0x32>

080015fe <store_code>:
 80015fe:	28f0      	cmp	r0, #240	; 0xf0
 8001600:	d104      	bne.n	800160c <store_code+0xe>
 8001602:	f041 0180 	orr.w	r1, r1, #128	; 0x80
 8001606:	f884 1076 	strb.w	r1, [r4, #118]	; 0x76
 800160a:	e011      	b.n	8001630 <store_code+0x32>
 800160c:	4601      	mov	r1, r0
 800160e:	b500      	push	{lr}
 8001610:	f000 f85d 	bl	80016ce <do_async_key>
 8001614:	f85d eb04 	ldr.w	lr, [sp], #4
 8001618:	d10a      	bne.n	8001630 <store_code+0x32>
 800161a:	f8d4 008c 	ldr.w	r0, [r4, #140]	; 0x8c
 800161e:	f104 0278 	add.w	r2, r4, #120	; 0x78
 8001622:	5411      	strb	r1, [r2, r0]
 8001624:	f100 0001 	add.w	r0, r0, #1
 8001628:	f000 000f 	and.w	r0, r0, #15
 800162c:	f884 008c 	strb.w	r0, [r4, #140]	; 0x8c
 8001630:	ea80 0000 	eor.w	r0, r0, r0
 8001634:	f8a4 0074 	strh.w	r0, [r4, #116]	; 0x74
 8001638:	4770      	bx	lr

0800163a <send_bit>:
 800163a:	f894 1074 	ldrb.w	r1, [r4, #116]	; 0x74
 800163e:	f101 0001 	add.w	r0, r1, #1
 8001642:	f884 0074 	strb.w	r0, [r4, #116]	; 0x74
 8001646:	f894 0075 	ldrb.w	r0, [r4, #117]	; 0x75
 800164a:	f44f 4280 	mov.w	r2, #16384	; 0x4000
 800164e:	2908      	cmp	r1, #8
 8001650:	d015      	beq.n	800167e <send_parity>
 8001652:	2909      	cmp	r1, #9
 8001654:	d01c      	beq.n	8001690 <send_stop>
 8001656:	290a      	cmp	r1, #10
 8001658:	d01f      	beq.n	800169a <rx_ack_bit>
 800165a:	f010 0f01 	tst.w	r0, #1
 800165e:	ea4f 0050 	mov.w	r0, r0, lsr #1
 8001662:	f884 0075 	strb.w	r0, [r4, #117]	; 0x75
 8001666:	d102      	bne.n	800166e <send_bit+0x34>
 8001668:	ea4f 4202 	mov.w	r2, r2, lsl #16
 800166c:	e005      	b.n	800167a <send_bit+0x40>
 800166e:	f894 0077 	ldrb.w	r0, [r4, #119]	; 0x77
 8001672:	f100 0001 	add.w	r0, r0, #1
 8001676:	f884 0077 	strb.w	r0, [r4, #119]	; 0x77
 800167a:	619a      	str	r2, [r3, #24]
 800167c:	e01c      	b.n	80016b8 <rx_ack_bit+0x1e>

0800167e <send_parity>:
 800167e:	f894 0077 	ldrb.w	r0, [r4, #119]	; 0x77
 8001682:	f010 0f01 	tst.w	r0, #1
 8001686:	d001      	beq.n	800168c <send_parity+0xe>
 8001688:	ea4f 4202 	mov.w	r2, r2, lsl #16
 800168c:	619a      	str	r2, [r3, #24]
 800168e:	e013      	b.n	80016b8 <rx_ack_bit+0x1e>

08001690 <send_stop>:
 8001690:	6819      	ldr	r1, [r3, #0]
 8001692:	f021 5140 	bic.w	r1, r1, #805306368	; 0x30000000
 8001696:	6019      	str	r1, [r3, #0]
 8001698:	e00e      	b.n	80016b8 <rx_ack_bit+0x1e>

0800169a <rx_ack_bit>:
 800169a:	f894 0076 	ldrb.w	r0, [r4, #118]	; 0x76
 800169e:	f06f 0102 	mvn.w	r1, #2
 80016a2:	ea00 0001 	and.w	r0, r0, r1
 80016a6:	8a19      	ldrh	r1, [r3, #16]
 80016a8:	f411 4f80 	tst.w	r1, #16384	; 0x4000
 80016ac:	f884 0076 	strb.w	r0, [r4, #118]	; 0x76
 80016b0:	ea80 0000 	eor.w	r0, r0, r0
 80016b4:	f884 0074 	strb.w	r0, [r4, #116]	; 0x74
 80016b8:	4770      	bx	lr

080016ba <is_async_key>:
 80016ba:	b402      	push	{r1}
 80016bc:	f8df 1464 	ldr.w	r1, [pc, #1124]	; 8001b24 <WKEY+0x1c>
 80016c0:	b500      	push	{lr}
 80016c2:	f000 f89f 	bl	8001804 <table_scan>
 80016c6:	f85d eb04 	ldr.w	lr, [sp], #4
 80016ca:	bc02      	pop	{r1}
 80016cc:	4770      	bx	lr

080016ce <do_async_key>:
 80016ce:	b500      	push	{lr}
 80016d0:	f7ff fff3 	bl	80016ba <is_async_key>
 80016d4:	f85d eb04 	ldr.w	lr, [sp], #4
 80016d8:	28ff      	cmp	r0, #255	; 0xff
 80016da:	d101      	bne.n	80016e0 <set_async_key>
 80016dc:	2000      	movs	r0, #0
 80016de:	4770      	bx	lr

080016e0 <set_async_key>:
 80016e0:	b406      	push	{r1, r2}
 80016e2:	f894 2076 	ldrb.w	r2, [r4, #118]	; 0x76
 80016e6:	f8df 1440 	ldr.w	r1, [pc, #1088]	; 8001b28 <WKEY+0x20>
 80016ea:	e8d1 f000 	tbb	[r1, r0]

080016ee <shift_key>:
 80016ee:	f04f 0008 	mov.w	r0, #8
 80016f2:	e004      	b.n	80016fe <set_reset>

080016f4 <ctrl_key>:
 80016f4:	f04f 0010 	mov.w	r0, #16
 80016f8:	e001      	b.n	80016fe <set_reset>

080016fa <alt_key>:
 80016fa:	f04f 0020 	mov.w	r0, #32

080016fe <set_reset>:
 80016fe:	f012 0f80 	tst.w	r2, #128	; 0x80
 8001702:	d004      	beq.n	800170e <set_reset+0x10>
 8001704:	ea6f 0000 	mvn.w	r0, r0
 8001708:	ea02 0200 	and.w	r2, r2, r0
 800170c:	e001      	b.n	8001712 <set_reset+0x14>
 800170e:	ea42 0200 	orr.w	r2, r2, r0
 8001712:	f884 2076 	strb.w	r2, [r4, #118]	; 0x76
 8001716:	f05f 30ff 	movs.w	r0, #4294967295	; 0xffffffff
 800171a:	bc06      	pop	{r1, r2}
 800171c:	4770      	bx	lr

0800171e <async_keys>:
 800171e:	00590012 	subseq	r0, r9, r2, lsl r0
 8001722:	01140114 	tsteq	r4, r4, lsl r1
 8001726:	02110211 	andseq	r0, r1, #268435457	; 0x10000001
 800172a:	 	movweq	pc, #3840	; 0xf00	; <UNPREDICTABLE>

0800172c <async_jump>:
 800172c:	00060300 	andeq	r0, r6, r0, lsl #6

08001730 <kbd_init>:
 8001730:	f44f 6300 	mov.w	r3, #2048	; 0x800
 8001734:	f2c4 0302 	movt	r3, #16386	; 0x4002
 8001738:	4618      	mov	r0, r3
 800173a:	f04f 010f 	mov.w	r1, #15
 800173e:	f04f 0200 	mov.w	r2, #0
 8001742:	b500      	push	{lr}
 8001744:	f7ff f80f 	bl	8000766 <gpio_config>
 8001748:	f85d eb04 	ldr.w	lr, [sp], #4
 800174c:	4618      	mov	r0, r3
 800174e:	f04f 010e 	mov.w	r1, #14
 8001752:	f04f 0200 	mov.w	r2, #0
 8001756:	b500      	push	{lr}
 8001758:	f7ff f805 	bl	8000766 <gpio_config>
 800175c:	f85d eb04 	ldr.w	lr, [sp], #4
 8001760:	f44f 5260 	mov.w	r2, #14336	; 0x3800
 8001764:	f2c4 0201 	movt	r2, #16385	; 0x4001
 8001768:	f44f 5000 	mov.w	r0, #8192	; 0x2000
 800176c:	8290      	strh	r0, [r2, #20]
 800176e:	f44f 5270 	mov.w	r2, #15360	; 0x3c00
 8001772:	f2c4 0201 	movt	r2, #16385	; 0x4001
 8001776:	f44f 4000 	mov.w	r0, #32768	; 0x8000
 800177a:	6010      	str	r0, [r2, #0]
 800177c:	60d0      	str	r0, [r2, #12]
 800177e:	ea80 0000 	eor.w	r0, r0, r0
 8001782:	f8c4 0088 	str.w	r0, [r4, #136]	; 0x88
 8001786:	f8c4 008c 	str.w	r0, [r4, #140]	; 0x8c
 800178a:	f04f 0028 	mov.w	r0, #40	; 0x28
 800178e:	f04f 0101 	mov.w	r1, #1
 8001792:	b500      	push	{lr}
 8001794:	f7fe ffa2 	bl	80006dc <nvic_set_priority>
 8001798:	f85d eb04 	ldr.w	lr, [sp], #4
 800179c:	f04f 0028 	mov.w	r0, #40	; 0x28
 80017a0:	b500      	push	{lr}
 80017a2:	f7fe ffb4 	bl	800070e <nvic_enable_irq>
 80017a6:	f85d eb04 	ldr.w	lr, [sp], #4
 80017aa:	4770      	bx	lr
 80017ac:	08001348 	stmdaeq	r0, {r3, r6, r8, r9, ip}

080017b0 <_KEY_ASYNC>:
 80017b0:	59454b09 	stmdbpl	r5, {r0, r3, r8, r9, fp, lr}^
 80017b4:	5953412d 	ldmdbpl	r3, {r0, r2, r3, r5, r8, lr}^
 80017b8:	bf00434e 	svclt	0x0000434e

080017bc <KEY_ASYNC>:
 80017bc:	f847 6d04 	str.w	r6, [r7, #-4]!
 80017c0:	f894 6076 	ldrb.w	r6, [r4, #118]	; 0x76
 80017c4:	f006 06fc 	and.w	r6, r6, #252	; 0xfc
 80017c8:	f001 b80a 	b.w	80027e0 <INEXT>

080017cc <keycode>:
 80017cc:	b40e      	push	{r1, r2, r3}
 80017ce:	ea80 0000 	eor.w	r0, r0, r0
 80017d2:	f104 0378 	add.w	r3, r4, #120	; 0x78
 80017d6:	f8d4 1088 	ldr.w	r1, [r4, #136]	; 0x88
 80017da:	f8d4 208c 	ldr.w	r2, [r4, #140]	; 0x8c
 80017de:	4291      	cmp	r1, r2
 80017e0:	d006      	beq.n	80017f0 <keycode+0x24>
 80017e2:	5c58      	ldrb	r0, [r3, r1]
 80017e4:	f101 0101 	add.w	r1, r1, #1
 80017e8:	f001 010f 	and.w	r1, r1, #15
 80017ec:	f8c4 1088 	str.w	r1, [r4, #136]	; 0x88
 80017f0:	bc0e      	pop	{r1, r2, r3}
 80017f2:	4770      	bx	lr

080017f4 <wait_code>:
 80017f4:	b500      	push	{lr}
 80017f6:	f7ff ffe9 	bl	80017cc <keycode>
 80017fa:	f85d eb04 	ldr.w	lr, [sp], #4
 80017fe:	0000      	movs	r0, r0
 8001800:	d0f8      	beq.n	80017f4 <wait_code>
 8001802:	4770      	bx	lr

08001804 <table_scan>:
 8001804:	b404      	push	{r2}
 8001806:	f811 2b01 	ldrb.w	r2, [r1], #1
 800180a:	b122      	cbz	r2, 8001816 <table_scan+0x12>
 800180c:	4282      	cmp	r2, r0
 800180e:	d002      	beq.n	8001816 <table_scan+0x12>
 8001810:	f101 0101 	add.w	r1, r1, #1
 8001814:	e7f7      	b.n	8001806 <table_scan+0x2>
 8001816:	7808      	ldrb	r0, [r1, #0]
 8001818:	0000      	movs	r0, r0
 800181a:	bc04      	pop	{r2}
 800181c:	4770      	bx	lr
 800181e:	080017b0 	stmdaeq	r0, {r4, r5, r7, r8, r9, sl, ip}

08001822 <_PS2_QKEY>:
 8001822:	32535008 	subscc	r5, r3, #8
 8001826:	59454b2d 	stmdbpl	r5, {r0, r2, r3, r5, r8, r9, fp, lr}^
 800182a:	 			; <UNDEFINED> instruction: 0xf847003f

0800182c <PS2_QKEY>:
 800182c:	f847 6d04 	str.w	r6, [r7, #-4]!
 8001830:	ea86 0606 	eor.w	r6, r6, r6
 8001834:	49bd      	ldr	r1, [pc, #756]	; (8001b2c <WKEY+0x24>)
 8001836:	f894 0076 	ldrb.w	r0, [r4, #118]	; 0x76
 800183a:	f04f 0240 	mov.w	r2, #64	; 0x40
 800183e:	4210      	tst	r0, r2
 8001840:	d000      	beq.n	8001844 <PS2_QKEY+0x18>
 8001842:	49bb      	ldr	r1, [pc, #748]	; (8001b30 <WKEY+0x28>)
 8001844:	b500      	push	{lr}
 8001846:	f7ff ffc1 	bl	80017cc <keycode>
 800184a:	f85d eb04 	ldr.w	lr, [sp], #4
 800184e:	b198      	cbz	r0, 8001878 <inkey_exit>
 8001850:	28e1      	cmp	r0, #225	; 0xe1
 8001852:	d013      	beq.n	800187c <pause_key>
 8001854:	b500      	push	{lr}
 8001856:	f7ff ffd5 	bl	8001804 <table_scan>
 800185a:	f85d eb04 	ldr.w	lr, [sp], #4
 800185e:	4606      	mov	r6, r0
 8001860:	b500      	push	{lr}
 8001862:	f000 f816 	bl	8001892 <do_modifiers>
 8001866:	f85d eb04 	ldr.w	lr, [sp], #4
 800186a:	2e03      	cmp	r6, #3
 800186c:	f43e ae44 	beq.w	80004f8 <user_reboot>
 8001870:	f847 6d04 	str.w	r6, [r7, #-4]!
 8001874:	f04f 36ff 	mov.w	r6, #4294967295	; 0xffffffff

08001878 <inkey_exit>:
 8001878:	f000 bfb2 	b.w	80027e0 <INEXT>

0800187c <pause_key>:
 800187c:	f04f 0107 	mov.w	r1, #7
 8001880:	b500      	push	{lr}
 8001882:	f7ff ffb7 	bl	80017f4 <wait_code>
 8001886:	f85d eb04 	ldr.w	lr, [sp], #4
 800188a:	3901      	subs	r1, #1
 800188c:	d1f8      	bne.n	8001880 <pause_key+0x4>
 800188e:	f000 bfa7 	b.w	80027e0 <INEXT>

08001892 <do_modifiers>:
 8001892:	f894 0076 	ldrb.w	r0, [r4, #118]	; 0x76
 8001896:	f010 0f08 	tst.w	r0, #8
 800189a:	d106      	bne.n	80018aa <shift_down>
 800189c:	f010 0f20 	tst.w	r0, #32
 80018a0:	d106      	bne.n	80018b0 <altchar_down>
 80018a2:	f010 0f10 	tst.w	r0, #16
 80018a6:	d106      	bne.n	80018b6 <ctrl_down>
 80018a8:	e00d      	b.n	80018c6 <ctrl_down+0x10>

080018aa <shift_down>:
 80018aa:	4630      	mov	r0, r6
 80018ac:	49a1      	ldr	r1, [pc, #644]	; (8001b34 <WKEY+0x2c>)
 80018ae:	e004      	b.n	80018ba <ctrl_down+0x4>

080018b0 <altchar_down>:
 80018b0:	4630      	mov	r0, r6
 80018b2:	49a1      	ldr	r1, [pc, #644]	; (8001b38 <WKEY+0x30>)
 80018b4:	e001      	b.n	80018ba <ctrl_down+0x4>

080018b6 <ctrl_down>:
 80018b6:	4630      	mov	r0, r6
 80018b8:	49a0      	ldr	r1, [pc, #640]	; (8001b3c <WKEY+0x34>)
 80018ba:	b500      	push	{lr}
 80018bc:	f7ff ffa2 	bl	8001804 <table_scan>
 80018c0:	f85d eb04 	ldr.w	lr, [sp], #4
 80018c4:	4606      	mov	r6, r0
 80018c6:	b500      	push	{lr}
 80018c8:	f000 f803 	bl	80018d2 <do_capslock>
 80018cc:	f85d eb04 	ldr.w	lr, [sp], #4
 80018d0:	4770      	bx	lr

080018d2 <do_capslock>:
 80018d2:	f894 0076 	ldrb.w	r0, [r4, #118]	; 0x76
 80018d6:	f010 0f04 	tst.w	r0, #4
 80018da:	d00b      	beq.n	80018f4 <do_capslock+0x22>
 80018dc:	2e41      	cmp	r6, #65	; 0x41
 80018de:	d409      	bmi.n	80018f4 <do_capslock+0x22>
 80018e0:	2e5b      	cmp	r6, #91	; 0x5b
 80018e2:	d403      	bmi.n	80018ec <do_capslock+0x1a>
 80018e4:	2e61      	cmp	r6, #97	; 0x61
 80018e6:	d405      	bmi.n	80018f4 <do_capslock+0x22>
 80018e8:	2e7b      	cmp	r6, #123	; 0x7b
 80018ea:	d503      	bpl.n	80018f4 <do_capslock+0x22>
 80018ec:	f04f 0020 	mov.w	r0, #32
 80018f0:	ea86 0600 	eor.w	r6, r6, r0
 80018f4:	4770      	bx	lr

080018f6 <kbd_send>:
 80018f6:	b40f      	push	{r0, r1, r2, r3}
 80018f8:	6ea0      	ldr	r0, [r4, #104]	; 0x68
 80018fa:	2801      	cmp	r0, #1
 80018fc:	d1fc      	bne.n	80018f8 <kbd_send+0x2>
 80018fe:	f04f 001d 	mov.w	r0, #29
 8001902:	b500      	push	{lr}
 8001904:	f7fe ff18 	bl	8000738 <nvic_disable_irq>
 8001908:	f85d eb04 	ldr.w	lr, [sp], #4
 800190c:	f44f 6300 	mov.w	r3, #2048	; 0x800
 8001910:	f2c4 0302 	movt	r3, #16386	; 0x4002
 8001914:	4618      	mov	r0, r3
 8001916:	f04f 010f 	mov.w	r1, #15
 800191a:	f04f 0211 	mov.w	r2, #17
 800191e:	b500      	push	{lr}
 8001920:	f7fe ff21 	bl	8000766 <gpio_config>
 8001924:	f85d eb04 	ldr.w	lr, [sp], #4
 8001928:	4618      	mov	r0, r3
 800192a:	f04f 010f 	mov.w	r1, #15
 800192e:	ea82 0202 	eor.w	r2, r2, r2
 8001932:	b500      	push	{lr}
 8001934:	f7fe ff6d 	bl	8000812 <gpio_out>
 8001938:	f85d eb04 	ldr.w	lr, [sp], #4
 800193c:	f44f 50e1 	mov.w	r0, #7200	; 0x1c20
 8001940:	3801      	subs	r0, #1
 8001942:	d1fd      	bne.n	8001940 <kbd_send+0x4a>
 8001944:	bc01      	pop	{r0}
 8001946:	f884 0075 	strb.w	r0, [r4, #117]	; 0x75
 800194a:	f8d4 0076 	ldr.w	r0, [r4, #118]	; 0x76
 800194e:	f040 0002 	orr.w	r0, r0, #2
 8001952:	f884 0076 	strb.w	r0, [r4, #118]	; 0x76
 8001956:	ea80 0000 	eor.w	r0, r0, r0
 800195a:	f884 0074 	strb.w	r0, [r4, #116]	; 0x74
 800195e:	f884 0077 	strb.w	r0, [r4, #119]	; 0x77
 8001962:	4618      	mov	r0, r3
 8001964:	f04f 010e 	mov.w	r1, #14
 8001968:	f04f 0211 	mov.w	r2, #17
 800196c:	b500      	push	{lr}
 800196e:	f7fe fefa 	bl	8000766 <gpio_config>
 8001972:	f85d eb04 	ldr.w	lr, [sp], #4
 8001976:	4618      	mov	r0, r3
 8001978:	f04f 010e 	mov.w	r1, #14
 800197c:	ea82 0202 	eor.w	r2, r2, r2
 8001980:	b500      	push	{lr}
 8001982:	f7fe ff46 	bl	8000812 <gpio_out>
 8001986:	f85d eb04 	ldr.w	lr, [sp], #4
 800198a:	4618      	mov	r0, r3
 800198c:	f04f 010f 	mov.w	r1, #15
 8001990:	f04f 0200 	mov.w	r2, #0
 8001994:	b500      	push	{lr}
 8001996:	f7fe fee6 	bl	8000766 <gpio_config>
 800199a:	f85d eb04 	ldr.w	lr, [sp], #4
 800199e:	f04f 000a 	mov.w	r0, #10
 80019a2:	60e0      	str	r0, [r4, #12]
 80019a4:	68e0      	ldr	r0, [r4, #12]
 80019a6:	b120      	cbz	r0, 80019b2 <kbd_send+0xbc>
 80019a8:	f894 0076 	ldrb.w	r0, [r4, #118]	; 0x76
 80019ac:	f010 0f02 	tst.w	r0, #2
 80019b0:	d1f8      	bne.n	80019a4 <kbd_send+0xae>
 80019b2:	f04f 001d 	mov.w	r0, #29
 80019b6:	b500      	push	{lr}
 80019b8:	f7fe fea9 	bl	800070e <nvic_enable_irq>
 80019bc:	f85d eb04 	ldr.w	lr, [sp], #4
 80019c0:	f894 0076 	ldrb.w	r0, [r4, #118]	; 0x76
 80019c4:	f020 0102 	bic.w	r1, r0, #2
 80019c8:	f884 1076 	strb.w	r1, [r4, #118]	; 0x76
 80019cc:	f000 0002 	and.w	r0, r0, #2
 80019d0:	b148      	cbz	r0, 80019e6 <kbd_send+0xf0>
 80019d2:	6819      	ldr	r1, [r3, #0]
 80019d4:	f021 5140 	bic.w	r1, r1, #805306368	; 0x30000000
 80019d8:	6019      	str	r1, [r3, #0]
 80019da:	ea80 0000 	eor.w	r0, r0, r0
 80019de:	f884 0074 	strb.w	r0, [r4, #116]	; 0x74
 80019e2:	ea6f 0000 	mvn.w	r0, r0
 80019e6:	bc0e      	pop	{r1, r2, r3}
 80019e8:	4770      	bx	lr

080019ea <kbd_clear_queue>:
 80019ea:	ea80 0000 	eor.w	r0, r0, r0
 80019ee:	f8c4 0088 	str.w	r0, [r4, #136]	; 0x88
 80019f2:	f8c4 008c 	str.w	r0, [r4, #140]	; 0x8c
 80019f6:	f894 0076 	ldrb.w	r0, [r4, #118]	; 0x76
 80019fa:	f06f 0103 	mvn.w	r1, #3
 80019fe:	ea00 0001 	and.w	r0, r0, r1
 8001a02:	f884 0076 	strb.w	r0, [r4, #118]	; 0x76
 8001a06:	4770      	bx	lr
 8001a08:	08001822 	stmdaeq	r0, {r1, r5, fp, ip}

08001a0c <_KBD_RST>:
 8001a0c:	44424b07 	strbmi	r4, [r2], #-2823	; 0xfffff4f9
 8001a10:	5453522d 	ldrbpl	r5, [r3], #-557	; 0xfffffdd3

08001a14 <KBD_RST>:
 8001a14:	f04f 00ff 	mov.w	r0, #255	; 0xff
 8001a18:	b500      	push	{lr}
 8001a1a:	f7ff ff6c 	bl	80018f6 <kbd_send>
 8001a1e:	f85d eb04 	ldr.w	lr, [sp], #4
 8001a22:	b9b8      	cbnz	r0, 8001a54 <KBD_RST+0x40>
 8001a24:	b500      	push	{lr}
 8001a26:	f7ff ffe0 	bl	80019ea <kbd_clear_queue>
 8001a2a:	f85d eb04 	ldr.w	lr, [sp], #4
 8001a2e:	b500      	push	{lr}
 8001a30:	f7ff fee0 	bl	80017f4 <wait_code>
 8001a34:	f85d eb04 	ldr.w	lr, [sp], #4
 8001a38:	28fe      	cmp	r0, #254	; 0xfe
 8001a3a:	d0eb      	beq.n	8001a14 <KBD_RST>
 8001a3c:	f44f 70fa 	mov.w	r0, #500	; 0x1f4
 8001a40:	60e0      	str	r0, [r4, #12]
 8001a42:	b500      	push	{lr}
 8001a44:	f7ff fec2 	bl	80017cc <keycode>
 8001a48:	f85d eb04 	ldr.w	lr, [sp], #4
 8001a4c:	b910      	cbnz	r0, 8001a54 <KBD_RST+0x40>
 8001a4e:	68e0      	ldr	r0, [r4, #12]
 8001a50:	2800      	cmp	r0, #0
 8001a52:	d1f6      	bne.n	8001a42 <KBD_RST+0x2e>
 8001a54:	f847 6d04 	str.w	r6, [r7, #-4]!
 8001a58:	4606      	mov	r6, r0
 8001a5a:	f000 bec1 	b.w	80027e0 <INEXT>
 8001a5e:	08001a0c 	stmdaeq	r0, {r2, r3, r9, fp, ip}

08001a62 <_KBD_LED>:
 8001a62:	44424b07 	strbmi	r4, [r2], #-2823	; 0xfffff4f9
 8001a66:	44454c2d 	strbmi	r4, [r5], #-3117	; 0xfffff3d3
 8001a6a:	bf00      	nop

08001a6c <KBD_LED>:
 8001a6c:	b500      	push	{lr}
 8001a6e:	f7ff ffbc 	bl	80019ea <kbd_clear_queue>
 8001a72:	f85d eb04 	ldr.w	lr, [sp], #4
 8001a76:	f04f 00ed 	mov.w	r0, #237	; 0xed
 8001a7a:	b500      	push	{lr}
 8001a7c:	f7ff ff3b 	bl	80018f6 <kbd_send>
 8001a80:	f85d eb04 	ldr.w	lr, [sp], #4
 8001a84:	b500      	push	{lr}
 8001a86:	f7ff feb5 	bl	80017f4 <wait_code>
 8001a8a:	f85d eb04 	ldr.w	lr, [sp], #4
 8001a8e:	28fe      	cmp	r0, #254	; 0xfe
 8001a90:	d0ec      	beq.n	8001a6c <KBD_LED>
 8001a92:	28fa      	cmp	r0, #250	; 0xfa
 8001a94:	d1f6      	bne.n	8001a84 <KBD_LED+0x18>
 8001a96:	4630      	mov	r0, r6
 8001a98:	f000 0007 	and.w	r0, r0, #7
 8001a9c:	b500      	push	{lr}
 8001a9e:	f7ff ff2a 	bl	80018f6 <kbd_send>
 8001aa2:	f85d eb04 	ldr.w	lr, [sp], #4
 8001aa6:	b500      	push	{lr}
 8001aa8:	f7ff fea4 	bl	80017f4 <wait_code>
 8001aac:	f85d eb04 	ldr.w	lr, [sp], #4
 8001ab0:	28fe      	cmp	r0, #254	; 0xfe
 8001ab2:	d0f0      	beq.n	8001a96 <KBD_LED+0x2a>
 8001ab4:	28fa      	cmp	r0, #250	; 0xfa
 8001ab6:	d1f6      	bne.n	8001aa6 <KBD_LED+0x3a>
 8001ab8:	f857 6b04 	ldr.w	r6, [r7], #4
 8001abc:	f000 be90 	b.w	80027e0 <INEXT>
 8001ac0:	08001a62 	stmdaeq	r0, {r1, r5, r6, r9, fp, ip}

08001ac4 <_CAPS_LED>:
 8001ac4:	50414308 	subpl	r4, r1, r8, lsl #6
 8001ac8:	454c2d53 	strbmi	r2, [ip, #-3411]	; 0xfffff2ad
 8001acc:	bf000044 	svclt	0x00000044

08001ad0 <CAPS_LED>:
 8001ad0:	f894 0076 	ldrb.w	r0, [r4, #118]	; 0x76
 8001ad4:	f010 0f01 	tst.w	r0, #1
 8001ad8:	d101      	bne.n	8001ade <CAPS_LED+0xe>
 8001ada:	f000 be81 	b.w	80027e0 <INEXT>
 8001ade:	f847 6d04 	str.w	r6, [r7, #-4]!
 8001ae2:	f06f 0101 	mvn.w	r1, #1
 8001ae6:	ea00 0001 	and.w	r0, r0, r1
 8001aea:	f884 0076 	strb.w	r0, [r4, #118]	; 0x76
 8001aee:	f000 0604 	and.w	r6, r0, #4
 8001af2:	4d13      	ldr	r5, [pc, #76]	; (8001b40 <WKEY+0x38>)
 8001af4:	f045 0501 	orr.w	r5, r5, #1
 8001af8:	e7b8      	b.n	8001a6c <KBD_LED>
 8001afa:	08001ac4 	stmdaeq	r0, {r2, r6, r7, r9, fp, ip}

08001afe <_WKEY>:
 8001afe:	49415708 	stmdbmi	r1, {r3, r8, r9, sl, ip, lr}^
 8001b02:	454b2d54 	strbmi	r2, [fp, #-3412]	; 0xfffff2ac
 8001b06:	 			; <UNDEFINED> instruction: 0x47500059

08001b08 <WKEY>:
 8001b08:	4750      	bx	sl
 8001b0a:	bf00      	nop
 8001b0c:	08001ad1 	stmdaeq	r0, {r0, r4, r6, r7, r9, fp, ip}
 8001b10:	0800182d 	stmdaeq	r0, {r0, r2, r3, r5, fp, ip}
 8001b14:	08002cf5 	stmdaeq	r0, {r0, r2, r4, r5, r6, r7, sl, fp, sp}
 8001b18:	080029e7 	stmdaeq	r0, {r0, r1, r2, r5, r6, r7, r8, fp, sp}
 8001b1c:	08001b0c 	stmdaeq	r0, {r2, r3, r8, r9, fp, ip}
 8001b20:	080027e7 	stmdaeq	r0, {r0, r1, r2, r5, r6, r7, r8, r9, sl, sp}
 8001b24:	0800171e 	stmdaeq	r0, {r1, r2, r3, r4, r8, r9, sl, ip}
 8001b28:	0800172c 	stmdaeq	r0, {r2, r3, r5, r8, r9, sl, ip}
 8001b2c:	0800138c 	stmdaeq	r0, {r2, r3, r7, r8, r9, ip}
 8001b30:	080014b0 	stmdaeq	r0, {r4, r5, r7, sl, ip}
 8001b34:	08001440 	stmdaeq	r0, {r6, sl, ip}
 8001b38:	080014a0 	stmdaeq	r0, {r5, r7, sl, ip}
 8001b3c:	080014d8 	stmdaeq	r0, {r3, r4, r6, r7, sl, ip}
 8001b40:	08001a6c 	stmdaeq	r0, {r2, r3, r5, r6, r9, fp, ip}

08001b44 <flash_spi_init>:
 8001b44:	f04f 0000 	mov.w	r0, #0
 8001b48:	f2c4 0002 	movt	r0, #16386	; 0x4002
 8001b4c:	4603      	mov	r3, r0
 8001b4e:	f04f 0104 	mov.w	r1, #4
 8001b52:	f04f 0201 	mov.w	r2, #1
 8001b56:	b500      	push	{lr}
 8001b58:	f7fe fe05 	bl	8000766 <gpio_config>
 8001b5c:	f85d eb04 	ldr.w	lr, [sp], #4
 8001b60:	4618      	mov	r0, r3
 8001b62:	f04f 0104 	mov.w	r1, #4
 8001b66:	f04f 0201 	mov.w	r2, #1
 8001b6a:	b500      	push	{lr}
 8001b6c:	f7fe fe51 	bl	8000812 <gpio_out>
 8001b70:	f85d eb04 	ldr.w	lr, [sp], #4
 8001b74:	4618      	mov	r0, r3
 8001b76:	f04f 0105 	mov.w	r1, #5
 8001b7a:	f04f 0202 	mov.w	r2, #2
 8001b7e:	b500      	push	{lr}
 8001b80:	f7fe fdf1 	bl	8000766 <gpio_config>
 8001b84:	f85d eb04 	ldr.w	lr, [sp], #4
 8001b88:	4618      	mov	r0, r3
 8001b8a:	f04f 0107 	mov.w	r1, #7
 8001b8e:	f04f 0202 	mov.w	r2, #2
 8001b92:	b500      	push	{lr}
 8001b94:	f7fe fde7 	bl	8000766 <gpio_config>
 8001b98:	f85d eb04 	ldr.w	lr, [sp], #4
 8001b9c:	4618      	mov	r0, r3
 8001b9e:	f04f 0106 	mov.w	r1, #6
 8001ba2:	f04f 0202 	mov.w	r2, #2
 8001ba6:	b500      	push	{lr}
 8001ba8:	f7fe fddd 	bl	8000766 <gpio_config>
 8001bac:	f85d eb04 	ldr.w	lr, [sp], #4
 8001bb0:	f64c 40aa 	movw	r0, #52394	; 0xccaa
 8001bb4:	8118      	strh	r0, [r3, #8]
 8001bb6:	f44f 5060 	mov.w	r0, #14336	; 0x3800
 8001bba:	f2c4 0002 	movt	r0, #16386	; 0x4002
 8001bbe:	6c41      	ldr	r1, [r0, #68]	; 0x44
 8001bc0:	f441 5180 	orr.w	r1, r1, #4096	; 0x1000
 8001bc4:	6441      	str	r1, [r0, #68]	; 0x44
 8001bc6:	f44f 5040 	mov.w	r0, #12288	; 0x3000
 8001bca:	f2c4 0001 	movt	r0, #16385	; 0x4001
 8001bce:	f44f 7153 	mov.w	r1, #844	; 0x34c
 8001bd2:	8001      	strh	r1, [r0, #0]
 8001bd4:	6a19      	ldr	r1, [r3, #32]
 8001bd6:	ea80 0000 	eor.w	r0, r0, r0
 8001bda:	f2c5 5050 	movt	r0, #21840	; 0x5550
 8001bde:	ea40 0001 	orr.w	r0, r0, r1
 8001be2:	6218      	str	r0, [r3, #32]
 8001be4:	4770      	bx	lr
 8001be6:	08001afe 	stmdaeq	r0, {r1, r2, r3, r4, r5, r6, r7, r9, fp, ip}

08001bea <_CHIP_SEL>:
 8001bea:	49484308 	stmdbmi	r8, {r3, r8, r9, lr}^
 8001bee:	45532d50 	ldrbmi	r2, [r3, #-3408]	; 0xfffff2b0
 8001bf2:	 			; <UNDEFINED> instruction: 0xf04f004c

08001bf4 <CHIP_SEL>:
 8001bf4:	f04f 0000 	mov.w	r0, #0
 8001bf8:	f2c4 0002 	movt	r0, #16386	; 0x4002
 8001bfc:	f04f 0104 	mov.w	r1, #4
 8001c00:	f04f 0200 	mov.w	r2, #0
 8001c04:	b500      	push	{lr}
 8001c06:	f7fe fe04 	bl	8000812 <gpio_out>
 8001c0a:	f85d eb04 	ldr.w	lr, [sp], #4
 8001c0e:	f000 bde7 	b.w	80027e0 <INEXT>
 8001c12:	08001bea 	stmdaeq	r0, {r1, r3, r5, r6, r7, r8, r9, fp, ip}

08001c16 <_CHIP_DSEL>:
 8001c16:	49484309 	stmdbmi	r8, {r0, r3, r8, r9, lr}^
 8001c1a:	53442d50 	movtpl	r2, #19792	; 0x4d50
 8001c1e:	 			; <UNDEFINED> instruction: 0xf44f4c45

08001c20 <CHIP_DSEL>:
 8001c20:	f44f 5040 	mov.w	r0, #12288	; 0x3000
 8001c24:	f2c4 0001 	movt	r0, #16385	; 0x4001
 8001c28:	8901      	ldrh	r1, [r0, #8]
 8001c2a:	f011 0f80 	tst.w	r1, #128	; 0x80
 8001c2e:	d1fb      	bne.n	8001c28 <CHIP_DSEL+0x8>
 8001c30:	f04f 0000 	mov.w	r0, #0
 8001c34:	f2c4 0002 	movt	r0, #16386	; 0x4002
 8001c38:	f04f 0104 	mov.w	r1, #4
 8001c3c:	f04f 0201 	mov.w	r2, #1
 8001c40:	b500      	push	{lr}
 8001c42:	f7fe fde6 	bl	8000812 <gpio_out>
 8001c46:	f85d eb04 	ldr.w	lr, [sp], #4
 8001c4a:	f000 bdc9 	b.w	80027e0 <INEXT>
 8001c4e:	08001c16 	stmdaeq	r0, {r1, r2, r4, sl, fp, ip}

08001c52 <_RD_BYTE>:
 8001c52:	2d445207 	sfmcs	f5, 2, [r4, #-28]	; 0xffffffe4
 8001c56:	45545942 	ldrbmi	r5, [r4, #-2370]	; 0xfffff6be
 8001c5a:	bf00      	nop

08001c5c <RD_BYTE>:
 8001c5c:	f44f 5040 	mov.w	r0, #12288	; 0x3000
 8001c60:	f2c4 0001 	movt	r0, #16385	; 0x4001
 8001c64:	8901      	ldrh	r1, [r0, #8]
 8001c66:	f011 0f02 	tst.w	r1, #2
 8001c6a:	d0fb      	beq.n	8001c64 <RD_BYTE+0x8>
 8001c6c:	f06f 0100 	mvn.w	r1, #0
 8001c70:	7301      	strb	r1, [r0, #12]
 8001c72:	8901      	ldrh	r1, [r0, #8]
 8001c74:	f011 0f01 	tst.w	r1, #1
 8001c78:	d0fb      	beq.n	8001c72 <RD_BYTE+0x16>
 8001c7a:	f847 6d04 	str.w	r6, [r7, #-4]!
 8001c7e:	7b06      	ldrb	r6, [r0, #12]
 8001c80:	f000 bdae 	b.w	80027e0 <INEXT>
 8001c84:	08001c52 	stmdaeq	r0, {r1, r4, r6, sl, fp, ip}

08001c88 <_WR_BYTE>:
 8001c88:	2d525707 	ldclcs	7, cr5, [r2, #-28]	; 0xffffffe4
 8001c8c:	45545942 	ldrbmi	r5, [r4, #-2370]	; 0xfffff6be

08001c90 <WR_BYTE>:
 8001c90:	f44f 5040 	mov.w	r0, #12288	; 0x3000
 8001c94:	f2c4 0001 	movt	r0, #16385	; 0x4001
 8001c98:	8901      	ldrh	r1, [r0, #8]
 8001c9a:	f011 0f02 	tst.w	r1, #2
 8001c9e:	d0fb      	beq.n	8001c98 <WR_BYTE+0x8>
 8001ca0:	7306      	strb	r6, [r0, #12]
 8001ca2:	8901      	ldrh	r1, [r0, #8]
 8001ca4:	f011 0f01 	tst.w	r1, #1
 8001ca8:	d0fb      	beq.n	8001ca2 <WR_BYTE+0x12>
 8001caa:	8981      	ldrh	r1, [r0, #12]
 8001cac:	f857 6b04 	ldr.w	r6, [r7], #4
 8001cb0:	f000 bd96 	b.w	80027e0 <INEXT>
 8001cb4:	08001c88 	stmdaeq	r0, {r3, r7, sl, fp, ip}

08001cb8 <_WR_DIS>:
 8001cb8:	2d525706 	ldclcs	7, cr5, [r2, #-24]	; 0xffffffe8
 8001cbc:	00534944 	subseq	r4, r3, r4, asr #18

08001cc0 <WR_DIS>:
 8001cc0:	4750      	bx	sl
 8001cc2:	bf00      	nop
 8001cc4:	08001bf5 	stmdaeq	r0, {r0, r2, r4, r5, r6, r7, r8, r9, fp, ip}
 8001cc8:	080029a7 	stmdaeq	r0, {r0, r1, r2, r5, r7, r8, fp, sp}
 8001ccc:	00000004 	andeq	r0, r0, r4
 8001cd0:	08001c91 	stmdaeq	r0, {r0, r4, r7, sl, fp, ip}
 8001cd4:	08001c21 	stmdaeq	r0, {r0, r5, sl, fp, ip}
 8001cd8:	080027e7 	stmdaeq	r0, {r0, r1, r2, r5, r6, r7, r8, r9, sl, sp}
 8001cdc:	08001cb8 	stmdaeq	r0, {r3, r4, r5, r7, sl, fp, ip}

08001ce0 <_WR_ENBL>:
 8001ce0:	2d525707 	ldclcs	7, cr5, [r2, #-28]	; 0xffffffe4
 8001ce4:	4c424e45 	mcrrmi	14, 4, r4, r2, cr5

08001ce8 <WR_ENBL>:
 8001ce8:	4750      	bx	sl
 8001cea:	bf00      	nop
 8001cec:	08001bf5 	stmdaeq	r0, {r0, r2, r4, r5, r6, r7, r8, r9, fp, ip}
 8001cf0:	080029a7 	stmdaeq	r0, {r0, r1, r2, r5, r7, r8, fp, sp}
 8001cf4:	00000006 	andeq	r0, r0, r6
 8001cf8:	08001c91 	stmdaeq	r0, {r0, r4, r7, sl, fp, ip}
 8001cfc:	08001c21 	stmdaeq	r0, {r0, r5, sl, fp, ip}
 8001d00:	080027e7 	stmdaeq	r0, {r0, r1, r2, r5, r6, r7, r8, r9, sl, sp}
 8001d04:	08001ce0 	stmdaeq	r0, {r5, r6, r7, sl, fp, ip}

08001d08 <_RD_SR>:
 8001d08:	2d445205 	sfmcs	f5, 2, [r4, #-20]	; 0xffffffec
 8001d0c:	bf005253 	svclt	0x00005253

08001d10 <RD_SR>:
 8001d10:	4750      	bx	sl
 8001d12:	bf00      	nop
 8001d14:	08001bf5 	stmdaeq	r0, {r0, r2, r4, r5, r6, r7, r8, r9, fp, ip}
 8001d18:	080029a7 	stmdaeq	r0, {r0, r1, r2, r5, r7, r8, fp, sp}
 8001d1c:	08001d38 	stmdaeq	r0, {r3, r4, r5, r8, sl, fp, ip}
 8001d20:	08002be5 	stmdaeq	r0, {r0, r2, r5, r6, r7, r8, r9, fp, sp}
 8001d24:	08002a4d 	stmdaeq	r0, {r0, r2, r3, r6, r9, fp, sp}
 8001d28:	08001c91 	stmdaeq	r0, {r0, r4, r7, sl, fp, ip}
 8001d2c:	08001c5d 	stmdaeq	r0, {r0, r2, r3, r4, r6, sl, fp, ip}
 8001d30:	08001c21 	stmdaeq	r0, {r0, r5, sl, fp, ip}
 8001d34:	080027e7 	stmdaeq	r0, {r0, r1, r2, r5, r6, r7, r8, r9, sl, sp}

08001d38 <sr_cmd>:
 8001d38:	08153505 	ldmdaeq	r5, {r0, r2, r8, sl, ip, sp}
 8001d3c:	 	stmdaeq	r8, {r0, r2, r3, r4}

08001d3f <_SEND_ADR>:
 8001d3f:	4e455308 	cdpmi	3, 4, cr5, cr5, cr8, {0}
 8001d43:	44412d44 	strbmi	r2, [r1], #-3396	; 0xfffff2bc
 8001d47:	 	subeq	r5, r7, r2, asr r0

08001d48 <SEND_ADR>:
 8001d48:	4750      	bx	sl
 8001d4a:	bf00      	nop
 8001d4c:	08002b21 	stmdaeq	r0, {r0, r5, r8, r9, fp, sp}
 8001d50:	080029a7 	stmdaeq	r0, {r0, r1, r2, r5, r7, r8, fp, sp}
 8001d54:	00000010 	andeq	r0, r0, r0, lsl r0
 8001d58:	08002bbd 	stmdaeq	r0, {r0, r2, r3, r4, r5, r7, r8, r9, fp, sp}
 8001d5c:	08001c91 	stmdaeq	r0, {r0, r4, r7, sl, fp, ip}
 8001d60:	08002b21 	stmdaeq	r0, {r0, r5, r8, r9, fp, sp}
 8001d64:	080029a7 	stmdaeq	r0, {r0, r1, r2, r5, r7, r8, fp, sp}
 8001d68:	00000008 	andeq	r0, r0, r8
 8001d6c:	08002bbd 	stmdaeq	r0, {r0, r2, r3, r4, r5, r7, r8, r9, fp, sp}
 8001d70:	08001c91 	stmdaeq	r0, {r0, r4, r7, sl, fp, ip}
 8001d74:	08001c91 	stmdaeq	r0, {r0, r4, r7, sl, fp, ip}
 8001d78:	080027e7 	stmdaeq	r0, {r0, r1, r2, r5, r6, r7, r8, r9, sl, sp}
 8001d7c:	08001d3f 	stmdaeq	r0, {r0, r1, r2, r3, r4, r5, r8, sl, fp, ip}

08001d80 <_WAIT_DONE>:
 8001d80:	49415709 	stmdbmi	r1, {r0, r3, r8, r9, sl, ip, lr}^
 8001d84:	4f442d54 	svcmi	0x00442d54
 8001d88:	bf00454e 	svclt	0x0000454e

08001d8c <WAIT_DONE>:
 8001d8c:	4750      	bx	sl
 8001d8e:	bf00      	nop
 8001d90:	080029a7 	stmdaeq	r0, {r0, r1, r2, r5, r7, r8, fp, sp}
 8001d94:	00000000 	andeq	r0, r0, r0
 8001d98:	08001d11 	stmdaeq	r0, {r0, r4, r8, sl, fp, ip}
 8001d9c:	080029a7 	stmdaeq	r0, {r0, r1, r2, r5, r7, r8, fp, sp}
 8001da0:	00000003 	andeq	r0, r0, r3
 8001da4:	08002b65 	stmdaeq	r0, {r0, r2, r5, r6, r8, r9, fp, sp}
 8001da8:	080029e7 	stmdaeq	r0, {r0, r1, r2, r5, r6, r7, r8, fp, sp}
 8001dac:	08001db8 	stmdaeq	r0, {r3, r4, r5, r7, r8, sl, fp, ip}
 8001db0:	080029fb 	stmdaeq	r0, {r0, r1, r3, r4, r5, r6, r7, r8, fp, sp}
 8001db4:	08001d90 	stmdaeq	r0, {r4, r7, r8, sl, fp, ip}
 8001db8:	080027e7 	stmdaeq	r0, {r0, r1, r2, r5, r6, r7, r8, r9, sl, sp}
 8001dbc:	08001d80 	stmdaeq	r0, {r7, r8, sl, fp, ip}

08001dc0 <_ERASE_BLK>:
 8001dc0:	41524509 	cmpmi	r2, r9, lsl #10
 8001dc4:	422d4553 	eormi	r4, sp, #348127232	; 0x14c00000
 8001dc8:	bf004b4c 	svclt	0x00004b4c

08001dcc <ERASE_BLK>:
 8001dcc:	4750      	bx	sl
 8001dce:	bf00      	nop
 8001dd0:	08001ce9 	stmdaeq	r0, {r0, r3, r5, r6, r7, sl, fp, ip}
 8001dd4:	08001bf5 	stmdaeq	r0, {r0, r2, r4, r5, r6, r7, r8, r9, fp, ip}
 8001dd8:	080029a7 	stmdaeq	r0, {r0, r1, r2, r5, r7, r8, fp, sp}
 8001ddc:	00000020 	andeq	r0, r0, r0, lsr #32
 8001de0:	08001c91 	stmdaeq	r0, {r0, r4, r7, sl, fp, ip}
 8001de4:	08001d49 	stmdaeq	r0, {r0, r3, r6, r8, sl, fp, ip}
 8001de8:	08001c21 	stmdaeq	r0, {r0, r5, sl, fp, ip}
 8001dec:	08001d8d 	stmdaeq	r0, {r0, r2, r3, r7, r8, sl, fp, ip}
 8001df0:	080027e7 	stmdaeq	r0, {r0, r1, r2, r5, r6, r7, r8, r9, sl, sp}
 8001df4:	08001dc0 	stmdaeq	r0, {r6, r7, r8, sl, fp, ip}

08001df8 <_ERASE_CHIP>:
 8001df8:	4152450a 	cmpmi	r2, sl, lsl #10
 8001dfc:	432d4553 			; <UNDEFINED> instruction: 0x432d4553
 8001e00:	00504948 	subseq	r4, r0, r8, asr #18

08001e04 <ERASE_CHIP>:
 8001e04:	4750      	bx	sl
 8001e06:	bf00      	nop
 8001e08:	08001ce9 	stmdaeq	r0, {r0, r3, r5, r6, r7, sl, fp, ip}
 8001e0c:	08001bf5 	stmdaeq	r0, {r0, r2, r4, r5, r6, r7, r8, r9, fp, ip}
 8001e10:	080029a7 	stmdaeq	r0, {r0, r1, r2, r5, r7, r8, fp, sp}
 8001e14:	00000060 	andeq	r0, r0, r0, rrx
 8001e18:	080029a7 	stmdaeq	r0, {r0, r1, r2, r5, r7, r8, fp, sp}
 8001e1c:	000000c7 	andeq	r0, r0, r7, asr #1
 8001e20:	08001c91 	stmdaeq	r0, {r0, r4, r7, sl, fp, ip}
 8001e24:	08001c91 	stmdaeq	r0, {r0, r4, r7, sl, fp, ip}
 8001e28:	08001c21 	stmdaeq	r0, {r0, r5, sl, fp, ip}
 8001e2c:	08001d8d 	stmdaeq	r0, {r0, r2, r3, r7, r8, sl, fp, ip}
 8001e30:	080027e7 	stmdaeq	r0, {r0, r1, r2, r5, r6, r7, r8, r9, sl, sp}
 8001e34:	08001df8 	stmdaeq	r0, {r3, r4, r5, r6, r7, r8, sl, fp, ip}

08001e38 <_RD_BLK>:
 8001e38:	2d445206 	sfmcs	f5, 2, [r4, #-24]	; 0xffffffe8
 8001e3c:	004b4c42 	subeq	r4, fp, r2, asr #24

08001e40 <RD_BLK>:
 8001e40:	4750      	bx	sl
 8001e42:	bf00      	nop
 8001e44:	08001bf5 	stmdaeq	r0, {r0, r2, r4, r5, r6, r7, r8, r9, fp, ip}
 8001e48:	080029a7 	stmdaeq	r0, {r0, r1, r2, r5, r7, r8, fp, sp}
 8001e4c:	00000003 	andeq	r0, r0, r3
 8001e50:	08001c91 	stmdaeq	r0, {r0, r4, r7, sl, fp, ip}
 8001e54:	08001d49 	stmdaeq	r0, {r0, r3, r6, r8, sl, fp, ip}
 8001e58:	08002a9d 	stmdaeq	r0, {r0, r2, r3, r4, r7, r9, fp, sp}
 8001e5c:	080029fb 	stmdaeq	r0, {r0, r1, r3, r4, r5, r6, r7, r8, fp, sp}
 8001e60:	08001e74 	stmdaeq	r0, {r2, r4, r5, r6, r9, sl, fp, ip}
 8001e64:	08001c5d 	stmdaeq	r0, {r0, r2, r3, r4, r6, sl, fp, ip}
 8001e68:	08002b45 	stmdaeq	r0, {r0, r2, r6, r8, r9, fp, sp}
 8001e6c:	08002a39 	stmdaeq	r0, {r0, r3, r4, r5, r9, fp, sp}
 8001e70:	08002c41 	stmdaeq	r0, {r0, r6, sl, fp, sp}
 8001e74:	080029c9 	stmdaeq	r0, {r0, r3, r6, r7, r8, fp, sp}
 8001e78:	08001e64 	stmdaeq	r0, {r2, r5, r6, r9, sl, fp, ip}
 8001e7c:	08002b11 	stmdaeq	r0, {r0, r4, r8, r9, fp, sp}
 8001e80:	08001c21 	stmdaeq	r0, {r0, r5, sl, fp, ip}
 8001e84:	080027e7 	stmdaeq	r0, {r0, r1, r2, r5, r6, r7, r8, r9, sl, sp}
 8001e88:	08001e38 	stmdaeq	r0, {r3, r4, r5, r9, sl, fp, ip}

08001e8c <_WR_BLK>:
 8001e8c:	2d525706 	ldclcs	7, cr5, [r2, #-24]	; 0xffffffe8
 8001e90:	004b4c42 	subeq	r4, fp, r2, asr #24

08001e94 <WR_BLK>:
 8001e94:	4750      	bx	sl
 8001e96:	bf00      	nop
 8001e98:	08001ce9 	stmdaeq	r0, {r0, r3, r5, r6, r7, sl, fp, ip}
 8001e9c:	08001bf5 	stmdaeq	r0, {r0, r2, r4, r5, r6, r7, r8, r9, fp, ip}
 8001ea0:	080029a7 	stmdaeq	r0, {r0, r1, r2, r5, r7, r8, fp, sp}
 8001ea4:	00000002 	andeq	r0, r0, r2
 8001ea8:	08001c91 	stmdaeq	r0, {r0, r4, r7, sl, fp, ip}
 8001eac:	08001d49 	stmdaeq	r0, {r0, r3, r6, r8, sl, fp, ip}
 8001eb0:	08002a9d 	stmdaeq	r0, {r0, r2, r3, r4, r7, r9, fp, sp}
 8001eb4:	080029fb 	stmdaeq	r0, {r0, r1, r3, r4, r5, r6, r7, r8, fp, sp}
 8001eb8:	08001ed4 	stmdaeq	r0, {r2, r4, r6, r7, r9, sl, fp, ip}
 8001ebc:	08002b21 	stmdaeq	r0, {r0, r5, r8, r9, fp, sp}
 8001ec0:	08002a4d 	stmdaeq	r0, {r0, r2, r3, r6, r9, fp, sp}
 8001ec4:	08002b21 	stmdaeq	r0, {r0, r5, r8, r9, fp, sp}
 8001ec8:	08003c25 	stmdaeq	r0, {r0, r2, r5, sl, fp, ip, sp}
 8001ecc:	08001c91 	stmdaeq	r0, {r0, r4, r7, sl, fp, ip}
 8001ed0:	08002c41 	stmdaeq	r0, {r0, r6, sl, fp, sp}
 8001ed4:	080029c9 	stmdaeq	r0, {r0, r3, r6, r7, r8, fp, sp}
 8001ed8:	08001ebc 	stmdaeq	r0, {r2, r3, r4, r5, r7, r9, sl, fp, ip}
 8001edc:	08002b11 	stmdaeq	r0, {r0, r4, r8, r9, fp, sp}
 8001ee0:	08001c21 	stmdaeq	r0, {r0, r5, sl, fp, ip}
 8001ee4:	08001d8d 	stmdaeq	r0, {r0, r2, r3, r7, r8, sl, fp, ip}
 8001ee8:	080027e7 	stmdaeq	r0, {r0, r1, r2, r5, r6, r7, r8, r9, sl, sp}
 8001eec:	08001e8c 	stmdaeq	r0, {r2, r3, r7, r9, sl, fp, ip}

08001ef0 <_SEARCH_FILE>:
 8001ef0:	4145530b 	cmpmi	r5, fp, lsl #6
 8001ef4:	2d484352 	stclcs	3, cr4, [r8, #-328]	; 0xfffffeb8
 8001ef8:	454c4946 	strbmi	r4, [ip, #-2374]	; 0xfffff6ba

08001efc <SEARCH_FILE>:
 8001efc:	4750      	bx	sl
 8001efe:	bf00      	nop
 8001f00:	080027e7 	stmdaeq	r0, {r0, r1, r2, r5, r6, r7, r8, r9, sl, sp}
 8001f04:	08001ef0 	stmdaeq	r0, {r4, r5, r6, r7, r9, sl, fp, ip}

08001f08 <_ERASE_FILE>:
 8001f08:	4152450a 	cmpmi	r2, sl, lsl #10
 8001f0c:	462d4553 			; <UNDEFINED> instruction: 0x462d4553
 8001f10:	00454c49 	subeq	r4, r5, r9, asr #24

08001f14 <ERASE_FILE>:
 8001f14:	4750      	bx	sl
 8001f16:	bf00      	nop
 8001f18:	080027e7 	stmdaeq	r0, {r0, r1, r2, r5, r6, r7, r8, r9, sl, sp}
 8001f1c:	08001f08 	stmdaeq	r0, {r3, r8, r9, sl, fp, ip}

08001f20 <_DIR>:
 8001f20:	52494403 	subpl	r4, r9, #50331648	; 0x3000000

08001f24 <DIR>:
 8001f24:	4750      	bx	sl
 8001f26:	bf00      	nop
 8001f28:	080027e7 	stmdaeq	r0, {r0, r1, r2, r5, r6, r7, r8, r9, sl, sp}
 8001f2c:	08001f20 	stmdaeq	r0, {r5, r8, r9, sl, fp, ip}

08001f30 <_SAVE>:
 8001f30:	56415304 	strbpl	r5, [r1], -r4, lsl #6
 8001f34:	bf000045 	svclt	0x00000045

08001f38 <SAVE>:
 8001f38:	4750      	bx	sl
 8001f3a:	bf00      	nop
 8001f3c:	080027e7 	stmdaeq	r0, {r0, r1, r2, r5, r6, r7, r8, r9, sl, sp}
 8001f40:	08001f30 	stmdaeq	r0, {r4, r5, r8, r9, sl, fp, ip}

08001f44 <_LOAD>:
 8001f44:	414f4c04 	cmpmi	pc, r4, lsl #24
 8001f48:	bf000044 	svclt	0x00000044

08001f4c <LOAD>:
 8001f4c:	4750      	bx	sl
 8001f4e:	bf00      	nop
 8001f50:	080027e7 	stmdaeq	r0, {r0, r1, r2, r5, r6, r7, r8, r9, sl, sp}
 8001f54:	3089705f 	addcc	r7, r9, pc, asr r0
 8001f58:	322bcc77 	eorcc	ip, fp, #30464	; 0x7700
 8001f5c:	33d6bf95 	bicscc	fp, r6, #596	; 0x254
 8001f60:	358637bd 	strcc	r3, [r6, #1981]	; 0x7bd
 8001f64:	3727c5ac 	strcc	ip, [r7, -ip, lsr #11]!
 8001f68:	38d1b717 	ldmcc	r1, {r0, r1, r2, r4, r8, r9, sl, ip, sp, pc}^
 8001f6c:	3a83126f 	bcc	60c6930 <FCLK+0x539130>
 8001f70:	3c23d70a 	stccc	7, cr13, [r3], #-40	; 0xffffffd8
 8001f74:	3dcccccd 	stclcc	12, cr12, [ip, #820]	; 0x334

08001f78 <p10>:
 8001f78:	3f800000 	svccc	0x00800000
 8001f7c:	41200000 			; <UNDEFINED> instruction: 0x41200000
 8001f80:	42c80000 	sbcmi	r0, r8, #0
 8001f84:	447a0000 	ldrbtmi	r0, [sl], #-0
 8001f88:	461c4000 	ldrmi	r4, [ip], -r0
 8001f8c:	47c35000 	strbmi	r5, [r3, r0]
 8001f90:	49742400 	ldmdbmi	r4!, {sl, sp}^
 8001f94:	4b189680 	blmi	862799c <OPTKEY1+0x494f61>
 8001f98:	4cbebc20 	ldcmi	12, cr11, [lr], #128	; 0x80
 8001f9c:	4e6e6b28 	vmulmi.f64	d22, d14, d24
 8001fa0:	08001f44 	stmdaeq	r0, {r2, r6, r8, r9, sl, fp, ip}

08001fa4 <_PWR10>:
 8001fa4:	52575005 	subspl	r5, r7, #5
 8001fa8:	bf003031 	svclt	0x00003031

08001fac <PWR10>:
 8001fac:	ea4f 0686 	mov.w	r6, r6, lsl #2
 8001fb0:	48eb      	ldr	r0, [pc, #940]	; (8002360 <NUMBER+0x20>)
 8001fb2:	4406      	add	r6, r0
 8001fb4:	6836      	ldr	r6, [r6, #0]
 8001fb6:	f000 bc13 	b.w	80027e0 <INEXT>

08001fba <fpu_init>:
 8001fba:	f8df 03a8 	ldr.w	r0, [pc, #936]	; 8002364 <NUMBER+0x24>
 8001fbe:	6801      	ldr	r1, [r0, #0]
 8001fc0:	f441 0170 	orr.w	r1, r1, #15728640	; 0xf00000
 8001fc4:	6001      	str	r1, [r0, #0]
 8001fc6:	f3bf 8f4f 	dsb	sy
 8001fca:	f04f 0000 	mov.w	r0, #0
 8001fce:	ea81 0101 	eor.w	r1, r1, r1
 8001fd2:	6001      	str	r1, [r0, #0]
 8001fd4:	f3bf 8f4f 	dsb	sy
 8001fd8:	f04f 0051 	mov.w	r0, #81	; 0x51
 8001fdc:	b500      	push	{lr}
 8001fde:	f7fe fb96 	bl	800070e <nvic_enable_irq>
 8001fe2:	f85d eb04 	ldr.w	lr, [sp], #4
 8001fe6:	4770      	bx	lr
 8001fe8:	08001fa4 	stmdaeq	r0, {r2, r5, r7, r8, r9, sl, fp, ip}

08001fec <_FPSCR>:
 8001fec:	53504605 	cmppl	r0, #5242880	; 0x500000
 8001ff0:	bf005243 	svclt	0x00005243

08001ff4 <FPSCR>:
 8001ff4:	f847 6d04 	str.w	r6, [r7, #-4]!
 8001ff8:	eef1 6a10 	vmrs	r6, fpscr
 8001ffc:	f3bf 8f4f 	dsb	sy
 8002000:	e3ee      	b.n	80027e0 <INEXT>
 8002002:	08001fec 	stmdaeq	r0, {r2, r3, r5, r6, r7, r8, r9, sl, fp, ip}

08002006 <_CLR_FPSCR>:
 8002006:	524c4309 	subpl	r4, ip, #603979776	; 0x24000000
 800200a:	5350465f 	cmppl	r0, #99614720	; 0x5f00000
 800200e:	 	b	6016922 <FCLK+0x489122>

08002010 <CLR_FPSCR>:
 8002010:	ea80 0000 	eor.w	r0, r0, r0
 8002014:	eee1 0a10 	vmsr	fpscr, r0
 8002018:	f3bf 8f4f 	dsb	sy
 800201c:	e3e0      	b.n	80027e0 <INEXT>
 800201e:	08002006 	stmdaeq	r0, {r1, r2, sp}

08002022 <_TOS0>:
 8002022:	30533e03 	subscc	r3, r3, r3, lsl #28
 8002026:	bf00      	nop

08002028 <TOS0>:
 8002028:	ee00 6a10 	vmov	s0, r6
 800202c:	f857 6b04 	ldr.w	r6, [r7], #4
 8002030:	e3d6      	b.n	80027e0 <INEXT>
 8002032:	08002022 	stmdaeq	r0, {r1, r5, sp}

08002036 <_TOS1>:
 8002036:	31533e03 	cmpcc	r3, r3, lsl #28
 800203a:	bf00      	nop

0800203c <TOS1>:
 800203c:	ee00 6a90 	vmov	s1, r6
 8002040:	f857 6b04 	ldr.w	r6, [r7], #4
 8002044:	e3cc      	b.n	80027e0 <INEXT>
 8002046:	08002036 	stmdaeq	r0, {r1, r2, r4, r5, sp}

0800204a <_TOS2>:
 800204a:	32533e03 	subscc	r3, r3, #3, 28	; 0x30
 800204e:	bf00      	nop

08002050 <TOS2>:
 8002050:	ee01 6a10 	vmov	s2, r6
 8002054:	f857 6b04 	ldr.w	r6, [r7], #4
 8002058:	e3c2      	b.n	80027e0 <INEXT>
 800205a:	0800204a 	stmdaeq	r0, {r1, r3, r6, sp}

0800205e <_S0FROM>:
 800205e:	3e305303 	cdpcc	3, 3, cr5, cr0, cr3, {0}
 8002062:	bf00      	nop

08002064 <S0FROM>:
 8002064:	f847 6d04 	str.w	r6, [r7, #-4]!
 8002068:	ee10 6a10 	vmov	r6, s0
 800206c:	e3b8      	b.n	80027e0 <INEXT>
 800206e:	0800205e 	stmdaeq	r0, {r1, r2, r3, r4, r6, sp}

08002072 <_S1FROM>:
 8002072:	3e315303 	cdpcc	3, 3, cr5, cr1, cr3, {0}
 8002076:	bf00      	nop

08002078 <S1FROM>:
 8002078:	f847 6d04 	str.w	r6, [r7, #-4]!
 800207c:	ee10 6a90 	vmov	r6, s1
 8002080:	e3ae      	b.n	80027e0 <INEXT>
 8002082:	08002072 	stmdaeq	r0, {r1, r4, r5, r6, sp}

08002086 <_S2FROM>:
 8002086:	3e325303 	cdpcc	3, 3, cr5, cr2, cr3, {0}
 800208a:	bf00      	nop

0800208c <S2FROM>:
 800208c:	f847 6d04 	str.w	r6, [r7, #-4]!
 8002090:	ee11 6a10 	vmov	r6, s2
 8002094:	e3a4      	b.n	80027e0 <INEXT>
 8002096:	08002086 	stmdaeq	r0, {r1, r2, r7, sp}

0800209a <_FTOS>:
 800209a:	533e4603 	teqpl	lr, #3145728	; 0x300000
 800209e:	bf00      	nop

080020a0 <FTOS>:
 80020a0:	ee00 6a10 	vmov	s0, r6
 80020a4:	eebd 0a40 	vcvtr.s32.f32	s0, s0
 80020a8:	ee10 6a10 	vmov	r6, s0
 80020ac:	e398      	b.n	80027e0 <INEXT>
 80020ae:	0800209a 	stmdaeq	r0, {r1, r3, r4, r7, sp}

080020b2 <_TRUNC>:
 80020b2:	55525405 	ldrbpl	r5, [r2, #-1029]	; 0xfffffbfb
 80020b6:	 	cdp	3, 0, cr4, cr0, cr14, {2}

080020b8 <TRUNC>:
 80020b8:	ee00 6a10 	vmov	s0, r6
 80020bc:	eebd 0ac0 	vcvt.s32.f32	s0, s0
 80020c0:	ee10 6a10 	vmov	r6, s0
 80020c4:	e38c      	b.n	80027e0 <INEXT>
 80020c6:	080020b2 	stmdaeq	r0, {r1, r4, r5, r7, sp}

080020ca <_STOF>:
 80020ca:	463e5303 	ldrtmi	r5, [lr], -r3, lsl #6
 80020ce:	bf00      	nop

080020d0 <STOF>:
 80020d0:	ee00 6a10 	vmov	s0, r6
 80020d4:	eeb8 0ac0 	vcvt.f32.s32	s0, s0
 80020d8:	ee10 6a10 	vmov	r6, s0
 80020dc:	e380      	b.n	80027e0 <INEXT>
 80020de:	080020ca 	stmdaeq	r0, {r1, r3, r6, r7, sp}

080020e2 <_FPLUS>:
 80020e2:	002b4602 	eoreq	r4, fp, r2, lsl #12
 80020e6:	bf00      	nop

080020e8 <FPLUS>:
 80020e8:	ee00 6a10 	vmov	s0, r6
 80020ec:	f857 6b04 	ldr.w	r6, [r7], #4
 80020f0:	ee00 6a90 	vmov	s1, r6
 80020f4:	ee30 0a20 	vadd.f32	s0, s0, s1
 80020f8:	ee10 6a10 	vmov	r6, s0
 80020fc:	e370      	b.n	80027e0 <INEXT>
 80020fe:	080020e2 	stmdaeq	r0, {r1, r5, r6, r7, sp}

08002102 <_FMINUS>:
 8002102:	002d4602 	eoreq	r4, sp, r2, lsl #12
 8002106:	bf00      	nop

08002108 <FMINUS>:
 8002108:	ee00 6a10 	vmov	s0, r6
 800210c:	f857 6b04 	ldr.w	r6, [r7], #4
 8002110:	ee00 6a90 	vmov	s1, r6
 8002114:	ee30 0ac0 	vsub.f32	s0, s1, s0
 8002118:	ee10 6a10 	vmov	r6, s0
 800211c:	e360      	b.n	80027e0 <INEXT>
 800211e:	08002102 	stmdaeq	r0, {r1, r8, sp}

08002122 <_FSTAR>:
 8002122:	002a4602 	eoreq	r4, sl, r2, lsl #12
 8002126:	bf00      	nop

08002128 <FSTAR>:
 8002128:	ee00 6a10 	vmov	s0, r6
 800212c:	f857 6b04 	ldr.w	r6, [r7], #4
 8002130:	ee00 6a90 	vmov	s1, r6
 8002134:	ee20 0a80 	vmul.f32	s0, s1, s0
 8002138:	ee10 6a10 	vmov	r6, s0
 800213c:	e350      	b.n	80027e0 <INEXT>
 800213e:	08002122 	stmdaeq	r0, {r1, r5, r8, sp}

08002142 <_FSLH>:
 8002142:	002f4602 	eoreq	r4, pc, r2, lsl #12
 8002146:	bf00      	nop

08002148 <FSLH>:
 8002148:	ee00 6a10 	vmov	s0, r6
 800214c:	f857 6b04 	ldr.w	r6, [r7], #4
 8002150:	ee00 6a90 	vmov	s1, r6
 8002154:	ee80 0a80 	vdiv.f32	s0, s1, s0
 8002158:	ee10 6a10 	vmov	r6, s0
 800215c:	e340      	b.n	80027e0 <INEXT>
 800215e:	08002142 	stmdaeq	r0, {r1, r6, r8, sp}

08002162 <_FNEG>:
 8002162:	454e4607 	strbmi	r4, [lr, #-1543]	; 0xfffff9f9
 8002166:	45544147 	ldrbmi	r4, [r4, #-327]	; 0xfffffeb9
 800216a:	bf00      	nop

0800216c <FNEG>:
 800216c:	ee00 6a10 	vmov	s0, r6
 8002170:	eeb1 0a40 	vneg.f32	s0, s0
 8002174:	ee10 6a10 	vmov	r6, s0
 8002178:	e332      	b.n	80027e0 <INEXT>
 800217a:	08002162 	stmdaeq	r0, {r1, r5, r6, r8, sp}

0800217e <_FABS>:
 800217e:	42414604 	submi	r4, r1, #4, 12	; 0x400000
 8002182:	 	b	60022d6 <FCLK+0x474ad6>

08002184 <FABS>:
 8002184:	ea80 0000 	eor.w	r0, r0, r0
 8002188:	ea6f 0000 	mvn.w	r0, r0
 800218c:	ea4f 0050 	mov.w	r0, r0, lsr #1
 8002190:	ea06 0600 	and.w	r6, r6, r0
 8002194:	e324      	b.n	80027e0 <INEXT>
 8002196:	0800217e 	stmdaeq	r0, {r1, r2, r3, r4, r5, r6, r8, sp}

0800219a <_SQRT>:
 800219a:	52515304 	subspl	r5, r1, #4, 6	; 0x10000000
 800219e:	 	mcr	0, 0, r0, cr0, cr4, {2}

080021a0 <SQRT>:
 80021a0:	ee00 6a10 	vmov	s0, r6
 80021a4:	eeb1 0ac0 	vsqrt.f32	s0, s0
 80021a8:	ee10 6a10 	vmov	r6, s0
 80021ac:	e318      	b.n	80027e0 <INEXT>
 80021ae:	0800219a 	stmdaeq	r0, {r1, r3, r4, r7, r8, sp}

080021b2 <_FZLESS>:
 80021b2:	3c304603 	ldccc	6, cr4, [r0], #-12
 80021b6:	bf00      	nop

080021b8 <FZLESS>:
 80021b8:	ee00 6a10 	vmov	s0, r6
 80021bc:	eeb5 0a40 	vcmp.f32	s0, #0.0
 80021c0:	eef1 6a10 	vmrs	r6, fpscr
 80021c4:	f3bf 8f4f 	dsb	sy
 80021c8:	ea4f 76e6 	mov.w	r6, r6, asr #31
 80021cc:	e308      	b.n	80027e0 <INEXT>
 80021ce:	080021b2 	stmdaeq	r0, {r1, r4, r5, r7, r8, sp}

080021d2 <_FGREAT>:
 80021d2:	003e4602 	eorseq	r4, lr, r2, lsl #12
 80021d6:	bf00      	nop

080021d8 <FGREAT>:
 80021d8:	4750      	bx	sl
 80021da:	bf00      	nop
 80021dc:	08002109 	stmdaeq	r0, {r0, r3, r8, sp}
 80021e0:	080021b9 	stmdaeq	r0, {r0, r3, r4, r5, r7, r8, sp}
 80021e4:	08002df1 	stmdaeq	r0, {r0, r4, r5, r6, r7, r8, sl, fp, sp}
 80021e8:	080027e7 	stmdaeq	r0, {r0, r1, r2, r5, r6, r7, r8, r9, sl, sp}
 80021ec:	080021d2 	stmdaeq	r0, {r1, r4, r6, r7, r8, sp}

080021f0 <_FLESS>:
 80021f0:	003c4602 	eorseq	r4, ip, r2, lsl #12

080021f4 <FLESS>:
 80021f4:	4750      	bx	sl
 80021f6:	bf00      	nop
 80021f8:	08002109 	stmdaeq	r0, {r0, r3, r8, sp}
 80021fc:	080021b9 	stmdaeq	r0, {r0, r3, r4, r5, r7, r8, sp}
 8002200:	080027e7 	stmdaeq	r0, {r0, r1, r2, r5, r6, r7, r8, r9, sl, sp}
 8002204:	080021f0 	stmdaeq	r0, {r4, r5, r6, r7, r8, sp}

08002208 <_FMIN>:
 8002208:	494d4604 	stmdbmi	sp, {r2, r9, sl, lr}^
 800220c:	bf00004e 	svclt	0x0000004e

08002210 <FMIN>:
 8002210:	4750      	bx	sl
 8002212:	bf00      	nop
 8002214:	08002b45 	stmdaeq	r0, {r0, r2, r6, r8, r9, fp, sp}
 8002218:	08002b45 	stmdaeq	r0, {r0, r2, r6, r8, r9, fp, sp}
 800221c:	080021d9 	stmdaeq	r0, {r0, r3, r4, r6, r7, r8, sp}
 8002220:	080029e7 	stmdaeq	r0, {r0, r1, r2, r5, r6, r7, r8, fp, sp}
 8002224:	0800222c 	stmdaeq	r0, {r2, r3, r5, r9, sp}
 8002228:	08002b31 	stmdaeq	r0, {r0, r4, r5, r8, r9, fp, sp}
 800222c:	08002b11 	stmdaeq	r0, {r0, r4, r8, r9, fp, sp}
 8002230:	080027e7 	stmdaeq	r0, {r0, r1, r2, r5, r6, r7, r8, r9, sl, sp}
 8002234:	08002208 	stmdaeq	r0, {r3, r9, sp}

08002238 <_FMAX>:
 8002238:	414d4604 	cmpmi	sp, r4, lsl #12
 800223c:	bf000058 	svclt	0x00000058

08002240 <FMAX>:
 8002240:	4750      	bx	sl
 8002242:	bf00      	nop
 8002244:	08002b45 	stmdaeq	r0, {r0, r2, r6, r8, r9, fp, sp}
 8002248:	08002b45 	stmdaeq	r0, {r0, r2, r6, r8, r9, fp, sp}
 800224c:	080021f5 	stmdaeq	r0, {r0, r2, r4, r5, r6, r7, r8, sp}
 8002250:	080029e7 	stmdaeq	r0, {r0, r1, r2, r5, r6, r7, r8, fp, sp}
 8002254:	0800225c 	stmdaeq	r0, {r2, r3, r4, r6, r9, sp}
 8002258:	08002b31 	stmdaeq	r0, {r0, r4, r5, r8, r9, fp, sp}
 800225c:	08002b11 	stmdaeq	r0, {r0, r4, r8, r9, fp, sp}
 8002260:	080027e7 	stmdaeq	r0, {r0, r1, r2, r5, r6, r7, r8, r9, sl, sp}
 8002264:	08002238 	stmdaeq	r0, {r3, r4, r5, r9, sp}

08002268 <_FSIGN>:
 8002268:	49534605 	ldmdbmi	r3, {r0, r2, r9, sl, lr}^
 800226c:	bf004e47 	svclt	0x00004e47

08002270 <FSIGN>:
 8002270:	ea80 0000 	eor.w	r0, r0, r0
 8002274:	f2c8 0000 	movt	r0, #32768	; 0x8000
 8002278:	ea06 0600 	and.w	r6, r6, r0
 800227c:	ea4f 76e6 	mov.w	r6, r6, asr #31
 8002280:	e2ae      	b.n	80027e0 <INEXT>
 8002282:	08002268 	stmdaeq	r0, {r3, r5, r6, r9, sp}

08002286 <_FEXP>:
 8002286:	58454604 	stmdapl	r5, {r2, r9, sl, lr}^
 800228a:	 			; <UNDEFINED> instruction: 0xf04f0050

0800228c <FEXP>:
 800228c:	f04f 0000 	mov.w	r0, #0
 8002290:	f6c7 7080 	movt	r0, #32640	; 0x7f80
 8002294:	ea06 0600 	and.w	r6, r6, r0
 8002298:	ea4f 56d6 	mov.w	r6, r6, lsr #23
 800229c:	f1a6 067f 	sub.w	r6, r6, #127	; 0x7f
 80022a0:	e29e      	b.n	80027e0 <INEXT>
 80022a2:	08002286 	stmdaeq	r0, {r1, r2, r7, r9, sp}

080022a6 <_FMANT>:
 80022a6:	414d4605 	cmpmi	sp, r5, lsl #12
 80022aa:	 			; <UNDEFINED> instruction: 0xf64f544e

080022ac <FMANT>:
 80022ac:	f64f 70ff 	movw	r0, #65535	; 0xffff
 80022b0:	f2c0 007f 	movt	r0, #127	; 0x7f
 80022b4:	ea06 0600 	and.w	r6, r6, r0
 80022b8:	ea80 0000 	eor.w	r0, r0, r0
 80022bc:	f2c0 0080 	movt	r0, #128	; 0x80
 80022c0:	ea46 0600 	orr.w	r6, r6, r0
 80022c4:	e28c      	b.n	80027e0 <INEXT>
 80022c6:	080022a6 	stmdaeq	r0, {r1, r2, r5, r7, r9, sp}

080022ca <_PI>:
 80022ca:	00495002 	subeq	r5, r9, r2
 80022ce:	bf00      	nop

080022d0 <PI>:
 80022d0:	f847 6d04 	str.w	r6, [r7, #-4]!
 80022d4:	f640 76db 	movw	r6, #4059	; 0xfdb
 80022d8:	f2c4 0649 	movt	r6, #16457	; 0x4049
 80022dc:	e280      	b.n	80027e0 <INEXT>
 80022de:	080022ca 	stmdaeq	r0, {r1, r3, r6, r7, r9, sp}

080022e2 <_LOG2>:
 80022e2:	474f4c04 	strbmi	r4, [pc, -r4, lsl #24]
 80022e6:	 			; <UNDEFINED> instruction: 0xf8470032

080022e8 <LOG2>:
 80022e8:	f847 6d04 	str.w	r6, [r7, #-4]!
 80022ec:	f242 069a 	movw	r6, #8346	; 0x209a
 80022f0:	f6c3 669a 	movt	r6, #16026	; 0x3e9a
 80022f4:	e274      	b.n	80027e0 <INEXT>
 80022f6:	080022e2 	stmdaeq	r0, {r1, r5, r6, r7, r9, sp}

080022fa <_LOG2TO10>:
 80022fa:	474f4c07 	strbmi	r4, [pc, -r7, lsl #24]
 80022fe:	30313e32 	eorscc	r3, r1, r2, lsr lr
 8002302:	bf00      	nop

08002304 <LOG2TO10>:
 8002304:	4750      	bx	sl
 8002306:	bf00      	nop
 8002308:	0800228d 	stmdaeq	r0, {r0, r2, r3, r7, r9, sp}
 800230c:	080020d1 	stmdaeq	r0, {r0, r4, r6, r7, sp}
 8002310:	080022e9 	stmdaeq	r0, {r0, r3, r5, r6, r7, r9, sp}
 8002314:	08002129 	stmdaeq	r0, {r0, r3, r5, r8, sp}
 8002318:	080020b9 	stmdaeq	r0, {r0, r3, r4, r5, r7, sp}
 800231c:	08002b21 	stmdaeq	r0, {r0, r5, r8, r9, fp, sp}
 8002320:	08002b55 	stmdaeq	r0, {r0, r2, r4, r6, r8, r9, fp, sp}
 8002324:	080029e7 	stmdaeq	r0, {r0, r1, r2, r5, r6, r7, r8, fp, sp}
 8002328:	08002330 	stmdaeq	r0, {r4, r5, r8, r9, sp}
 800232c:	08002c51 	stmdaeq	r0, {r0, r4, r6, sl, fp, sp}
 8002330:	080027e7 	stmdaeq	r0, {r0, r1, r2, r5, r6, r7, r8, r9, sl, sp}
 8002334:	080022fa 	stmdaeq	r0, {r1, r3, r4, r5, r6, r7, r9, sp}

08002338 <_NUMBER>:
 8002338:	4d554e06 	ldclmi	14, cr4, [r5, #-24]	; 0xffffffe8
 800233c:	00524542 	subseq	r4, r2, r2, asr #10

08002340 <NUMBER>:
 8002340:	4750      	bx	sl
 8002342:	bf00      	nop
 8002344:	080038fd 	stmdaeq	r0, {r0, r2, r3, r4, r5, r6, r7, fp, ip, sp}
 8002348:	08002cf5 	stmdaeq	r0, {r0, r2, r4, r5, r6, r7, sl, fp, sp}
 800234c:	080029e7 	stmdaeq	r0, {r0, r1, r2, r5, r6, r7, r8, fp, sp}
 8002350:	08002358 	stmdaeq	r0, {r3, r4, r6, r8, r9, sp}
 8002354:	080027e7 	stmdaeq	r0, {r0, r1, r2, r5, r6, r7, r8, r9, sl, sp}
 8002358:	08002551 	stmdaeq	r0, {r0, r4, r6, r8, sl, sp}
 800235c:	080027e7 	stmdaeq	r0, {r0, r1, r2, r5, r6, r7, r8, r9, sl, sp}
 8002360:	08001f78 	stmdaeq	r0, {r3, r4, r5, r6, r8, r9, sl, fp, ip}
 8002364:	e000ed88 	and	lr, r0, r8, lsl #27

08002368 <powersof10>:
 8002368:	41200000 			; <UNDEFINED> instruction: 0x41200000
 800236c:	42c80000 	sbcmi	r0, r8, #0
 8002370:	461c4000 	ldrmi	r4, [ip], -r0
 8002374:	4cbebc20 	ldcmi	12, cr11, [lr], #128	; 0x80
 8002378:	5a0e1bca 	bpl	83892a8 <OPTKEY1+0x1f686d>
 800237c:	749dc5ae 	ldrvc	ip, [sp], #1454	; 0x5ae

08002380 <power10>:
 8002380:	4750      	bx	sl
 8002382:	bf00      	nop
 8002384:	080029a7 	stmdaeq	r0, {r0, r1, r2, r5, r7, r8, fp, sp}
 8002388:	00000002 	andeq	r0, r0, r2
 800238c:	08002bd5 	stmdaeq	r0, {r0, r2, r4, r6, r7, r8, r9, fp, sp}
 8002390:	080029a7 	stmdaeq	r0, {r0, r1, r2, r5, r7, r8, fp, sp}
 8002394:	08002368 	stmdaeq	r0, {r3, r5, r6, r8, r9, sp}
 8002398:	08002be5 	stmdaeq	r0, {r0, r2, r5, r6, r7, r8, r9, fp, sp}
 800239c:	08002a2d 	stmdaeq	r0, {r0, r2, r3, r5, r9, fp, sp}
 80023a0:	080027e7 	stmdaeq	r0, {r0, r1, r2, r5, r6, r7, r8, r9, sl, sp}

080023a4 <bit_state>:
 80023a4:	4750      	bx	sl
 80023a6:	bf00      	nop
 80023a8:	080029a7 	stmdaeq	r0, {r0, r1, r2, r5, r7, r8, fp, sp}
 80023ac:	00000001 	andeq	r0, r0, r1
 80023b0:	080029a7 	stmdaeq	r0, {r0, r1, r2, r5, r7, r8, fp, sp}
 80023b4:	00000003 	andeq	r0, r0, r3
 80023b8:	08003469 	stmdaeq	r0, {r0, r3, r5, r6, sl, ip, sp}
 80023bc:	08002bd5 	stmdaeq	r0, {r0, r2, r4, r6, r7, r8, r9, fp, sp}
 80023c0:	08002b65 	stmdaeq	r0, {r0, r2, r5, r6, r8, r9, fp, sp}
 80023c4:	080027e7 	stmdaeq	r0, {r0, r1, r2, r5, r6, r7, r8, r9, sl, sp}

080023c8 <mult_div_exp>:
 80023c8:	4750      	bx	sl
 80023ca:	bf00      	nop
 80023cc:	08002b45 	stmdaeq	r0, {r0, r2, r6, r8, r9, fp, sp}
 80023d0:	080029e7 	stmdaeq	r0, {r0, r1, r2, r5, r6, r7, r8, fp, sp}
 80023d4:	08002494 	stmdaeq	r0, {r2, r4, r7, sl, sp}
 80023d8:	080029a7 	stmdaeq	r0, {r0, r1, r2, r5, r7, r8, fp, sp}
 80023dc:	00000000 	andeq	r0, r0, r0
 80023e0:	08002d1d 	stmdaeq	r0, {r0, r2, r3, r4, r8, sl, fp, sp}
 80023e4:	08002b31 	stmdaeq	r0, {r0, r4, r5, r8, r9, fp, sp}
 80023e8:	08002b21 	stmdaeq	r0, {r0, r5, r8, r9, fp, sp}
 80023ec:	08002b55 	stmdaeq	r0, {r0, r2, r4, r6, r8, r9, fp, sp}
 80023f0:	080029e7 	stmdaeq	r0, {r0, r1, r2, r5, r6, r7, r8, fp, sp}
 80023f4:	08002448 	stmdaeq	r0, {r3, r6, sl, sp}
 80023f8:	08002e15 	stmdaeq	r0, {r0, r2, r4, r9, sl, fp, sp}
 80023fc:	08002a9d 	stmdaeq	r0, {r0, r2, r3, r4, r7, r9, fp, sp}

08002400 <div_loop>:
 8002400:	08002a89 	stmdaeq	r0, {r0, r3, r7, r9, fp, sp}
 8002404:	080023a5 	stmdaeq	r0, {r0, r2, r5, r7, r8, r9, sp}
 8002408:	080029e7 	stmdaeq	r0, {r0, r1, r2, r5, r6, r7, r8, fp, sp}
 800240c:	0800241c 	stmdaeq	r0, {r2, r3, r4, sl, sp}
 8002410:	08002b45 	stmdaeq	r0, {r0, r2, r6, r8, r9, fp, sp}
 8002414:	08002381 	stmdaeq	r0, {r0, r7, r8, r9, sp}
 8002418:	08002149 	stmdaeq	r0, {r0, r3, r6, r8, sp}
 800241c:	08002b31 	stmdaeq	r0, {r0, r4, r5, r8, r9, fp, sp}
 8002420:	08002c41 	stmdaeq	r0, {r0, r6, sl, fp, sp}
 8002424:	08002b31 	stmdaeq	r0, {r0, r4, r5, r8, r9, fp, sp}
 8002428:	08002b45 	stmdaeq	r0, {r0, r2, r6, r8, r9, fp, sp}
 800242c:	080029a7 	stmdaeq	r0, {r0, r1, r2, r5, r7, r8, fp, sp}
 8002430:	00000005 	andeq	r0, r0, r5
 8002434:	08002eed 	stmdaeq	r0, {r0, r2, r3, r5, r6, r7, r9, sl, fp, sp}
 8002438:	080029e7 	stmdaeq	r0, {r0, r1, r2, r5, r6, r7, r8, fp, sp}
 800243c:	08002400 	stmdaeq	r0, {sl, sp}
 8002440:	080029fb 	stmdaeq	r0, {r0, r1, r3, r4, r5, r6, r7, r8, fp, sp}
 8002444:	0800248c 	stmdaeq	r0, {r2, r3, r7, sl, sp}

08002448 <pos_exp>:
 8002448:	08002a9d 	stmdaeq	r0, {r0, r2, r3, r4, r7, r9, fp, sp}

0800244c <mult_loop>:
 800244c:	08002a89 	stmdaeq	r0, {r0, r3, r7, r9, fp, sp}
 8002450:	080023a5 	stmdaeq	r0, {r0, r2, r5, r7, r8, r9, sp}
 8002454:	080029e7 	stmdaeq	r0, {r0, r1, r2, r5, r6, r7, r8, fp, sp}
 8002458:	08002468 	stmdaeq	r0, {r3, r5, r6, sl, sp}
 800245c:	08002b45 	stmdaeq	r0, {r0, r2, r6, r8, r9, fp, sp}
 8002460:	08002381 	stmdaeq	r0, {r0, r7, r8, r9, sp}
 8002464:	08002129 	stmdaeq	r0, {r0, r3, r5, r8, sp}
 8002468:	08002b31 	stmdaeq	r0, {r0, r4, r5, r8, r9, fp, sp}
 800246c:	08002c41 	stmdaeq	r0, {r0, r6, sl, fp, sp}
 8002470:	08002b31 	stmdaeq	r0, {r0, r4, r5, r8, r9, fp, sp}
 8002474:	08002b45 	stmdaeq	r0, {r0, r2, r6, r8, r9, fp, sp}
 8002478:	080029a7 	stmdaeq	r0, {r0, r1, r2, r5, r7, r8, fp, sp}
 800247c:	00000005 	andeq	r0, r0, r5
 8002480:	08002eed 	stmdaeq	r0, {r0, r2, r3, r5, r6, r7, r9, sl, fp, sp}
 8002484:	080029e7 	stmdaeq	r0, {r0, r1, r2, r5, r6, r7, r8, fp, sp}
 8002488:	0800244c 	stmdaeq	r0, {r2, r3, r6, sl, sp}
 800248c:	08002a59 	stmdaeq	r0, {r0, r3, r4, r6, r9, fp, sp}
 8002490:	08002b11 	stmdaeq	r0, {r0, r4, r8, r9, fp, sp}
 8002494:	08002b31 	stmdaeq	r0, {r0, r4, r5, r8, r9, fp, sp}
 8002498:	08002b11 	stmdaeq	r0, {r0, r4, r8, r9, fp, sp}
 800249c:	080027e7 	stmdaeq	r0, {r0, r1, r2, r5, r6, r7, r8, r9, sl, sp}

080024a0 <div_fract>:
 80024a0:	4750      	bx	sl
 80024a2:	bf00      	nop
 80024a4:	08002b31 	stmdaeq	r0, {r0, r4, r5, r8, r9, fp, sp}
 80024a8:	08002a9d 	stmdaeq	r0, {r0, r2, r3, r4, r7, r9, fp, sp}
 80024ac:	080029a7 	stmdaeq	r0, {r0, r1, r2, r5, r7, r8, fp, sp}
 80024b0:	3f800000 	svccc	0x00800000
 80024b4:	080029fb 	stmdaeq	r0, {r0, r1, r3, r4, r5, r6, r7, r8, fp, sp}
 80024b8:	080024c8 	stmdaeq	r0, {r3, r6, r7, sl, sp}
 80024bc:	080029a7 	stmdaeq	r0, {r0, r1, r2, r5, r7, r8, fp, sp}
 80024c0:	41200000 			; <UNDEFINED> instruction: 0x41200000
 80024c4:	08002129 	stmdaeq	r0, {r0, r3, r5, r8, sp}
 80024c8:	080029c9 	stmdaeq	r0, {r0, r3, r6, r7, r8, fp, sp}
 80024cc:	080024bc 	stmdaeq	r0, {r2, r3, r4, r5, r7, sl, sp}
 80024d0:	08002149 	stmdaeq	r0, {r0, r3, r6, r8, sp}
 80024d4:	080027e7 	stmdaeq	r0, {r0, r1, r2, r5, r6, r7, r8, r9, sl, sp}

080024d8 <decimals>:
 80024d8:	4750      	bx	sl
 80024da:	bf00      	nop
 80024dc:	080029a7 	stmdaeq	r0, {r0, r1, r2, r5, r7, r8, fp, sp}
 80024e0:	00000000 	andeq	r0, r0, r0
 80024e4:	08002b21 	stmdaeq	r0, {r0, r5, r8, r9, fp, sp}
 80024e8:	08002d09 	stmdaeq	r0, {r0, r3, r8, sl, fp, sp}
 80024ec:	08003839 	stmdaeq	r0, {r0, r3, r4, r5, fp, ip, sp}
 80024f0:	08002d1d 	stmdaeq	r0, {r0, r2, r3, r4, r8, sl, fp, sp}
 80024f4:	080020d1 	stmdaeq	r0, {r0, r4, r6, r7, sp}
 80024f8:	080024a1 	stmdaeq	r0, {r0, r5, r7, sl, sp}
 80024fc:	080027e7 	stmdaeq	r0, {r0, r1, r2, r5, r6, r7, r8, r9, sl, sp}

08002500 <exponent>:
 8002500:	4750      	bx	sl
 8002502:	bf00      	nop
 8002504:	080038b3 	stmdaeq	r0, {r0, r1, r4, r5, r7, fp, ip, sp}
 8002508:	08002a9d 	stmdaeq	r0, {r0, r2, r3, r4, r7, r9, fp, sp}
 800250c:	080029a7 	stmdaeq	r0, {r0, r1, r2, r5, r7, r8, fp, sp}
 8002510:	00000000 	andeq	r0, r0, r0
 8002514:	08002b21 	stmdaeq	r0, {r0, r5, r8, r9, fp, sp}
 8002518:	08002d09 	stmdaeq	r0, {r0, r3, r8, sl, fp, sp}
 800251c:	08003839 	stmdaeq	r0, {r0, r3, r4, r5, fp, ip, sp}
 8002520:	08002d1d 	stmdaeq	r0, {r0, r2, r3, r4, r8, sl, fp, sp}
 8002524:	08002b31 	stmdaeq	r0, {r0, r4, r5, r8, r9, fp, sp}
 8002528:	08002b11 	stmdaeq	r0, {r0, r4, r8, r9, fp, sp}
 800252c:	08002a59 	stmdaeq	r0, {r0, r3, r4, r6, r9, fp, sp}
 8002530:	080029e7 	stmdaeq	r0, {r0, r1, r2, r5, r6, r7, r8, fp, sp}
 8002534:	0800253c 	stmdaeq	r0, {r2, r3, r4, r5, r8, sl, sp}
 8002538:	08002e05 	stmdaeq	r0, {r0, r2, r9, sl, fp, sp}
 800253c:	08002b31 	stmdaeq	r0, {r0, r4, r5, r8, r9, fp, sp}
 8002540:	080027e7 	stmdaeq	r0, {r0, r1, r2, r5, r6, r7, r8, r9, sl, sp}
 8002544:	08002338 	stmdaeq	r0, {r3, r4, r5, r8, r9, sp}

08002548 <_FLOATQ>:
 8002548:	4f4c4606 	svcmi	0x004c4606
 800254c:	003f5441 	eorseq	r5, pc, r1, asr #8

08002550 <FLOATQ>:
 8002550:	4750      	bx	sl
 8002552:	bf00      	nop
 8002554:	08003015 	stmdaeq	r0, {r0, r2, r4, ip, sp}
 8002558:	08002a2d 	stmdaeq	r0, {r0, r2, r3, r5, r9, fp, sp}
 800255c:	08002a9d 	stmdaeq	r0, {r0, r2, r3, r4, r7, r9, fp, sp}
 8002560:	080037b9 	stmdaeq	r0, {r0, r3, r4, r5, r7, r8, r9, sl, ip, sp}
 8002564:	080029a7 	stmdaeq	r0, {r0, r1, r2, r5, r7, r8, fp, sp}
 8002568:	00000000 	andeq	r0, r0, r0
 800256c:	08002b45 	stmdaeq	r0, {r0, r2, r6, r8, r9, fp, sp}
 8002570:	08002f75 	stmdaeq	r0, {r0, r2, r4, r5, r6, r8, r9, sl, fp, sp}
 8002574:	08002b11 	stmdaeq	r0, {r0, r4, r8, r9, fp, sp}
 8002578:	080038b3 	stmdaeq	r0, {r0, r1, r4, r5, r7, fp, ip, sp}
 800257c:	08002a9d 	stmdaeq	r0, {r0, r2, r3, r4, r7, r9, fp, sp}
 8002580:	08002b21 	stmdaeq	r0, {r0, r5, r8, r9, fp, sp}
 8002584:	08002a4d 	stmdaeq	r0, {r0, r2, r3, r6, r9, fp, sp}
 8002588:	080029a7 	stmdaeq	r0, {r0, r1, r2, r5, r7, r8, fp, sp}
 800258c:	0000000a 	andeq	r0, r0, sl
 8002590:	080037dd 	stmdaeq	r0, {r0, r2, r3, r4, r6, r7, r8, r9, sl, ip, sp}
 8002594:	08002b31 	stmdaeq	r0, {r0, r4, r5, r8, r9, fp, sp}
 8002598:	08002b11 	stmdaeq	r0, {r0, r4, r8, r9, fp, sp}
 800259c:	080029e7 	stmdaeq	r0, {r0, r1, r2, r5, r6, r7, r8, fp, sp}
 80025a0:	080025f0 	stmdaeq	r0, {r4, r5, r6, r7, r8, sl, sp}
 80025a4:	080029a7 	stmdaeq	r0, {r0, r1, r2, r5, r7, r8, fp, sp}
 80025a8:	00000000 	andeq	r0, r0, r0
 80025ac:	08002b21 	stmdaeq	r0, {r0, r5, r8, r9, fp, sp}
 80025b0:	08002d09 	stmdaeq	r0, {r0, r3, r8, sl, fp, sp}
 80025b4:	08003839 	stmdaeq	r0, {r0, r3, r4, r5, fp, ip, sp}
 80025b8:	08002d1d 	stmdaeq	r0, {r0, r2, r3, r4, r8, sl, fp, sp}
 80025bc:	080020d1 	stmdaeq	r0, {r0, r4, r6, r7, sp}
 80025c0:	08002a9d 	stmdaeq	r0, {r0, r2, r3, r4, r7, r9, fp, sp}
 80025c4:	08002b11 	stmdaeq	r0, {r0, r4, r8, r9, fp, sp}
 80025c8:	080029a7 	stmdaeq	r0, {r0, r1, r2, r5, r7, r8, fp, sp}
 80025cc:	00000045 	andeq	r0, r0, r5, asr #32
 80025d0:	08003899 	stmdaeq	r0, {r0, r3, r4, r7, fp, ip, sp}
 80025d4:	080029e7 	stmdaeq	r0, {r0, r1, r2, r5, r6, r7, r8, fp, sp}
 80025d8:	080025fc 	stmdaeq	r0, {r2, r3, r4, r5, r6, r7, r8, sl, sp}
 80025dc:	080029a7 	stmdaeq	r0, {r0, r1, r2, r5, r7, r8, fp, sp}
 80025e0:	00000000 	andeq	r0, r0, r0
 80025e4:	08002a9d 	stmdaeq	r0, {r0, r2, r3, r4, r7, r9, fp, sp}
 80025e8:	080029fb 	stmdaeq	r0, {r0, r1, r3, r4, r5, r6, r7, r8, fp, sp}
 80025ec:	08002658 	stmdaeq	r0, {r3, r4, r6, r9, sl, sp}

080025f0 <must_be_dot>:
 80025f0:	080029a7 	stmdaeq	r0, {r0, r1, r2, r5, r7, r8, fp, sp}
 80025f4:	00000000 	andeq	r0, r0, r0
 80025f8:	08002a9d 	stmdaeq	r0, {r0, r2, r3, r4, r7, r9, fp, sp}
 80025fc:	080029a7 	stmdaeq	r0, {r0, r1, r2, r5, r7, r8, fp, sp}
 8002600:	0000002e 	andeq	r0, r0, lr, lsr #32
 8002604:	08003899 	stmdaeq	r0, {r0, r3, r4, r7, fp, ip, sp}
 8002608:	080029e7 	stmdaeq	r0, {r0, r1, r2, r5, r6, r7, r8, fp, sp}
 800260c:	080026c8 	stmdaeq	r0, {r3, r6, r7, r9, sl, sp}
 8002610:	080024d9 	stmdaeq	r0, {r0, r3, r4, r6, r7, sl, sp}
 8002614:	08002a9d 	stmdaeq	r0, {r0, r2, r3, r4, r7, r9, fp, sp}
 8002618:	080029a7 	stmdaeq	r0, {r0, r1, r2, r5, r7, r8, fp, sp}
 800261c:	00000045 	andeq	r0, r0, r5, asr #32
 8002620:	08003899 	stmdaeq	r0, {r0, r3, r4, r7, fp, ip, sp}
 8002624:	080029e7 	stmdaeq	r0, {r0, r1, r2, r5, r6, r7, r8, fp, sp}
 8002628:	08002634 	stmdaeq	r0, {r2, r4, r5, r9, sl, sp}
 800262c:	080029fb 	stmdaeq	r0, {r0, r1, r3, r4, r5, r6, r7, r8, fp, sp}
 8002630:	08002658 	stmdaeq	r0, {r3, r4, r6, r9, sl, sp}
 8002634:	08002a4d 	stmdaeq	r0, {r0, r2, r3, r6, r9, fp, sp}
 8002638:	080029e7 	stmdaeq	r0, {r0, r1, r2, r5, r6, r7, r8, fp, sp}
 800263c:	08002648 	stmdaeq	r0, {r3, r6, r9, sl, sp}
 8002640:	080029fb 	stmdaeq	r0, {r0, r1, r3, r4, r5, r6, r7, r8, fp, sp}
 8002644:	080026dc 	stmdaeq	r0, {r2, r3, r4, r6, r7, r9, sl, sp}
 8002648:	08002a9d 	stmdaeq	r0, {r0, r2, r3, r4, r7, r9, fp, sp}
 800264c:	08002b11 	stmdaeq	r0, {r0, r4, r8, r9, fp, sp}
 8002650:	080029fb 	stmdaeq	r0, {r0, r1, r3, r4, r5, r6, r7, r8, fp, sp}
 8002654:	08002690 	stmdaeq	r0, {r4, r7, r9, sl, sp}
 8002658:	08002501 	stmdaeq	r0, {r0, r8, sl, sp}
 800265c:	08002a4d 	stmdaeq	r0, {r0, r2, r3, r6, r9, fp, sp}
 8002660:	080029e7 	stmdaeq	r0, {r0, r1, r2, r5, r6, r7, r8, fp, sp}
 8002664:	08002670 	stmdaeq	r0, {r4, r5, r6, r9, sl, sp}
 8002668:	080029fb 	stmdaeq	r0, {r0, r1, r3, r4, r5, r6, r7, r8, fp, sp}
 800266c:	080026dc 	stmdaeq	r0, {r2, r3, r4, r6, r7, r9, sl, sp}
 8002670:	08002a9d 	stmdaeq	r0, {r0, r2, r3, r4, r7, r9, fp, sp}
 8002674:	08002d31 	stmdaeq	r0, {r0, r4, r5, r8, sl, fp, sp}
 8002678:	080029fb 	stmdaeq	r0, {r0, r1, r3, r4, r5, r6, r7, r8, fp, sp}
 800267c:	08002690 	stmdaeq	r0, {r4, r7, r9, sl, sp}
 8002680:	080029a7 	stmdaeq	r0, {r0, r1, r2, r5, r7, r8, fp, sp}
 8002684:	00000000 	andeq	r0, r0, r0
 8002688:	08002a9d 	stmdaeq	r0, {r0, r2, r3, r4, r7, r9, fp, sp}
 800268c:	08002b11 	stmdaeq	r0, {r0, r4, r8, r9, fp, sp}

08002690 <build_float>:
 8002690:	08002a59 	stmdaeq	r0, {r0, r3, r4, r6, r9, fp, sp}
 8002694:	08002a6d 	stmdaeq	r0, {r0, r2, r3, r5, r6, r9, fp, sp}
 8002698:	080020e9 	stmdaeq	r0, {r0, r3, r5, r6, r7, sp}
 800269c:	080023c9 	stmdaeq	r0, {r0, r3, r6, r7, r8, r9, sp}
 80026a0:	08002a59 	stmdaeq	r0, {r0, r3, r4, r6, r9, fp, sp}
 80026a4:	080029e7 	stmdaeq	r0, {r0, r1, r2, r5, r6, r7, r8, fp, sp}
 80026a8:	080026b8 	stmdaeq	r0, {r3, r4, r5, r7, r9, sl, sp}
 80026ac:	080029a7 	stmdaeq	r0, {r0, r1, r2, r5, r7, r8, fp, sp}
 80026b0:	bf800000 	svclt	0x00800000
 80026b4:	08002129 	stmdaeq	r0, {r0, r3, r5, r8, sp}
 80026b8:	080029a7 	stmdaeq	r0, {r0, r1, r2, r5, r7, r8, fp, sp}
 80026bc:	fffffffe 			; <UNDEFINED> instruction: 0xfffffffe
 80026c0:	080029fb 	stmdaeq	r0, {r0, r1, r3, r4, r5, r6, r7, r8, fp, sp}
 80026c4:	080026ec 	stmdaeq	r0, {r2, r3, r5, r6, r7, r9, sl, sp}

080026c8 <error1>:
 80026c8:	08002a6d 	stmdaeq	r0, {r0, r2, r3, r5, r6, r9, fp, sp}
 80026cc:	08002d31 	stmdaeq	r0, {r0, r4, r5, r8, sl, fp, sp}
 80026d0:	08002b11 	stmdaeq	r0, {r0, r4, r8, r9, fp, sp}
 80026d4:	080029fb 	stmdaeq	r0, {r0, r1, r3, r4, r5, r6, r7, r8, fp, sp}
 80026d8:	080026ec 	stmdaeq	r0, {r2, r3, r5, r6, r7, r9, sl, sp}

080026dc <error2>:
 80026dc:	08002a6d 	stmdaeq	r0, {r0, r2, r3, r5, r6, r9, fp, sp}
 80026e0:	08002d31 	stmdaeq	r0, {r0, r4, r5, r8, sl, fp, sp}
 80026e4:	08002a59 	stmdaeq	r0, {r0, r3, r4, r6, r9, fp, sp}
 80026e8:	08002d31 	stmdaeq	r0, {r0, r4, r5, r8, sl, fp, sp}

080026ec <restore_base>:
 80026ec:	08002a59 	stmdaeq	r0, {r0, r3, r4, r6, r9, fp, sp}
 80026f0:	08003015 	stmdaeq	r0, {r0, r2, r4, ip, sp}
 80026f4:	08002a19 	stmdaeq	r0, {r0, r3, r4, r9, fp, sp}
 80026f8:	080027e7 	stmdaeq	r0, {r0, r1, r2, r5, r6, r7, r8, r9, sl, sp}

080026fc <pwr10m9>:
 80026fc:	322bcc77 	eorcc	ip, fp, #30464	; 0x7700
 8002700:	33d6bf95 	bicscc	fp, r6, #596	; 0x254
 8002704:	358637bd 	strcc	r3, [r6, #1981]	; 0x7bd
 8002708:	3727c5ac 	strcc	ip, [r7, -ip, lsr #11]!
 800270c:	38d1b717 	ldmcc	r1, {r0, r1, r2, r4, r8, r9, sl, ip, sp, pc}^
 8002710:	3a83126f 	bcc	60c70d4 <FCLK+0x5398d4>
 8002714:	3c23d70a 	stccc	7, cr13, [r3], #-40	; 0xffffffd8
 8002718:	3dcccccd 	stclcc	12, cr12, [ip, #820]	; 0x334
 800271c:	3f800000 	svccc	0x00800000

08002720 <pwr10e0>:
 8002720:	41200000 			; <UNDEFINED> instruction: 0x41200000
 8002724:	42c80000 	sbcmi	r0, r8, #0
 8002728:	447a0000 	ldrbtmi	r0, [sl], #-0
 800272c:	461c4000 	ldrmi	r4, [ip], -r0
 8002730:	47c35000 	strbmi	r5, [r3, r0]
 8002734:	49742400 	ldmdbmi	r4!, {sl, sp}^
 8002738:	4b189680 	blmi	8628140 <OPTKEY1+0x495705>
 800273c:	4cbebc20 	ldcmi	12, cr11, [lr], #128	; 0x80
 8002740:	4e6e6b28 	vmulmi.f64	d22, d14, d24
 8002744:	501502f9 			; <UNDEFINED> instruction: 0x501502f9

08002748 <rounding>:
 8002748:	2cafebff 	fstmiaxcs	pc!, {d14-d140}	;@ Deprecated
 800274c:	2e5be6ff 	mrccs	6, 2, lr, cr11, cr15, {7}
 8002750:	3009705f 	andcc	r7, r9, pc, asr r0
 8002754:	31abcc77 			; <UNDEFINED> instruction: 0x31abcc77
 8002758:	3356bf95 	cmpcc	r6, #596	; 0x254
 800275c:	350637bd 	strcc	r3, [r6, #-1981]	; 0xfffff843
 8002760:	36a7c5ac 	strtcc	ip, [r7], ip, lsr #11
 8002764:	3851b717 	ldmdacc	r1, {r0, r1, r2, r4, r8, r9, sl, ip, sp, pc}^
 8002768:	3a03126f 	bcc	80c712c <FLASH_END+0x4712c>
 800276c:	3ba3d70a 	blcc	68f839c <FCLK+0xd6ab9c>
 8002770:	3d4ccccd 	stclcc	12, cr12, [ip, #-820]	; 0xfffffccc
 8002774:	3f000000 	svccc	0x00000000
 8002778:	08002548 	stmdaeq	r0, {r3, r6, r8, sl, sp}

0800277c <_EDOT>:
 800277c:	002e4502 	eoreq	r4, lr, r2, lsl #10

08002780 <EDOT>:
 8002780:	4750      	bx	sl
 8002782:	bf00      	nop
 8002784:	080027e7 	stmdaeq	r0, {r0, r1, r2, r5, r6, r7, r8, r9, sl, sp}
 8002788:	0800277c 	stmdaeq	r0, {r2, r3, r4, r5, r6, r8, r9, sl, sp}

0800278c <_FDOT>:
 800278c:	002e4602 	eoreq	r4, lr, r2, lsl #12

08002790 <FDOT>:
 8002790:	4750      	bx	sl
 8002792:	bf00      	nop
 8002794:	080029a7 	stmdaeq	r0, {r0, r1, r2, r5, r7, r8, fp, sp}
 8002798:	00000028 	andeq	r0, r0, r8, lsr #32
 800279c:	08002f19 	stmdaeq	r0, {r0, r3, r4, r8, r9, sl, fp, sp}
 80027a0:	08002b31 	stmdaeq	r0, {r0, r4, r5, r8, r9, fp, sp}
 80027a4:	08002b21 	stmdaeq	r0, {r0, r5, r8, r9, fp, sp}
 80027a8:	0800228d 	stmdaeq	r0, {r0, r2, r3, r7, r9, sp}
 80027ac:	080029a7 	stmdaeq	r0, {r0, r1, r2, r5, r7, r8, fp, sp}
 80027b0:	0000001f 	andeq	r0, r0, pc, lsl r0
 80027b4:	080027e7 	stmdaeq	r0, {r0, r1, r2, r5, r6, r7, r8, r9, sl, sp}

080027b8 <itoa>:
 80027b8:	4750      	bx	sl
 80027ba:	bf00      	nop
 80027bc:	08003091 	stmdaeq	r0, {r0, r4, r7, ip, sp}
 80027c0:	08002a19 	stmdaeq	r0, {r0, r3, r4, r9, fp, sp}
 80027c4:	080029a7 	stmdaeq	r0, {r0, r1, r2, r5, r7, r8, fp, sp}
 80027c8:	00000000 	andeq	r0, r0, r0
 80027cc:	080036c5 	stmdaeq	r0, {r0, r2, r6, r7, r9, sl, ip, sp}
 80027d0:	00000001 	andeq	r0, r0, r1
 80027d4:	080027e7 	stmdaeq	r0, {r0, r1, r2, r5, r6, r7, r8, r9, sl, sp}

080027d8 <NEST>:
 80027d8:	f848 cd04 	str.w	ip, [r8, #-4]!
 80027dc:	f105 0c03 	add.w	ip, r5, #3

080027e0 <INEXT>:
 80027e0:	f85c 5b04 	ldr.w	r5, [ip], #4
 80027e4:	4728      	bx	r5

080027e6 <UNNEST>:
 80027e6:	f858 cb04 	ldr.w	ip, [r8], #4
 80027ea:	f85c 5b04 	ldr.w	r5, [ip], #4
 80027ee:	4728      	bx	r5

080027f0 <COMPI_NEST>:
 80027f0:	f104 0144 	add.w	r1, r4, #68	; 0x44
 80027f4:	6809      	ldr	r1, [r1, #0]
 80027f6:	f244 7250 	movw	r2, #18256	; 0x4750
 80027fa:	f821 2b02 	strh.w	r2, [r1], #2
 80027fe:	f44f 423f 	mov.w	r2, #48896	; 0xbf00
 8002802:	f821 2b02 	strh.w	r2, [r1], #2
 8002806:	f104 0244 	add.w	r2, r4, #68	; 0x44
 800280a:	6011      	str	r1, [r2, #0]
 800280c:	e7e8      	b.n	80027e0 <INEXT>

0800280e <TSTDIN>:
 800280e:	f847 6d04 	str.w	r6, [r7, #-4]!
 8002812:	f104 0614 	add.w	r6, r4, #20
 8002816:	e7e3      	b.n	80027e0 <INEXT>

08002818 <TSTDOUT>:
 8002818:	f847 6d04 	str.w	r6, [r7, #-4]!
 800281c:	f104 0618 	add.w	r6, r4, #24
 8002820:	e7de      	b.n	80027e0 <INEXT>
 8002822:	0800278c 	stmdaeq	r0, {r2, r3, r7, r8, r9, sl, sp}

08002826 <_CFSR>:
 8002826:	43544106 	cmpmi	r4, #-2147483647	; 0x80000001
 800282a:	00525346 	subseq	r5, r2, r6, asr #6
 800282e:	bf00      	nop

08002830 <CFSR>:
 8002830:	f44f 406d 	mov.w	r0, #60672	; 0xed00
 8002834:	f2ce 0000 	movt	r0, #57344	; 0xe000
 8002838:	f847 6d04 	str.w	r6, [r7, #-4]!
 800283c:	6a86      	ldr	r6, [r0, #40]	; 0x28
 800283e:	ea81 0101 	eor.w	r1, r1, r1
 8002842:	6281      	str	r1, [r0, #40]	; 0x28
 8002844:	e7cc      	b.n	80027e0 <INEXT>
 8002846:	08002826 	stmdaeq	r0, {r1, r2, r5, fp, sp}

0800284a <_BFAR>:
 800284a:	42544106 	subsmi	r4, r4, #-2147483647	; 0x80000001
 800284e:	00524146 	subseq	r4, r2, r6, asr #2
 8002852:	bf00      	nop

08002854 <BFAR>:
 8002854:	f44f 406d 	mov.w	r0, #60672	; 0xed00
 8002858:	f2ce 0000 	movt	r0, #57344	; 0xe000
 800285c:	f847 6d04 	str.w	r6, [r7, #-4]!
 8002860:	6b86      	ldr	r6, [r0, #56]	; 0x38
 8002862:	ea81 0101 	eor.w	r1, r1, r1
 8002866:	6381      	str	r1, [r0, #56]	; 0x38
 8002868:	e7ba      	b.n	80027e0 <INEXT>
 800286a:	0800284a 	stmdaeq	r0, {r1, r3, r6, fp, sp}

0800286e <_QKEY>:
 800286e:	59454b04 	stmdbpl	r5, {r2, r8, r9, fp, lr}^
 8002872:	 	smmlarmi	r0, pc, r0, r0	; <UNPREDICTABLE>

08002874 <QKEY>:
 8002874:	4750      	bx	sl
 8002876:	bf00      	nop
 8002878:	0800280f 	stmdaeq	r0, {r0, r1, r2, r3, fp, sp}
 800287c:	080034e1 	stmdaeq	r0, {r0, r5, r6, r7, sl, ip, sp}
 8002880:	080027e7 	stmdaeq	r0, {r0, r1, r2, r5, r6, r7, r8, r9, sl, sp}
 8002884:	0800286e 	stmdaeq	r0, {r1, r2, r3, r5, r6, fp, sp}

08002888 <_KEY>:
 8002888:	59454b03 	stmdbpl	r5, {r0, r1, r8, r9, fp, lr}^

0800288c <KEY>:
 800288c:	4750      	bx	sl
 800288e:	bf00      	nop

08002890 <KEY1>:
 8002890:	08001ad1 	stmdaeq	r0, {r0, r4, r6, r7, r9, fp, ip}
 8002894:	08002875 	stmdaeq	r0, {r0, r2, r4, r5, r6, fp, sp}
 8002898:	080029e7 	stmdaeq	r0, {r0, r1, r2, r5, r6, r7, r8, fp, sp}
 800289c:	08002890 	stmdaeq	r0, {r4, r7, fp, sp}
 80028a0:	080027e7 	stmdaeq	r0, {r0, r1, r2, r5, r6, r7, r8, r9, sl, sp}
 80028a4:	08002888 	stmdaeq	r0, {r3, r7, fp, sp}

080028a8 <_EMIT>:
 80028a8:	494d4504 	stmdbmi	sp, {r2, r8, sl, lr}^
 80028ac:	bf000054 	svclt	0x00000054

080028b0 <EMIT>:
 80028b0:	4750      	bx	sl
 80028b2:	bf00      	nop
 80028b4:	08002819 	stmdaeq	r0, {r0, r3, r4, fp, sp}
 80028b8:	080034e1 	stmdaeq	r0, {r0, r5, r6, r7, sl, ip, sp}
 80028bc:	080027e7 	stmdaeq	r0, {r0, r1, r2, r5, r6, r7, r8, r9, sl, sp}
 80028c0:	080028a8 	stmdaeq	r0, {r3, r5, r7, fp, sp}

080028c4 <_RAND>:
 80028c4:	4e415206 	cdpmi	2, 4, cr5, cr1, cr6, {0}
 80028c8:	004d4f44 	subeq	r4, sp, r4, asr #30

080028cc <RAND>:
 80028cc:	4750      	bx	sl
 80028ce:	bf00      	nop
 80028d0:	08002e15 	stmdaeq	r0, {r0, r2, r4, r9, sl, fp, sp}
 80028d4:	08002fbd 	stmdaeq	r0, {r0, r2, r3, r4, r5, r7, r8, r9, sl, fp, sp}
 80028d8:	08002a2d 	stmdaeq	r0, {r0, r2, r3, r5, r9, fp, sp}
 80028dc:	08002b21 	stmdaeq	r0, {r0, r5, r8, r9, fp, sp}
 80028e0:	080029a7 	stmdaeq	r0, {r0, r1, r2, r5, r7, r8, fp, sp}
 80028e4:	0000000d 	andeq	r0, r0, sp
 80028e8:	08002bd5 	stmdaeq	r0, {r0, r2, r4, r6, r7, r8, r9, fp, sp}
 80028ec:	08002b8d 	stmdaeq	r0, {r0, r2, r3, r7, r8, r9, fp, sp}
 80028f0:	08002b21 	stmdaeq	r0, {r0, r5, r8, r9, fp, sp}
 80028f4:	080029a7 	stmdaeq	r0, {r0, r1, r2, r5, r7, r8, fp, sp}
 80028f8:	00000011 	andeq	r0, r0, r1, lsl r0
 80028fc:	08002bbd 	stmdaeq	r0, {r0, r2, r3, r4, r5, r7, r8, r9, fp, sp}
 8002900:	08002b8d 	stmdaeq	r0, {r0, r2, r3, r7, r8, r9, fp, sp}
 8002904:	08002b21 	stmdaeq	r0, {r0, r5, r8, r9, fp, sp}
 8002908:	080029a7 	stmdaeq	r0, {r0, r1, r2, r5, r7, r8, fp, sp}
 800290c:	00000005 	andeq	r0, r0, r5
 8002910:	08002bd5 	stmdaeq	r0, {r0, r2, r4, r6, r7, r8, r9, fp, sp}
 8002914:	08002b8d 	stmdaeq	r0, {r0, r2, r3, r7, r8, r9, fp, sp}
 8002918:	08002b21 	stmdaeq	r0, {r0, r5, r8, r9, fp, sp}
 800291c:	08002fbd 	stmdaeq	r0, {r0, r2, r3, r4, r5, r7, r8, r9, sl, fp, sp}
 8002920:	08002a19 	stmdaeq	r0, {r0, r3, r4, r9, fp, sp}
 8002924:	080029a7 	stmdaeq	r0, {r0, r1, r2, r5, r7, r8, fp, sp}
 8002928:	7fffffff 	svcvc	0x00ffffff
 800292c:	08002b65 	stmdaeq	r0, {r0, r2, r5, r6, r8, r9, fp, sp}
 8002930:	08002b31 	stmdaeq	r0, {r0, r4, r5, r8, r9, fp, sp}
 8002934:	08003365 	stmdaeq	r0, {r0, r2, r5, r6, r8, r9, ip, sp}
 8002938:	080027e7 	stmdaeq	r0, {r0, r1, r2, r5, r6, r7, r8, r9, sl, sp}
 800293c:	080028c4 	stmdaeq	r0, {r2, r6, r7, fp, sp}

08002940 <_PAUSE>:
 8002940:	55415005 	strbpl	r5, [r1, #-5]
 8002944:	bf004553 	svclt	0x00004553

08002948 <PAUSE>:
 8002948:	4750      	bx	sl
 800294a:	bf00      	nop
 800294c:	08002fe5 	stmdaeq	r0, {r0, r2, r5, r6, r7, r8, r9, sl, fp, sp}
 8002950:	08002a19 	stmdaeq	r0, {r0, r3, r4, r9, fp, sp}

08002954 <PAUSE_LOOP>:
 8002954:	08002fe5 	stmdaeq	r0, {r0, r2, r5, r6, r7, r8, r9, sl, fp, sp}
 8002958:	08002a2d 	stmdaeq	r0, {r0, r2, r3, r5, r9, fp, sp}
 800295c:	080029e7 	stmdaeq	r0, {r0, r1, r2, r5, r6, r7, r8, fp, sp}
 8002960:	0800296c 	stmdaeq	r0, {r2, r3, r5, r6, r8, fp, sp}
 8002964:	080029fb 	stmdaeq	r0, {r0, r1, r3, r4, r5, r6, r7, r8, fp, sp}
 8002968:	08002954 	stmdaeq	r0, {r2, r4, r6, r8, fp, sp}

0800296c <PAUSE_EXIT>:
 800296c:	080027e7 	stmdaeq	r0, {r0, r1, r2, r5, r6, r7, r8, r9, sl, sp}
 8002970:	08002940 	stmdaeq	r0, {r6, r8, fp, sp}

08002974 <_ULED>:
 8002974:	454c5504 	strbmi	r5, [ip, #-1284]	; 0xfffffafc
 8002978:	bf000044 	svclt	0x00000044

0800297c <ULED>:
 800297c:	f44f 5000 	mov.w	r0, #8192	; 0x2000
 8002980:	f44f 6100 	mov.w	r1, #2048	; 0x800
 8002984:	f2c4 0102 	movt	r1, #16386	; 0x4002
 8002988:	0036      	movs	r6, r6
 800298a:	f857 6b04 	ldr.w	r6, [r7], #4
 800298e:	d003      	beq.n	8002998 <ULED_OFF>
 8002990:	ea4f 4000 	mov.w	r0, r0, lsl #16
 8002994:	6188      	str	r0, [r1, #24]
 8002996:	e723      	b.n	80027e0 <INEXT>

08002998 <ULED_OFF>:
 8002998:	6188      	str	r0, [r1, #24]
 800299a:	e721      	b.n	80027e0 <INEXT>
 800299c:	08002974 	stmdaeq	r0, {r2, r4, r5, r6, r8, fp, sp}

080029a0 <_NOP>:
 80029a0:	504f4e03 	subpl	r4, pc, r3, lsl #28

080029a4 <NOP>:
 80029a4:	e71c      	b.n	80027e0 <INEXT>

080029a6 <DOLIT>:
 80029a6:	f847 6d04 	str.w	r6, [r7, #-4]!
 80029aa:	f85c 6b04 	ldr.w	r6, [ip], #4
 80029ae:	e717      	b.n	80027e0 <INEXT>
 80029b0:	080029a0 	stmdaeq	r0, {r5, r7, r8, fp, sp}

080029b4 <_EXECU>:
 80029b4:	45584507 	ldrbmi	r4, [r8, #-1287]	; 0xfffffaf9
 80029b8:	45545543 	ldrbmi	r5, [r4, #-1347]	; 0xfffffabd

080029bc <EXECU>:
 80029bc:	f046 0501 	orr.w	r5, r6, #1
 80029c0:	f857 6b04 	ldr.w	r6, [r7], #4
 80029c4:	4728      	bx	r5
 80029c6:	e70b      	b.n	80027e0 <INEXT>

080029c8 <DONXT>:
 80029c8:	f8d8 2000 	ldr.w	r2, [r8]
 80029cc:	b922      	cbnz	r2, 80029d8 <NEXT1>
 80029ce:	f108 0804 	add.w	r8, r8, #4
 80029d2:	f10c 0c04 	add.w	ip, ip, #4
 80029d6:	e703      	b.n	80027e0 <INEXT>

080029d8 <NEXT1>:
 80029d8:	f1a2 0201 	sub.w	r2, r2, #1
 80029dc:	f8c8 2000 	str.w	r2, [r8]
 80029e0:	f8dc c000 	ldr.w	ip, [ip]
 80029e4:	e6fc      	b.n	80027e0 <INEXT>

080029e6 <QBRAN>:
 80029e6:	0036      	movs	r6, r6
 80029e8:	f857 6b04 	ldr.w	r6, [r7], #4
 80029ec:	d102      	bne.n	80029f4 <QBRAN1>
 80029ee:	f8dc c000 	ldr.w	ip, [ip]
 80029f2:	e6f5      	b.n	80027e0 <INEXT>

080029f4 <QBRAN1>:
 80029f4:	f10c 0c04 	add.w	ip, ip, #4
 80029f8:	e6f2      	b.n	80027e0 <INEXT>

080029fa <BRAN>:
 80029fa:	f8dc c000 	ldr.w	ip, [ip]
 80029fe:	e6ef      	b.n	80027e0 <INEXT>
 8002a00:	080029b4 	stmdaeq	r0, {r2, r4, r5, r7, r8, fp, sp}

08002a04 <_EXIT>:
 8002a04:	49584504 	ldmdbmi	r8, {r2, r8, sl, lr}^
 8002a08:	bf000054 	svclt	0x00000054

08002a0c <EXIT>:
 8002a0c:	080027e7 	stmdaeq	r0, {r0, r1, r2, r5, r6, r7, r8, r9, sl, sp}
 8002a10:	08002a04 	stmdaeq	r0, {r2, r9, fp, sp}

08002a14 <_STORE>:
 8002a14:	bf002101 	svclt	0x00002101

08002a18 <STORE>:
 8002a18:	f857 5b04 	ldr.w	r5, [r7], #4
 8002a1c:	6035      	str	r5, [r6, #0]
 8002a1e:	f857 6b04 	ldr.w	r6, [r7], #4
 8002a22:	e6dd      	b.n	80027e0 <INEXT>
 8002a24:	08002a14 	stmdaeq	r0, {r2, r4, r9, fp, sp}

08002a28 <_AT>:
 8002a28:	bf004001 	svclt	0x00004001

08002a2c <AT>:
 8002a2c:	6836      	ldr	r6, [r6, #0]
 8002a2e:	e6d7      	b.n	80027e0 <INEXT>
 8002a30:	08002a28 	stmdaeq	r0, {r3, r5, r9, fp, sp}

08002a34 <_CSTOR>:
 8002a34:	00214302 	eoreq	r4, r1, r2, lsl #6

08002a38 <CSTOR>:
 8002a38:	f857 5b04 	ldr.w	r5, [r7], #4
 8002a3c:	7035      	strb	r5, [r6, #0]
 8002a3e:	f857 6b04 	ldr.w	r6, [r7], #4
 8002a42:	e6cd      	b.n	80027e0 <INEXT>
 8002a44:	08002a34 	stmdaeq	r0, {r2, r4, r5, r9, fp, sp}

08002a48 <_CAT>:
 8002a48:	00404302 	subeq	r4, r0, r2, lsl #6

08002a4c <CAT>:
 8002a4c:	7836      	ldrb	r6, [r6, #0]
 8002a4e:	e6c7      	b.n	80027e0 <INEXT>
 8002a50:	08002a48 	stmdaeq	r0, {r3, r6, r9, fp, sp}

08002a54 <_RFROM>:
 8002a54:	003e5202 	eorseq	r5, lr, r2, lsl #4

08002a58 <RFROM>:
 8002a58:	f847 6d04 	str.w	r6, [r7, #-4]!
 8002a5c:	f858 6b04 	ldr.w	r6, [r8], #4
 8002a60:	e6be      	b.n	80027e0 <INEXT>
 8002a62:	08002a54 	stmdaeq	r0, {r2, r4, r6, r9, fp, sp}

08002a66 <_DRFROM>:
 8002a66:	3e523203 	cdpcc	2, 5, cr3, cr2, cr3, {0}
 8002a6a:	bf00      	nop

08002a6c <DRFROM>:
 8002a6c:	f847 6d04 	str.w	r6, [r7, #-4]!
 8002a70:	f858 6b04 	ldr.w	r6, [r8], #4
 8002a74:	f847 6d04 	str.w	r6, [r7, #-4]!
 8002a78:	f858 6b04 	ldr.w	r6, [r8], #4
 8002a7c:	e6b0      	b.n	80027e0 <INEXT>
 8002a7e:	08002a66 	stmdaeq	r0, {r1, r2, r5, r6, r9, fp, sp}

08002a82 <_RAT>:
 8002a82:	00405202 	subeq	r5, r0, r2, lsl #4
 8002a86:	bf00      	nop

08002a88 <RAT>:
 8002a88:	f847 6d04 	str.w	r6, [r7, #-4]!
 8002a8c:	f8d8 6000 	ldr.w	r6, [r8]
 8002a90:	e6a6      	b.n	80027e0 <INEXT>
 8002a92:	08002a82 	stmdaeq	r0, {r1, r7, r9, fp, sp}

08002a96 <_TOR>:
 8002a96:	00523e02 	subseq	r3, r2, r2, lsl #28
 8002a9a:	bf00      	nop

08002a9c <TOR>:
 8002a9c:	f848 6d04 	str.w	r6, [r8, #-4]!
 8002aa0:	f857 6b04 	ldr.w	r6, [r7], #4
 8002aa4:	e69c      	b.n	80027e0 <INEXT>
 8002aa6:	08002a96 	stmdaeq	r0, {r1, r2, r4, r7, r9, fp, sp}

08002aaa <_DTOR>:
 8002aaa:	523e3203 	eorspl	r3, lr, #805306368	; 0x30000000
 8002aae:	bf00      	nop

08002ab0 <DTOR>:
 8002ab0:	f848 6d04 	str.w	r6, [r8, #-4]!
 8002ab4:	f857 6b04 	ldr.w	r6, [r7], #4
 8002ab8:	f848 6d04 	str.w	r6, [r8, #-4]!
 8002abc:	f857 6b04 	ldr.w	r6, [r7], #4
 8002ac0:	e68e      	b.n	80027e0 <INEXT>
 8002ac2:	08002aaa 	stmdaeq	r0, {r1, r3, r5, r7, r9, fp, sp}

08002ac6 <_RPSTOR>:
 8002ac6:	21505203 	cmpcs	r0, r3, lsl #4
 8002aca:	bf00      	nop

08002acc <RPSTOR>:
 8002acc:	46b0      	mov	r8, r6
 8002ace:	f857 6b04 	ldr.w	r6, [r7], #4
 8002ad2:	e685      	b.n	80027e0 <INEXT>
 8002ad4:	08002ac6 	stmdaeq	r0, {r1, r2, r6, r7, r9, fp, sp}

08002ad8 <_SPSTOR>:
 8002ad8:	21505303 	cmpcs	r0, r3, lsl #6

08002adc <SPSTOR>:
 8002adc:	4637      	mov	r7, r6
 8002ade:	ea86 0606 	eor.w	r6, r6, r6
 8002ae2:	e67d      	b.n	80027e0 <INEXT>
 8002ae4:	08002ad8 	stmdaeq	r0, {r3, r4, r6, r7, r9, fp, sp}

08002ae8 <_SPAT>:
 8002ae8:	40505303 	subsmi	r5, r0, r3, lsl #6

08002aec <SPAT>:
 8002aec:	f847 6d04 	str.w	r6, [r7, #-4]!
 8002af0:	463e      	mov	r6, r7
 8002af2:	e675      	b.n	80027e0 <INEXT>
 8002af4:	08002ae8 	stmdaeq	r0, {r3, r5, r6, r7, r9, fp, sp}

08002af8 <_RPAT>:
 8002af8:	40505203 	subsmi	r5, r0, r3, lsl #4

08002afc <RPAT>:
 8002afc:	f847 6d04 	str.w	r6, [r7, #-4]!
 8002b00:	4646      	mov	r6, r8
 8002b02:	e66d      	b.n	80027e0 <INEXT>
 8002b04:	08002af8 	stmdaeq	r0, {r3, r4, r5, r6, r7, r9, fp, sp}

08002b08 <_DROP>:
 8002b08:	4f524404 	svcmi	0x00524404
 8002b0c:	bf000050 	svclt	0x00000050

08002b10 <DROP>:
 8002b10:	f857 6b04 	ldr.w	r6, [r7], #4
 8002b14:	e664      	b.n	80027e0 <INEXT>
 8002b16:	08002b08 	stmdaeq	r0, {r3, r8, r9, fp, sp}

08002b1a <_DUPP>:
 8002b1a:	50554403 	subspl	r4, r5, r3, lsl #8
 8002b1e:	bf00      	nop

08002b20 <DUPP>:
 8002b20:	f847 6d04 	str.w	r6, [r7, #-4]!
 8002b24:	e65c      	b.n	80027e0 <INEXT>
 8002b26:	08002b1a 	stmdaeq	r0, {r1, r3, r4, r8, r9, fp, sp}

08002b2a <_SWAP>:
 8002b2a:	41575304 	cmpmi	r7, r4, lsl #6
 8002b2e:	 	ldmdavs	sp!, {r4, r6}

08002b30 <SWAP>:
 8002b30:	683d      	ldr	r5, [r7, #0]
 8002b32:	603e      	str	r6, [r7, #0]
 8002b34:	462e      	mov	r6, r5
 8002b36:	e653      	b.n	80027e0 <INEXT>
 8002b38:	08002b2a 	stmdaeq	r0, {r1, r3, r5, r8, r9, fp, sp}

08002b3c <_OVER>:
 8002b3c:	45564f04 	ldrbmi	r4, [r6, #-3844]	; 0xfffff0fc
 8002b40:	bf000052 	svclt	0x00000052

08002b44 <OVER>:
 8002b44:	f847 6d04 	str.w	r6, [r7, #-4]!
 8002b48:	687e      	ldr	r6, [r7, #4]
 8002b4a:	e649      	b.n	80027e0 <INEXT>
 8002b4c:	08002b3c 	stmdaeq	r0, {r2, r3, r4, r5, r8, r9, fp, sp}

08002b50 <_ZLESS>:
 8002b50:	003c3002 	eorseq	r3, ip, r2

08002b54 <ZLESS>:
 8002b54:	ea4f 76e6 	mov.w	r6, r6, asr #31
 8002b58:	e642      	b.n	80027e0 <INEXT>
 8002b5a:	08002b50 	stmdaeq	r0, {r4, r6, r8, r9, fp, sp}

08002b5e <_ANDD>:
 8002b5e:	444e4103 	strbmi	r4, [lr], #-259	; 0xfffffefd
 8002b62:	bf00      	nop

08002b64 <ANDD>:
 8002b64:	f857 5b04 	ldr.w	r5, [r7], #4
 8002b68:	ea06 0605 	and.w	r6, r6, r5
 8002b6c:	e638      	b.n	80027e0 <INEXT>
 8002b6e:	08002b5e 	stmdaeq	r0, {r1, r2, r3, r4, r6, r8, r9, fp, sp}

08002b72 <_ORR>:
 8002b72:	00524f02 	subseq	r4, r2, r2, lsl #30
 8002b76:	bf00      	nop

08002b78 <ORR>:
 8002b78:	f857 5b04 	ldr.w	r5, [r7], #4
 8002b7c:	ea46 0605 	orr.w	r6, r6, r5
 8002b80:	e62e      	b.n	80027e0 <INEXT>
 8002b82:	08002b72 	stmdaeq	r0, {r1, r4, r5, r6, r8, r9, fp, sp}

08002b86 <_XORR>:
 8002b86:	524f5803 	subpl	r5, pc, #196608	; 0x30000
 8002b8a:	bf00      	nop

08002b8c <XORR>:
 8002b8c:	f857 5b04 	ldr.w	r5, [r7], #4
 8002b90:	ea86 0605 	eor.w	r6, r6, r5
 8002b94:	e624      	b.n	80027e0 <INEXT>
 8002b96:	08002b86 	stmdaeq	r0, {r1, r2, r7, r8, r9, fp, sp}

08002b9a <_UPLUS>:
 8002b9a:	2b4d5503 	blcs	9357fae <OPTKEY1+0x11c5573>
 8002b9e:	bf00      	nop

08002ba0 <UPLUS>:
 8002ba0:	683d      	ldr	r5, [r7, #0]
 8002ba2:	19ad      	adds	r5, r5, r6
 8002ba4:	f04f 0600 	mov.w	r6, #0
 8002ba8:	f146 0600 	adc.w	r6, r6, #0
 8002bac:	603d      	str	r5, [r7, #0]
 8002bae:	e617      	b.n	80027e0 <INEXT>
 8002bb0:	08002b9a 	stmdaeq	r0, {r1, r3, r4, r7, r8, r9, fp, sp}

08002bb4 <_RSHIFT>:
 8002bb4:	48535206 	ldmdami	r3, {r1, r2, r9, ip, lr}^
 8002bb8:	00544649 	subseq	r4, r4, r9, asr #12

08002bbc <RSHIFT>:
 8002bbc:	f857 5b04 	ldr.w	r5, [r7], #4
 8002bc0:	fa45 f606 	asr.w	r6, r5, r6
 8002bc4:	e60c      	b.n	80027e0 <INEXT>
 8002bc6:	08002bb4 	stmdaeq	r0, {r2, r4, r5, r7, r8, r9, fp, sp}

08002bca <_LSHIFT>:
 8002bca:	48534c06 	ldmdami	r3, {r1, r2, sl, fp, lr}^
 8002bce:	00544649 	subseq	r4, r4, r9, asr #12
 8002bd2:	bf00      	nop

08002bd4 <LSHIFT>:
 8002bd4:	f857 5b04 	ldr.w	r5, [r7], #4
 8002bd8:	fa05 f606 	lsl.w	r6, r5, r6
 8002bdc:	e600      	b.n	80027e0 <INEXT>
 8002bde:	08002bca 	stmdaeq	r0, {r1, r3, r6, r7, r8, r9, fp, sp}

08002be2 <_PLUS>:
 8002be2:	 			; <UNDEFINED> instruction: 0xf8572b01

08002be4 <PLUS>:
 8002be4:	f857 5b04 	ldr.w	r5, [r7], #4
 8002be8:	442e      	add	r6, r5
 8002bea:	e5f9      	b.n	80027e0 <INEXT>
 8002bec:	08002be2 	stmdaeq	r0, {r1, r5, r6, r7, r8, r9, fp, sp}

08002bf0 <_SUBB>:
 8002bf0:	bf002d01 	svclt	0x00002d01

08002bf4 <SUBB>:
 8002bf4:	f857 5b04 	ldr.w	r5, [r7], #4
 8002bf8:	ebc6 0605 	rsb	r6, r6, r5
 8002bfc:	e5f0      	b.n	80027e0 <INEXT>
 8002bfe:	08002bf0 	stmdaeq	r0, {r4, r5, r6, r7, r8, r9, fp, sp}

08002c02 <_STAR>:
 8002c02:	 			; <UNDEFINED> instruction: 0xf8572a01

08002c04 <STAR>:
 8002c04:	f857 5b04 	ldr.w	r5, [r7], #4
 8002c08:	fb05 f606 	mul.w	r6, r5, r6
 8002c0c:	e5e8      	b.n	80027e0 <INEXT>
 8002c0e:	08002c02 	stmdaeq	r0, {r1, sl, fp, sp}

08002c12 <_UMSTA>:
 8002c12:	2a4d5503 	bcs	9358026 <OPTKEY1+0x11c55eb>
 8002c16:	bf00      	nop

08002c18 <UMSTA>:
 8002c18:	683d      	ldr	r5, [r7, #0]
 8002c1a:	fba6 2305 	umull	r2, r3, r6, r5
 8002c1e:	603a      	str	r2, [r7, #0]
 8002c20:	461e      	mov	r6, r3
 8002c22:	e5dd      	b.n	80027e0 <INEXT>
 8002c24:	08002c12 	stmdaeq	r0, {r1, r4, sl, fp, sp}

08002c28 <_MSTAR>:
 8002c28:	002a4d02 	eoreq	r4, sl, r2, lsl #26

08002c2c <MSTAR>:
 8002c2c:	683d      	ldr	r5, [r7, #0]
 8002c2e:	fb86 2305 	smull	r2, r3, r6, r5
 8002c32:	603a      	str	r2, [r7, #0]
 8002c34:	461e      	mov	r6, r3
 8002c36:	e5d3      	b.n	80027e0 <INEXT>
 8002c38:	08002c28 	stmdaeq	r0, {r3, r5, sl, fp, sp}

08002c3c <_ONEP>:
 8002c3c:	002b3102 	eoreq	r3, fp, r2, lsl #2

08002c40 <ONEP>:
 8002c40:	f106 0601 	add.w	r6, r6, #1
 8002c44:	e5cc      	b.n	80027e0 <INEXT>
 8002c46:	08002c3c 	stmdaeq	r0, {r2, r3, r4, r5, sl, fp, sp}

08002c4a <_ONEM>:
 8002c4a:	002d3102 	eoreq	r3, sp, r2, lsl #2
 8002c4e:	bf00      	nop

08002c50 <ONEM>:
 8002c50:	f1a6 0601 	sub.w	r6, r6, #1
 8002c54:	e5c4      	b.n	80027e0 <INEXT>
 8002c56:	08002c4a 	stmdaeq	r0, {r1, r3, r6, sl, fp, sp}

08002c5a <_TWOP>:
 8002c5a:	002b3202 	eoreq	r3, fp, r2, lsl #4
 8002c5e:	bf00      	nop

08002c60 <TWOP>:
 8002c60:	f106 0602 	add.w	r6, r6, #2
 8002c64:	e5bc      	b.n	80027e0 <INEXT>
 8002c66:	08002c5a 	stmdaeq	r0, {r1, r3, r4, r6, sl, fp, sp}

08002c6a <_TWOM>:
 8002c6a:	002d3202 	eoreq	r3, sp, r2, lsl #4
 8002c6e:	bf00      	nop

08002c70 <TWOM>:
 8002c70:	f1a6 0602 	sub.w	r6, r6, #2
 8002c74:	e5b4      	b.n	80027e0 <INEXT>
 8002c76:	08002c6a 	stmdaeq	r0, {r1, r3, r5, r6, sl, fp, sp}

08002c7a <_CELLP>:
 8002c7a:	4c454305 	mcrrmi	3, 0, r4, r5, cr5
 8002c7e:	 			; <UNDEFINED> instruction: 0xf1062b4c

08002c80 <CELLP>:
 8002c80:	f106 0604 	add.w	r6, r6, #4
 8002c84:	e5ac      	b.n	80027e0 <INEXT>
 8002c86:	08002c7a 	stmdaeq	r0, {r1, r3, r4, r5, r6, sl, fp, sp}

08002c8a <_CELLM>:
 8002c8a:	4c454305 	mcrrmi	3, 0, r4, r5, cr5
 8002c8e:	 			; <UNDEFINED> instruction: 0xf1a62d4c

08002c90 <CELLM>:
 8002c90:	f1a6 0604 	sub.w	r6, r6, #4
 8002c94:	e5a4      	b.n	80027e0 <INEXT>
 8002c96:	08002c8a 	stmdaeq	r0, {r1, r3, r7, sl, fp, sp}

08002c9a <_BLANK>:
 8002c9a:	004c4202 	subeq	r4, ip, r2, lsl #4
 8002c9e:	bf00      	nop

08002ca0 <BLANK>:
 8002ca0:	f847 6d04 	str.w	r6, [r7, #-4]!
 8002ca4:	f04f 0620 	mov.w	r6, #32
 8002ca8:	e59a      	b.n	80027e0 <INEXT>
 8002caa:	08002c9a 	stmdaeq	r0, {r1, r3, r4, r7, sl, fp, sp}

08002cae <_CELLS>:
 8002cae:	4c454305 	mcrrmi	3, 0, r4, r5, cr5
 8002cb2:	 	b	93d79ea <OPTKEY1+0x1244faf>

08002cb4 <CELLS>:
 8002cb4:	ea4f 0686 	mov.w	r6, r6, lsl #2
 8002cb8:	e592      	b.n	80027e0 <INEXT>
 8002cba:	08002cae 	stmdaeq	r0, {r1, r2, r3, r5, r7, sl, fp, sp}

08002cbe <_CELLSL>:
 8002cbe:	4c454305 	mcrrmi	3, 0, r4, r5, cr5
 8002cc2:	 	b	93ce9fa <OPTKEY1+0x123bfbf>

08002cc4 <CELLSL>:
 8002cc4:	ea4f 06a6 	mov.w	r6, r6, asr #2
 8002cc8:	e58a      	b.n	80027e0 <INEXT>
 8002cca:	08002cbe 	stmdaeq	r0, {r1, r2, r3, r4, r5, r7, sl, fp, sp}

08002cce <_TWOST>:
 8002cce:	002a3202 	eoreq	r3, sl, r2, lsl #4
 8002cd2:	bf00      	nop

08002cd4 <TWOST>:
 8002cd4:	ea4f 0646 	mov.w	r6, r6, lsl #1
 8002cd8:	e582      	b.n	80027e0 <INEXT>
 8002cda:	08002cce 	stmdaeq	r0, {r1, r2, r3, r6, r7, sl, fp, sp}

08002cde <_TWOSL>:
 8002cde:	002f3202 	eoreq	r3, pc, r2, lsl #4
 8002ce2:	bf00      	nop

08002ce4 <TWOSL>:
 8002ce4:	ea4f 0666 	mov.w	r6, r6, asr #1
 8002ce8:	e57a      	b.n	80027e0 <INEXT>
 8002cea:	08002cde 	stmdaeq	r0, {r1, r2, r3, r4, r6, r7, sl, fp, sp}

08002cee <_QDUP>:
 8002cee:	55443f04 	strbpl	r3, [r4, #-3844]	; 0xfffff0fc
 8002cf2:	 	eorseq	r0, r5, r0, asr r0

08002cf4 <QDUP>:
 8002cf4:	0035      	movs	r5, r6
 8002cf6:	bf18      	it	ne
 8002cf8:	f847 6d04 	strne.w	r6, [r7, #-4]!
 8002cfc:	e570      	b.n	80027e0 <INEXT>
 8002cfe:	08002cee 	stmdaeq	r0, {r1, r2, r3, r5, r6, r7, sl, fp, sp}

08002d02 <_ROT>:
 8002d02:	544f5203 	strbpl	r5, [pc], #-515	; 8002d0a <ROT+0x2>
 8002d06:	bf00      	nop

08002d08 <ROT>:
 8002d08:	6838      	ldr	r0, [r7, #0]
 8002d0a:	603e      	str	r6, [r7, #0]
 8002d0c:	687e      	ldr	r6, [r7, #4]
 8002d0e:	6078      	str	r0, [r7, #4]
 8002d10:	e566      	b.n	80027e0 <INEXT>
 8002d12:	08002d02 	stmdaeq	r0, {r1, r8, sl, fp, sp}

08002d16 <_NROT>:
 8002d16:	4f522d04 	svcmi	0x00522d04
 8002d1a:	 	ldmdavs	r8!, {r2, r4, r6}^

08002d1c <NROT>:
 8002d1c:	6878      	ldr	r0, [r7, #4]
 8002d1e:	607e      	str	r6, [r7, #4]
 8002d20:	683e      	ldr	r6, [r7, #0]
 8002d22:	6038      	str	r0, [r7, #0]
 8002d24:	e55c      	b.n	80027e0 <INEXT>
 8002d26:	08002d16 	stmdaeq	r0, {r1, r2, r4, r8, sl, fp, sp}

08002d2a <_DDROP>:
 8002d2a:	52443205 	subpl	r3, r4, #1342177280	; 0x50000000
 8002d2e:	 			; <UNDEFINED> instruction: 0xf857504f

08002d30 <DDROP>:
 8002d30:	f857 6b04 	ldr.w	r6, [r7], #4
 8002d34:	f857 6b04 	ldr.w	r6, [r7], #4
 8002d38:	e552      	b.n	80027e0 <INEXT>
 8002d3a:	08002d2a 	stmdaeq	r0, {r1, r3, r5, r8, sl, fp, sp}

08002d3e <_TDROP>:
 8002d3e:	52443305 	subpl	r3, r4, #335544320	; 0x14000000
 8002d42:	 			; <UNDEFINED> instruction: 0xf107504f

08002d44 <TDROP>:
 8002d44:	f107 0708 	add.w	r7, r7, #8
 8002d48:	f857 6b04 	ldr.w	r6, [r7], #4
 8002d4c:	e548      	b.n	80027e0 <INEXT>
 8002d4e:	08002d3e 	stmdaeq	r0, {r1, r2, r3, r4, r5, r8, sl, fp, sp}

08002d52 <_DDUP>:
 8002d52:	55443204 	strbpl	r3, [r4, #-516]	; 0xfffffdfc
 8002d56:	 	ldmdavs	r8!, {r4, r6}

08002d58 <DDUP>:
 8002d58:	6838      	ldr	r0, [r7, #0]
 8002d5a:	f847 6d04 	str.w	r6, [r7, #-4]!
 8002d5e:	f847 0d04 	str.w	r0, [r7, #-4]!
 8002d62:	e53d      	b.n	80027e0 <INEXT>
 8002d64:	08002d52 	stmdaeq	r0, {r1, r4, r6, r8, sl, fp, sp}

08002d68 <_DPLUS>:
 8002d68:	002b4402 	eoreq	r4, fp, r2, lsl #8

08002d6c <DPLUS>:
 8002d6c:	f857 5b04 	ldr.w	r5, [r7], #4
 8002d70:	f857 2b04 	ldr.w	r2, [r7], #4
 8002d74:	683b      	ldr	r3, [r7, #0]
 8002d76:	18ed      	adds	r5, r5, r3
 8002d78:	603d      	str	r5, [r7, #0]
 8002d7a:	eb46 0602 	adc.w	r6, r6, r2
 8002d7e:	e52f      	b.n	80027e0 <INEXT>
 8002d80:	08002d68 	stmdaeq	r0, {r3, r5, r6, r8, sl, fp, sp}

08002d84 <_DABS>:
 8002d84:	42414404 	submi	r4, r1, #4, 8	; 0x4000000
 8002d88:	bf000053 	svclt	0x00000053

08002d8c <DABS>:
 8002d8c:	f016 4f00 	tst.w	r6, #2147483648	; 0x80000000
 8002d90:	d009      	beq.n	8002da6 <DABS+0x1a>
 8002d92:	ea6f 0606 	mvn.w	r6, r6
 8002d96:	683d      	ldr	r5, [r7, #0]
 8002d98:	ea6f 0505 	mvn.w	r5, r5
 8002d9c:	3501      	adds	r5, #1
 8002d9e:	603d      	str	r5, [r7, #0]
 8002da0:	d301      	bcc.n	8002da6 <DABS+0x1a>
 8002da2:	f106 0601 	add.w	r6, r6, #1
 8002da6:	e51b      	b.n	80027e0 <INEXT>
 8002da8:	08002d84 	stmdaeq	r0, {r2, r7, r8, sl, fp, sp}

08002dac <_UDGREAT>:
 8002dac:	3e445503 	cdpcc	5, 4, cr5, cr4, cr3, {0}

08002db0 <UDGREAT>:
 8002db0:	f857 5b04 	ldr.w	r5, [r7], #4
 8002db4:	cf03      	ldmia	r7!, {r0, r1}
 8002db6:	42b0      	cmp	r0, r6
 8002db8:	d802      	bhi.n	8002dc0 <UDGREAT+0x10>
 8002dba:	d404      	bmi.n	8002dc6 <UDGREAT+0x16>
 8002dbc:	42a9      	cmp	r1, r5
 8002dbe:	d902      	bls.n	8002dc6 <UDGREAT+0x16>
 8002dc0:	f04f 36ff 	mov.w	r6, #4294967295	; 0xffffffff
 8002dc4:	e50c      	b.n	80027e0 <INEXT>
 8002dc6:	f04f 0600 	mov.w	r6, #0
 8002dca:	e509      	b.n	80027e0 <INEXT>
 8002dcc:	08002dac 	stmdaeq	r0, {r2, r3, r5, r7, r8, sl, fp, sp}

08002dd0 <_DZEQUAL>:
 8002dd0:	3d304403 	cfldrscc	mvf4, [r0, #-12]!

08002dd4 <DZEQUAL>:
 8002dd4:	4630      	mov	r0, r6
 8002dd6:	f857 6b04 	ldr.w	r6, [r7], #4
 8002dda:	ea46 0600 	orr.w	r6, r6, r0
 8002dde:	d001      	beq.n	8002de4 <DZEQUAL+0x10>
 8002de0:	f06f 0600 	mvn.w	r6, #0
 8002de4:	e4fc      	b.n	80027e0 <INEXT>
 8002de6:	08002dd0 	stmdaeq	r0, {r4, r6, r7, r8, sl, fp, sp}

08002dea <_INVER>:
 8002dea:	544f4e03 	strbpl	r4, [pc], #-3587	; 8002df2 <INVER+0x2>
 8002dee:	bf00      	nop

08002df0 <INVER>:
 8002df0:	ea6f 0606 	mvn.w	r6, r6
 8002df4:	e4f4      	b.n	80027e0 <INEXT>
 8002df6:	08002dea 	stmdaeq	r0, {r1, r3, r5, r6, r7, r8, sl, fp, sp}

08002dfa <_NEGAT>:
 8002dfa:	47454e06 	strbmi	r4, [r5, -r6, lsl #28]
 8002dfe:	00455441 	subeq	r5, r5, r1, asr #8
 8002e02:	bf00      	nop

08002e04 <NEGAT>:
 8002e04:	f1c6 0600 	rsb	r6, r6, #0
 8002e08:	e4ea      	b.n	80027e0 <INEXT>
 8002e0a:	08002dfa 	stmdaeq	r0, {r1, r3, r4, r5, r6, r7, r8, sl, fp, sp}

08002e0e <_ABSS>:
 8002e0e:	53424103 	movtpl	r4, #8451	; 0x2103
 8002e12:	bf00      	nop

08002e14 <ABSS>:
 8002e14:	f016 4f00 	tst.w	r6, #2147483648	; 0x80000000
 8002e18:	bf18      	it	ne
 8002e1a:	4276      	negne	r6, r6
 8002e1c:	e4e0      	b.n	80027e0 <INEXT>
 8002e1e:	08002e0e 	stmdaeq	r0, {r1, r2, r3, r9, sl, fp, sp}

08002e22 <_CLZ>:
 8002e22:	5a4c4303 	bpl	9313a36 <OPTKEY1+0x1180ffb>
 8002e26:	bf00      	nop

08002e28 <CLZ>:
 8002e28:	fab6 f686 	clz	r6, r6
 8002e2c:	e4d8      	b.n	80027e0 <INEXT>
 8002e2e:	08002e22 	stmdaeq	r0, {r1, r5, r9, sl, fp, sp}

08002e32 <_CTZ>:
 8002e32:	5a544303 	bpl	9513a46 <OPTKEY1+0x138100b>
 8002e36:	bf00      	nop

08002e38 <CTZ>:
 8002e38:	ea80 0000 	eor.w	r0, r0, r0
 8002e3c:	f016 0f01 	tst.w	r6, #1
 8002e40:	d104      	bne.n	8002e4c <CTZ+0x14>
 8002e42:	ea4f 0656 	mov.w	r6, r6, lsr #1
 8002e46:	f100 0001 	add.w	r0, r0, #1
 8002e4a:	e7f7      	b.n	8002e3c <CTZ+0x4>
 8002e4c:	4606      	mov	r6, r0
 8002e4e:	e4c7      	b.n	80027e0 <INEXT>
 8002e50:	08002e32 	stmdaeq	r0, {r1, r4, r5, r9, sl, fp, sp}

08002e54 <_ZEQUAL>:
 8002e54:	003d3002 	eorseq	r3, sp, r2

08002e58 <ZEQUAL>:
 8002e58:	b916      	cbnz	r6, 8002e60 <ZEQUAL+0x8>
 8002e5a:	f04f 36ff 	mov.w	r6, #4294967295	; 0xffffffff
 8002e5e:	e4bf      	b.n	80027e0 <INEXT>
 8002e60:	ea86 0606 	eor.w	r6, r6, r6
 8002e64:	e4bc      	b.n	80027e0 <INEXT>
 8002e66:	08002e54 	stmdaeq	r0, {r2, r4, r6, r9, sl, fp, sp}

08002e6a <_EQUAL>:
 8002e6a:	 			; <UNDEFINED> instruction: 0xf8573d01

08002e6c <EQUAL>:
 8002e6c:	f857 5b04 	ldr.w	r5, [r7], #4
 8002e70:	42ae      	cmp	r6, r5
 8002e72:	bf0c      	ite	eq
 8002e74:	f06f 0600 	mvneq.w	r6, #0
 8002e78:	2600      	movne	r6, #0
 8002e7a:	e4b1      	b.n	80027e0 <INEXT>
 8002e7c:	08002e6a 	stmdaeq	r0, {r1, r3, r5, r6, r9, sl, fp, sp}

08002e80 <_DIFF>:
 8002e80:	003e3c02 	eorseq	r3, lr, r2, lsl #24

08002e84 <DIFF>:
 8002e84:	4630      	mov	r0, r6
 8002e86:	f857 6b04 	ldr.w	r6, [r7], #4
 8002e8a:	ea86 0600 	eor.w	r6, r6, r0
 8002e8e:	fab6 f086 	clz	r0, r6
 8002e92:	fa06 f600 	lsl.w	r6, r6, r0
 8002e96:	ea4f 76e6 	mov.w	r6, r6, asr #31
 8002e9a:	e4a1      	b.n	80027e0 <INEXT>
 8002e9c:	08002e80 	stmdaeq	r0, {r7, r9, sl, fp, sp}

08002ea0 <_ULESS>:
 8002ea0:	003c5502 	eorseq	r5, ip, r2, lsl #10

08002ea4 <ULESS>:
 8002ea4:	f857 5b04 	ldr.w	r5, [r7], #4
 8002ea8:	42b5      	cmp	r5, r6
 8002eaa:	bf34      	ite	cc
 8002eac:	f06f 0600 	mvncc.w	r6, #0
 8002eb0:	2600      	movcs	r6, #0
 8002eb2:	e495      	b.n	80027e0 <INEXT>
 8002eb4:	08002ea0 	stmdaeq	r0, {r5, r7, r9, sl, fp, sp}

08002eb8 <_LESS>:
 8002eb8:	bf003c01 	svclt	0x00003c01

08002ebc <LESS>:
 8002ebc:	f857 5b04 	ldr.w	r5, [r7], #4
 8002ec0:	42b5      	cmp	r5, r6
 8002ec2:	bfb4      	ite	lt
 8002ec4:	f06f 0600 	mvnlt.w	r6, #0
 8002ec8:	2600      	movge	r6, #0
 8002eca:	e489      	b.n	80027e0 <INEXT>
 8002ecc:	08002eb8 	stmdaeq	r0, {r3, r4, r5, r7, r9, sl, fp, sp}

08002ed0 <_UGREAT>:
 8002ed0:	003e5502 	eorseq	r5, lr, r2, lsl #10

08002ed4 <UGREAT>:
 8002ed4:	f857 5b04 	ldr.w	r5, [r7], #4
 8002ed8:	42ae      	cmp	r6, r5
 8002eda:	bf34      	ite	cc
 8002edc:	f06f 0600 	mvncc.w	r6, #0
 8002ee0:	2600      	movcs	r6, #0
 8002ee2:	e47d      	b.n	80027e0 <INEXT>
 8002ee4:	08002ed0 	stmdaeq	r0, {r4, r6, r7, r9, sl, fp, sp}

08002ee8 <_GREAT>:
 8002ee8:	bf003e01 	svclt	0x00003e01

08002eec <GREAT>:
 8002eec:	f857 5b04 	ldr.w	r5, [r7], #4
 8002ef0:	42b5      	cmp	r5, r6
 8002ef2:	bfcc      	ite	gt
 8002ef4:	f06f 0600 	mvngt.w	r6, #0
 8002ef8:	2600      	movle	r6, #0
 8002efa:	e471      	b.n	80027e0 <INEXT>
 8002efc:	08002ee8 	stmdaeq	r0, {r3, r5, r6, r7, r9, sl, fp, sp}

08002f00 <_MAX>:
 8002f00:	58414d03 	stmdapl	r1, {r0, r1, r8, sl, fp, lr}^

08002f04 <MAX>:
 8002f04:	f857 5b04 	ldr.w	r5, [r7], #4
 8002f08:	42b5      	cmp	r5, r6
 8002f0a:	bfc8      	it	gt
 8002f0c:	462e      	movgt	r6, r5
 8002f0e:	e467      	b.n	80027e0 <INEXT>
 8002f10:	08002f00 	stmdaeq	r0, {r8, r9, sl, fp, sp}

08002f14 <_MIN>:
 8002f14:	4e494d03 	cdpmi	13, 4, cr4, cr9, cr3, {0}

08002f18 <MIN>:
 8002f18:	f857 5b04 	ldr.w	r5, [r7], #4
 8002f1c:	42b5      	cmp	r5, r6
 8002f1e:	bfb8      	it	lt
 8002f20:	462e      	movlt	r6, r5
 8002f22:	e45d      	b.n	80027e0 <INEXT>
 8002f24:	08002f14 	stmdaeq	r0, {r2, r4, r8, r9, sl, fp, sp}

08002f28 <_PSTOR>:
 8002f28:	00212b02 	eoreq	r2, r1, r2, lsl #22

08002f2c <PSTOR>:
 8002f2c:	f857 5b04 	ldr.w	r5, [r7], #4
 8002f30:	6832      	ldr	r2, [r6, #0]
 8002f32:	442a      	add	r2, r5
 8002f34:	6032      	str	r2, [r6, #0]
 8002f36:	f857 6b04 	ldr.w	r6, [r7], #4
 8002f3a:	e451      	b.n	80027e0 <INEXT>
 8002f3c:	08002f28 	stmdaeq	r0, {r3, r5, r8, r9, sl, fp, sp}

08002f40 <_DSTOR>:
 8002f40:	00213202 	eoreq	r3, r1, r2, lsl #4

08002f44 <DSTOR>:
 8002f44:	f857 5b04 	ldr.w	r5, [r7], #4
 8002f48:	f857 2b04 	ldr.w	r2, [r7], #4
 8002f4c:	f846 5b04 	str.w	r5, [r6], #4
 8002f50:	6032      	str	r2, [r6, #0]
 8002f52:	f857 6b04 	ldr.w	r6, [r7], #4
 8002f56:	e443      	b.n	80027e0 <INEXT>
 8002f58:	08002f40 	stmdaeq	r0, {r6, r8, r9, sl, fp, sp}

08002f5c <_DAT>:
 8002f5c:	00404402 	subeq	r4, r0, r2, lsl #8

08002f60 <DAT>:
 8002f60:	6875      	ldr	r5, [r6, #4]
 8002f62:	f847 5d04 	str.w	r5, [r7, #-4]!
 8002f66:	6836      	ldr	r6, [r6, #0]
 8002f68:	e43a      	b.n	80027e0 <INEXT>
 8002f6a:	08002f5c 	stmdaeq	r0, {r2, r3, r4, r6, r8, r9, sl, fp, sp}

08002f6e <_COUNT>:
 8002f6e:	554f4305 	strbpl	r4, [pc, #-773]	; 8002c71 <TWOM+0x1>
 8002f72:	 			; <UNDEFINED> instruction: 0xf816544e

08002f74 <COUNT>:
 8002f74:	f816 5b01 	ldrb.w	r5, [r6], #1
 8002f78:	f847 6d04 	str.w	r6, [r7, #-4]!
 8002f7c:	462e      	mov	r6, r5
 8002f7e:	e42f      	b.n	80027e0 <INEXT>
 8002f80:	08002f6e 	stmdaeq	r0, {r1, r2, r3, r5, r6, r8, r9, sl, fp, sp}

08002f84 <_DNEGA>:
 8002f84:	454e4407 	strbmi	r4, [lr, #-1031]	; 0xfffffbf9
 8002f88:	45544147 	ldrbmi	r4, [r4, #-327]	; 0xfffffeb9

08002f8c <DNEGA>:
 8002f8c:	683d      	ldr	r5, [r7, #0]
 8002f8e:	eba2 0202 	sub.w	r2, r2, r2
 8002f92:	1b55      	subs	r5, r2, r5
 8002f94:	eb62 0606 	sbc.w	r6, r2, r6
 8002f98:	603d      	str	r5, [r7, #0]
 8002f9a:	e421      	b.n	80027e0 <INEXT>

08002f9c <DOVAR>:
 8002f9c:	f847 6d04 	str.w	r6, [r7, #-4]!
 8002fa0:	4666      	mov	r6, ip
 8002fa2:	f10c 0c04 	add.w	ip, ip, #4
 8002fa6:	e41e      	b.n	80027e6 <UNNEST>

08002fa8 <DOCON>:
 8002fa8:	f847 6d04 	str.w	r6, [r7, #-4]!
 8002fac:	f85c 6b04 	ldr.w	r6, [ip], #4
 8002fb0:	e419      	b.n	80027e6 <UNNEST>
 8002fb2:	08002f84 	stmdaeq	r0, {r2, r7, r8, r9, sl, fp, sp}

08002fb6 <_SEED>:
 8002fb6:	45455304 	strbmi	r5, [r5, #-772]	; 0xfffffcfc
 8002fba:	 			; <UNDEFINED> instruction: 0xf8470044

08002fbc <SEED>:
 8002fbc:	f847 6d04 	str.w	r6, [r7, #-4]!
 8002fc0:	f104 0604 	add.w	r6, r4, #4
 8002fc4:	e40c      	b.n	80027e0 <INEXT>
 8002fc6:	08002fb6 	stmdaeq	r0, {r1, r2, r4, r5, r7, r8, r9, sl, fp, sp}

08002fca <_MSEC>:
 8002fca:	45534d04 	ldrbmi	r4, [r3, #-3332]	; 0xfffff2fc
 8002fce:	 			; <UNDEFINED> instruction: 0xf8470043

08002fd0 <MSEC>:
 8002fd0:	f847 6d04 	str.w	r6, [r7, #-4]!
 8002fd4:	f104 0608 	add.w	r6, r4, #8
 8002fd8:	e402      	b.n	80027e0 <INEXT>
 8002fda:	08002fca 	stmdaeq	r0, {r1, r3, r6, r7, r8, r9, sl, fp, sp}

08002fde <_TIMER>:
 8002fde:	4d495405 	cfstrdmi	mvd5, [r9, #-20]	; 0xffffffec
 8002fe2:	 			; <UNDEFINED> instruction: 0xf8475245

08002fe4 <TIMER>:
 8002fe4:	f847 6d04 	str.w	r6, [r7, #-4]!
 8002fe8:	f104 060c 	add.w	r6, r4, #12
 8002fec:	f7ff bbf8 	b.w	80027e0 <INEXT>
 8002ff0:	08002fde 	stmdaeq	r0, {r1, r2, r3, r4, r6, r7, r8, r9, sl, fp, sp}

08002ff4 <_TBOOT>:
 8002ff4:	4f422705 	svcmi	0x00422705
 8002ff8:	bf00544f 	svclt	0x0000544f

08002ffc <TBOOT>:
 8002ffc:	f847 6d04 	str.w	r6, [r7, #-4]!
 8003000:	f104 0610 	add.w	r6, r4, #16
 8003004:	f7ff bbec 	b.w	80027e0 <INEXT>
 8003008:	08002ff4 	stmdaeq	r0, {r2, r4, r5, r6, r7, r8, r9, sl, fp, sp}

0800300c <_BASE>:
 800300c:	53414204 	movtpl	r4, #4612	; 0x1204
 8003010:	bf000045 	svclt	0x00000045

08003014 <BASE>:
 8003014:	f847 6d04 	str.w	r6, [r7, #-4]!
 8003018:	f104 061c 	add.w	r6, r4, #28
 800301c:	f7ff bbe0 	b.w	80027e0 <INEXT>

08003020 <TEMP>:
 8003020:	f847 6d04 	str.w	r6, [r7, #-4]!
 8003024:	f104 0620 	add.w	r6, r4, #32
 8003028:	f7ff bbda 	b.w	80027e0 <INEXT>
 800302c:	0800300c 	stmdaeq	r0, {r2, r3, ip, sp}

08003030 <_SPAN>:
 8003030:	41505304 	cmpmi	r0, r4, lsl #6
 8003034:	bf00004e 	svclt	0x0000004e

08003038 <SPAN>:
 8003038:	f847 6d04 	str.w	r6, [r7, #-4]!
 800303c:	f104 0624 	add.w	r6, r4, #36	; 0x24
 8003040:	f7ff bbce 	b.w	80027e0 <INEXT>
 8003044:	08003030 	stmdaeq	r0, {r4, r5, ip, sp}

08003048 <_INN>:
 8003048:	4e493e03 	cdpmi	14, 4, cr3, cr9, cr3, {0}

0800304c <INN>:
 800304c:	f847 6d04 	str.w	r6, [r7, #-4]!
 8003050:	f104 0628 	add.w	r6, r4, #40	; 0x28
 8003054:	f7ff bbc4 	b.w	80027e0 <INEXT>
 8003058:	08003048 	stmdaeq	r0, {r3, r6, ip, sp}

0800305c <_NTIB>:
 800305c:	49542304 	ldmdbmi	r4, {r2, r8, r9, sp}^
 8003060:	bf000042 	svclt	0x00000042

08003064 <NTIB>:
 8003064:	f847 6d04 	str.w	r6, [r7, #-4]!
 8003068:	f104 062c 	add.w	r6, r4, #44	; 0x2c
 800306c:	f7ff bbb8 	b.w	80027e0 <INEXT>
 8003070:	0800305c 	stmdaeq	r0, {r2, r3, r4, r6, ip, sp}

08003074 <_TEVAL>:
 8003074:	56452705 	strbpl	r2, [r5], -r5, lsl #14
 8003078:	bf004c41 	svclt	0x00004c41

0800307c <TEVAL>:
 800307c:	f847 6d04 	str.w	r6, [r7, #-4]!
 8003080:	f104 0634 	add.w	r6, r4, #52	; 0x34
 8003084:	f7ff bbac 	b.w	80027e0 <INEXT>
 8003088:	08003074 	stmdaeq	r0, {r2, r4, r5, r6, ip, sp}

0800308c <_HLD>:
 800308c:	444c4803 	strbmi	r4, [ip], #-2051	; 0xfffff7fd

08003090 <HLD>:
 8003090:	f847 6d04 	str.w	r6, [r7, #-4]!
 8003094:	f104 0638 	add.w	r6, r4, #56	; 0x38
 8003098:	f7ff bba2 	b.w	80027e0 <INEXT>
 800309c:	0800308c 	stmdaeq	r0, {r2, r3, r7, ip, sp}

080030a0 <_CNTXT>:
 80030a0:	4e4f4307 	cdpmi	3, 4, cr4, cr15, cr7, {0}
 80030a4:	54584554 	ldrbpl	r4, [r8], #-1364	; 0xfffffaac

080030a8 <CNTXT>:
 80030a8:	f847 6d04 	str.w	r6, [r7, #-4]!
 80030ac:	f104 063c 	add.w	r6, r4, #60	; 0x3c
 80030b0:	f7ff bb96 	b.w	80027e0 <INEXT>
 80030b4:	080030a0 	stmdaeq	r0, {r5, r7, ip, sp}

080030b8 <_CPP>:
 80030b8:	00504302 	subseq	r4, r0, r2, lsl #6

080030bc <CPP>:
 80030bc:	f847 6d04 	str.w	r6, [r7, #-4]!
 80030c0:	f104 0644 	add.w	r6, r4, #68	; 0x44
 80030c4:	f7ff bb8c 	b.w	80027e0 <INEXT>
 80030c8:	080030b8 	stmdaeq	r0, {r3, r4, r5, r7, ip, sp}

080030cc <_FCP>:
 80030cc:	50434603 	subpl	r4, r3, r3, lsl #12

080030d0 <FCP>:
 80030d0:	f847 6d04 	str.w	r6, [r7, #-4]!
 80030d4:	f104 0640 	add.w	r6, r4, #64	; 0x40
 80030d8:	f7ff bb82 	b.w	80027e0 <INEXT>
 80030dc:	080030cc 	stmdaeq	r0, {r2, r3, r6, r7, ip, sp}

080030e0 <_LAST>:
 80030e0:	53414c04 	movtpl	r4, #7172	; 0x1c04
 80030e4:	bf000054 	svclt	0x00000054

080030e8 <LAST>:
 80030e8:	f847 6d04 	str.w	r6, [r7, #-4]!
 80030ec:	f104 0648 	add.w	r6, r4, #72	; 0x48
 80030f0:	f7ff bb76 	b.w	80027e0 <INEXT>
 80030f4:	080030e0 	stmdaeq	r0, {r5, r6, r7, ip, sp}

080030f8 <_USER_BEGIN>:
 80030f8:	4553550a 	ldrbmi	r5, [r3, #-1290]	; 0xfffffaf6
 80030fc:	45422d52 	strbmi	r2, [r2, #-3410]	; 0xfffff2ae
 8003100:	004e4947 	subeq	r4, lr, r7, asr #18

08003104 <USER_BEGIN>:
 8003104:	f847 6d04 	str.w	r6, [r7, #-4]!
 8003108:	f8df 6004 	ldr.w	r6, [pc, #4]	; 8003110 <USR_BGN_ADR>
 800310c:	f7ff bb68 	b.w	80027e0 <INEXT>

08003110 <USR_BGN_ADR>:
 8003110:	20000512 	andcs	r0, r0, r2, lsl r5
 8003114:	080030f8 	stmdaeq	r0, {r3, r4, r5, r6, r7, ip, sp}

08003118 <_USER_END>:
 8003118:	45535508 	ldrbmi	r5, [r3, #-1288]	; 0xfffffaf8
 800311c:	4e452d52 	mcrmi	13, 2, r2, cr5, cr2, {2}
 8003120:	bf000044 	svclt	0x00000044

08003124 <USER_END>:
 8003124:	f847 6d04 	str.w	r6, [r7, #-4]!
 8003128:	f8df 6004 	ldr.w	r6, [pc, #4]	; 8003130 <USER_END_ADR>
 800312c:	f7ff bb58 	b.w	80027e0 <INEXT>

08003130 <USER_END_ADR>:
 8003130:	2001807c 	andcs	r8, r1, ip, ror r0
 8003134:	08003118 	stmdaeq	r0, {r3, r4, r8, ip, sp}

08003138 <_WITHI>:
 8003138:	54495706 	strbpl	r5, [r9], #-1798	; 0xfffff8fa
 800313c:	004e4948 	subeq	r4, lr, r8, asr #18

08003140 <WITHI>:
 8003140:	4750      	bx	sl
 8003142:	bf00      	nop
 8003144:	08002b45 	stmdaeq	r0, {r0, r2, r6, r8, r9, fp, sp}
 8003148:	08002bf5 	stmdaeq	r0, {r0, r2, r4, r5, r6, r7, r8, r9, fp, sp}
 800314c:	08002a9d 	stmdaeq	r0, {r0, r2, r3, r4, r7, r9, fp, sp}
 8003150:	08002bf5 	stmdaeq	r0, {r0, r2, r4, r5, r6, r7, r8, r9, fp, sp}
 8003154:	08002a59 	stmdaeq	r0, {r0, r3, r4, r6, r9, fp, sp}
 8003158:	08002ea5 	stmdaeq	r0, {r0, r2, r5, r7, r9, sl, fp, sp}
 800315c:	080027e7 	stmdaeq	r0, {r0, r1, r2, r5, r6, r7, r8, r9, sl, sp}
 8003160:	08003138 	stmdaeq	r0, {r3, r4, r5, r8, ip, sp}

08003164 <_UMMOD>:
 8003164:	2f4d5506 	svccs	0x004d5506
 8003168:	00444f4d 	subeq	r4, r4, sp, asr #30

0800316c <UMMOD>:
 800316c:	f04f 0301 	mov.w	r3, #1
 8003170:	f857 5b04 	ldr.w	r5, [r7], #4
 8003174:	683a      	ldr	r2, [r7, #0]

08003176 <UMMOD0>:
 8003176:	1892      	adds	r2, r2, r2
 8003178:	416d      	adcs	r5, r5
 800317a:	d304      	bcc.n	8003186 <UMMOD1>
 800317c:	eba5 0506 	sub.w	r5, r5, r6
 8003180:	f102 0201 	add.w	r2, r2, #1
 8003184:	e004      	b.n	8003190 <UMMOD2>

08003186 <UMMOD1>:
 8003186:	1bad      	subs	r5, r5, r6
 8003188:	bf28      	it	cs
 800318a:	3201      	addcs	r2, #1
 800318c:	d200      	bcs.n	8003190 <UMMOD2>
 800318e:	4435      	add	r5, r6

08003190 <UMMOD2>:
 8003190:	18db      	adds	r3, r3, r3
 8003192:	d3f0      	bcc.n	8003176 <UMMOD0>
 8003194:	4616      	mov	r6, r2
 8003196:	603d      	str	r5, [r7, #0]
 8003198:	f7ff bb22 	b.w	80027e0 <INEXT>
 800319c:	08003164 	stmdaeq	r0, {r2, r5, r6, r8, ip, sp}

080031a0 <_MSMOD>:
 80031a0:	4d2f4d05 	stcmi	13, cr4, [pc, #-20]!	; 8003194 <UMMOD2+0x4>
 80031a4:	bf00444f 	svclt	0x0000444f

080031a8 <MSMOD>:
 80031a8:	4750      	bx	sl
 80031aa:	bf00      	nop
 80031ac:	08002b21 	stmdaeq	r0, {r0, r5, r8, r9, fp, sp}
 80031b0:	08002b55 	stmdaeq	r0, {r0, r2, r4, r6, r8, r9, fp, sp}
 80031b4:	08002b21 	stmdaeq	r0, {r0, r5, r8, r9, fp, sp}
 80031b8:	08002a9d 	stmdaeq	r0, {r0, r2, r3, r4, r7, r9, fp, sp}
 80031bc:	080029e7 	stmdaeq	r0, {r0, r1, r2, r5, r6, r7, r8, fp, sp}
 80031c0:	080031d4 	stmdaeq	r0, {r2, r4, r6, r7, r8, ip, sp}
 80031c4:	08002e05 	stmdaeq	r0, {r0, r2, r9, sl, fp, sp}
 80031c8:	08002a9d 	stmdaeq	r0, {r0, r2, r3, r4, r7, r9, fp, sp}
 80031cc:	08002f8d 	stmdaeq	r0, {r0, r2, r3, r7, r8, r9, sl, fp, sp}
 80031d0:	08002a59 	stmdaeq	r0, {r0, r3, r4, r6, r9, fp, sp}

080031d4 <MMOD1>:
 80031d4:	08002a9d 	stmdaeq	r0, {r0, r2, r3, r4, r7, r9, fp, sp}
 80031d8:	08002b21 	stmdaeq	r0, {r0, r5, r8, r9, fp, sp}
 80031dc:	08002b55 	stmdaeq	r0, {r0, r2, r4, r6, r8, r9, fp, sp}
 80031e0:	080029e7 	stmdaeq	r0, {r0, r1, r2, r5, r6, r7, r8, fp, sp}
 80031e4:	080031f0 	stmdaeq	r0, {r4, r5, r6, r7, r8, ip, sp}
 80031e8:	08002a89 	stmdaeq	r0, {r0, r3, r7, r9, fp, sp}
 80031ec:	08002be5 	stmdaeq	r0, {r0, r2, r5, r6, r7, r8, r9, fp, sp}

080031f0 <MMOD2>:
 80031f0:	08002a59 	stmdaeq	r0, {r0, r3, r4, r6, r9, fp, sp}
 80031f4:	0800316d 	stmdaeq	r0, {r0, r2, r3, r5, r6, r8, ip, sp}
 80031f8:	08002a59 	stmdaeq	r0, {r0, r3, r4, r6, r9, fp, sp}
 80031fc:	080029e7 	stmdaeq	r0, {r0, r1, r2, r5, r6, r7, r8, fp, sp}
 8003200:	08003210 	stmdaeq	r0, {r4, r9, ip, sp}
 8003204:	08002b31 	stmdaeq	r0, {r0, r4, r5, r8, r9, fp, sp}
 8003208:	08002e05 	stmdaeq	r0, {r0, r2, r9, sl, fp, sp}
 800320c:	08002b31 	stmdaeq	r0, {r0, r4, r5, r8, r9, fp, sp}

08003210 <MMOD3>:
 8003210:	080027e7 	stmdaeq	r0, {r0, r1, r2, r5, r6, r7, r8, r9, sl, sp}
 8003214:	080031a0 	stmdaeq	r0, {r5, r7, r8, ip, sp}

08003218 <_STOD>:
 8003218:	443e5303 	ldrtmi	r5, [lr], #-771	; 0xfffffcfd

0800321c <STOD>:
 800321c:	f847 6d04 	str.w	r6, [r7, #-4]!
 8003220:	ea4f 76e6 	mov.w	r6, r6, asr #31
 8003224:	f7ff badc 	b.w	80027e0 <INEXT>
 8003228:	08003218 	stmdaeq	r0, {r3, r4, r9, ip, sp}

0800322c <_D2STAR>:
 800322c:	2a324403 	bcs	8c94240 <OPTKEY1+0xb01805>

08003230 <D2STAR>:
 8003230:	6838      	ldr	r0, [r7, #0]
 8003232:	0040      	lsls	r0, r0, #1
 8003234:	6038      	str	r0, [r7, #0]
 8003236:	ea4f 0646 	mov.w	r6, r6, lsl #1
 800323a:	f146 0600 	adc.w	r6, r6, #0
 800323e:	f7ff bacf 	b.w	80027e0 <INEXT>
 8003242:	0800322c 	stmdaeq	r0, {r2, r3, r5, r9, ip, sp}

08003246 <_D2SL>:
 8003246:	2f324403 	svccs	0x00324403
 800324a:	bf00      	nop

0800324c <D2SL>:
 800324c:	6838      	ldr	r0, [r7, #0]
 800324e:	1076      	asrs	r6, r6, #1
 8003250:	ea4f 0030 	mov.w	r0, r0, rrx
 8003254:	6038      	str	r0, [r7, #0]
 8003256:	f7ff bac3 	b.w	80027e0 <INEXT>
 800325a:	08003246 	stmdaeq	r0, {r1, r2, r6, r9, ip, sp}

0800325e <_DSLMOD>:
 800325e:	4d2f4405 	cfstrsmi	mvf4, [pc, #-20]!	; 8003250 <D2SL+0x4>
 8003262:	 	ldmdavs	sp!, {r0, r1, r2, r3, r6, sl, lr}

08003264 <DSLMOD>:
 8003264:	683d      	ldr	r5, [r7, #0]
 8003266:	6878      	ldr	r0, [r7, #4]
 8003268:	f04f 0220 	mov.w	r2, #32
 800326c:	ea81 0101 	eor.w	r1, r1, r1
 8003270:	b925      	cbnz	r5, 800327c <DSLMOD+0x18>
 8003272:	ea82 0202 	eor.w	r2, r2, r2
 8003276:	4605      	mov	r5, r0
 8003278:	ea80 0000 	eor.w	r0, r0, r0
 800327c:	b14a      	cbz	r2, 8003292 <DSLMOD+0x2e>
 800327e:	f015 4f00 	tst.w	r5, #2147483648	; 0x80000000
 8003282:	d106      	bne.n	8003292 <DSLMOD+0x2e>
 8003284:	1849      	adds	r1, r1, r1
 8003286:	4140      	adcs	r0, r0
 8003288:	eb45 0505 	adc.w	r5, r5, r5
 800328c:	f1a2 0201 	sub.w	r2, r2, #1
 8003290:	e7f4      	b.n	800327c <DSLMOD+0x18>
 8003292:	fbb5 f3f6 	udiv	r3, r5, r6
 8003296:	ea41 0103 	orr.w	r1, r1, r3
 800329a:	fb06 f303 	mul.w	r3, r6, r3
 800329e:	eba5 0503 	sub.w	r5, r5, r3
 80032a2:	b102      	cbz	r2, 80032a6 <DSLMOD+0x42>
 80032a4:	e7ea      	b.n	800327c <DSLMOD+0x18>
 80032a6:	607d      	str	r5, [r7, #4]
 80032a8:	6039      	str	r1, [r7, #0]
 80032aa:	4606      	mov	r6, r0
 80032ac:	f7ff ba98 	b.w	80027e0 <INEXT>
 80032b0:	0800325e 	stmdaeq	r0, {r1, r2, r3, r4, r6, r9, ip, sp}

080032b4 <_DSLASH>:
 80032b4:	002f4402 	eoreq	r4, pc, r2, lsl #8

080032b8 <DSLASH>:
 80032b8:	4750      	bx	sl
 80032ba:	bf00      	nop
 80032bc:	08002b21 	stmdaeq	r0, {r0, r5, r8, r9, fp, sp}
 80032c0:	080029a7 	stmdaeq	r0, {r0, r1, r2, r5, r7, r8, fp, sp}
 80032c4:	00000001 	andeq	r0, r0, r1
 80032c8:	08002bbd 	stmdaeq	r0, {r0, r2, r3, r4, r5, r7, r8, r9, fp, sp}
 80032cc:	08002a9d 	stmdaeq	r0, {r0, r2, r3, r4, r7, r9, fp, sp}
 80032d0:	08003265 	stmdaeq	r0, {r0, r2, r5, r6, r9, ip, sp}
 80032d4:	08002d09 	stmdaeq	r0, {r0, r3, r8, sl, fp, sp}
 80032d8:	08002a59 	stmdaeq	r0, {r0, r3, r4, r6, r9, fp, sp}
 80032dc:	08002eed 	stmdaeq	r0, {r0, r2, r3, r5, r6, r7, r9, sl, fp, sp}
 80032e0:	080029e7 	stmdaeq	r0, {r0, r1, r2, r5, r6, r7, r8, fp, sp}
 80032e4:	080032f8 	stmdaeq	r0, {r3, r4, r5, r6, r7, r9, ip, sp}
 80032e8:	080029a7 	stmdaeq	r0, {r0, r1, r2, r5, r7, r8, fp, sp}
 80032ec:	00000001 	andeq	r0, r0, r1
 80032f0:	0800321d 	stmdaeq	r0, {r0, r2, r3, r4, r9, ip, sp}
 80032f4:	08002d6d 	stmdaeq	r0, {r0, r2, r3, r5, r6, r8, sl, fp, sp}
 80032f8:	080027e7 	stmdaeq	r0, {r0, r1, r2, r5, r6, r7, r8, r9, sl, sp}
 80032fc:	080032b4 	stmdaeq	r0, {r2, r4, r5, r7, r9, ip, sp}

08003300 <_DSTAR>:
 8003300:	002a4402 	eoreq	r4, sl, r2, lsl #8

08003304 <DSTAR>:
 8003304:	f857 0b04 	ldr.w	r0, [r7], #4
 8003308:	6839      	ldr	r1, [r7, #0]
 800330a:	6038      	str	r0, [r7, #0]
 800330c:	ea83 0303 	eor.w	r3, r3, r3
 8003310:	f010 4f00 	tst.w	r0, #2147483648	; 0x80000000
 8003314:	d002      	beq.n	800331c <DSTAR+0x18>
 8003316:	1a59      	subs	r1, r3, r1
 8003318:	eb63 0000 	sbc.w	r0, r3, r0
 800331c:	fb81 2106 	smull	r2, r1, r1, r6
 8003320:	fb00 f606 	mul.w	r6, r0, r6
 8003324:	440e      	add	r6, r1
 8003326:	6838      	ldr	r0, [r7, #0]
 8003328:	f010 4f00 	tst.w	r0, #2147483648	; 0x80000000
 800332c:	d002      	beq.n	8003334 <DSTAR+0x30>
 800332e:	1a9a      	subs	r2, r3, r2
 8003330:	eb63 0606 	sbc.w	r6, r3, r6
 8003334:	603a      	str	r2, [r7, #0]
 8003336:	f7ff ba53 	b.w	80027e0 <INEXT>
 800333a:	08003300 	stmdaeq	r0, {r8, r9, ip, sp}

0800333e <_SLMOD>:
 800333e:	4f4d2f04 	svcmi	0x004d2f04
 8003342:	 	ldrbmi	r0, [r0, -r4, asr #32]

08003344 <SLMOD>:
 8003344:	4750      	bx	sl
 8003346:	bf00      	nop
 8003348:	08002b45 	stmdaeq	r0, {r0, r2, r6, r8, r9, fp, sp}
 800334c:	08002b55 	stmdaeq	r0, {r0, r2, r4, r6, r8, r9, fp, sp}
 8003350:	08002b31 	stmdaeq	r0, {r0, r4, r5, r8, r9, fp, sp}
 8003354:	080031a9 	stmdaeq	r0, {r0, r3, r5, r7, r8, ip, sp}
 8003358:	080027e7 	stmdaeq	r0, {r0, r1, r2, r5, r6, r7, r8, r9, sl, sp}
 800335c:	0800333e 	stmdaeq	r0, {r1, r2, r3, r4, r5, r8, r9, ip, sp}

08003360 <_MODD>:
 8003360:	444f4d03 	strbmi	r4, [pc], #-3331	; 8003368 <MODD+0x4>

08003364 <MODD>:
 8003364:	4750      	bx	sl
 8003366:	bf00      	nop
 8003368:	08003345 	stmdaeq	r0, {r0, r2, r6, r8, r9, ip, sp}
 800336c:	08002b11 	stmdaeq	r0, {r0, r4, r8, r9, fp, sp}
 8003370:	080027e7 	stmdaeq	r0, {r0, r1, r2, r5, r6, r7, r8, r9, sl, sp}
 8003374:	08003360 	stmdaeq	r0, {r5, r6, r8, r9, ip, sp}

08003378 <_SLASH>:
 8003378:	bf002f01 	svclt	0x00002f01

0800337c <SLASH>:
 800337c:	4750      	bx	sl
 800337e:	bf00      	nop
 8003380:	08003345 	stmdaeq	r0, {r0, r2, r6, r8, r9, ip, sp}
 8003384:	08002b31 	stmdaeq	r0, {r0, r4, r5, r8, r9, fp, sp}
 8003388:	08002b11 	stmdaeq	r0, {r0, r4, r8, r9, fp, sp}
 800338c:	080027e7 	stmdaeq	r0, {r0, r1, r2, r5, r6, r7, r8, r9, sl, sp}
 8003390:	08003378 	stmdaeq	r0, {r3, r4, r5, r6, r8, r9, ip, sp}

08003394 <_SSMOD>:
 8003394:	4d2f2a05 	vstmdbmi	pc!, {s4-s8}
 8003398:	bf00444f 	svclt	0x0000444f

0800339c <SSMOD>:
 800339c:	4750      	bx	sl
 800339e:	bf00      	nop
 80033a0:	08002a9d 	stmdaeq	r0, {r0, r2, r3, r4, r7, r9, fp, sp}
 80033a4:	08002c2d 	stmdaeq	r0, {r0, r2, r3, r5, sl, fp, sp}
 80033a8:	08002a59 	stmdaeq	r0, {r0, r3, r4, r6, r9, fp, sp}
 80033ac:	080031a9 	stmdaeq	r0, {r0, r3, r5, r7, r8, ip, sp}
 80033b0:	080027e7 	stmdaeq	r0, {r0, r1, r2, r5, r6, r7, r8, r9, sl, sp}
 80033b4:	08003394 	stmdaeq	r0, {r2, r4, r7, r8, r9, ip, sp}

080033b8 <_STASL>:
 80033b8:	002f2a02 	eoreq	r2, pc, r2, lsl #20

080033bc <STASL>:
 80033bc:	4750      	bx	sl
 80033be:	bf00      	nop
 80033c0:	0800339d 	stmdaeq	r0, {r0, r2, r3, r4, r7, r8, r9, ip, sp}
 80033c4:	08002b31 	stmdaeq	r0, {r0, r4, r5, r8, r9, fp, sp}
 80033c8:	08002b11 	stmdaeq	r0, {r0, r4, r8, r9, fp, sp}
 80033cc:	080027e7 	stmdaeq	r0, {r0, r1, r2, r5, r6, r7, r8, r9, sl, sp}
 80033d0:	080033b8 	stmdaeq	r0, {r3, r4, r5, r7, r8, r9, ip, sp}

080033d4 <_ALGND>:
 80033d4:	494c4107 	stmdbmi	ip, {r0, r1, r2, r8, lr}^
 80033d8:	44454e47 	strbmi	r4, [r5], #-3655	; 0xfffff1b9

080033dc <ALGND>:
 80033dc:	f106 0603 	add.w	r6, r6, #3
 80033e0:	f06f 0503 	mvn.w	r5, #3
 80033e4:	ea06 0605 	and.w	r6, r6, r5
 80033e8:	f7ff b9fa 	b.w	80027e0 <INEXT>
 80033ec:	080033d4 	stmdaeq	r0, {r2, r4, r6, r7, r8, r9, ip, sp}

080033f0 <_TCHAR>:
 80033f0:	48433e05 	stmdami	r3, {r0, r2, r9, sl, fp, ip, sp}^
 80033f4:	bf005241 	svclt	0x00005241

080033f8 <TCHAR>:
 80033f8:	4750      	bx	sl
 80033fa:	bf00      	nop
 80033fc:	080029a7 	stmdaeq	r0, {r0, r1, r2, r5, r7, r8, fp, sp}
 8003400:	0000007f 	andeq	r0, r0, pc, ror r0
 8003404:	08002b65 	stmdaeq	r0, {r0, r2, r5, r6, r8, r9, fp, sp}
 8003408:	08002b21 	stmdaeq	r0, {r0, r5, r8, r9, fp, sp}
 800340c:	08002ca1 	stmdaeq	r0, {r0, r5, r7, sl, fp, sp}
 8003410:	080029a7 	stmdaeq	r0, {r0, r1, r2, r5, r7, r8, fp, sp}
 8003414:	0000007f 	andeq	r0, r0, pc, ror r0
 8003418:	08003141 	stmdaeq	r0, {r0, r6, r8, ip, sp}
 800341c:	08002df1 	stmdaeq	r0, {r0, r4, r5, r6, r7, r8, sl, fp, sp}
 8003420:	080029e7 	stmdaeq	r0, {r0, r1, r2, r5, r6, r7, r8, fp, sp}
 8003424:	08003434 	stmdaeq	r0, {r2, r4, r5, sl, ip, sp}
 8003428:	08002b11 	stmdaeq	r0, {r0, r4, r8, r9, fp, sp}
 800342c:	080029a7 	stmdaeq	r0, {r0, r1, r2, r5, r7, r8, fp, sp}
 8003430:	0000005f 	andeq	r0, r0, pc, asr r0

08003434 <TCHA1>:
 8003434:	080027e7 	stmdaeq	r0, {r0, r1, r2, r5, r6, r7, r8, r9, sl, sp}
 8003438:	080033f0 	stmdaeq	r0, {r4, r5, r6, r7, r8, r9, ip, sp}

0800343c <_DEPTH>:
 800343c:	50454405 	subpl	r4, r5, r5, lsl #8
 8003440:	bf004854 	svclt	0x00004854

08003444 <DEPTH>:
 8003444:	f64f 6280 	movw	r2, #65152	; 0xfe80
 8003448:	f2c2 0201 	movt	r2, #8193	; 0x2001
 800344c:	eba2 0207 	sub.w	r2, r2, r7
 8003450:	f847 6d04 	str.w	r6, [r7, #-4]!
 8003454:	ea4f 06a2 	mov.w	r6, r2, asr #2
 8003458:	f7ff b9c2 	b.w	80027e0 <INEXT>
 800345c:	0800343c 	stmdaeq	r0, {r2, r3, r4, r5, sl, ip, sp}

08003460 <_PICK>:
 8003460:	43495004 	movtmi	r5, #36868	; 0x9004
 8003464:	bf00004b 	svclt	0x0000004b

08003468 <PICK>:
 8003468:	4750      	bx	sl
 800346a:	bf00      	nop
 800346c:	08002c41 	stmdaeq	r0, {r0, r6, sl, fp, sp}
 8003470:	08002cb5 	stmdaeq	r0, {r0, r2, r4, r5, r7, sl, fp, sp}
 8003474:	08002aed 	stmdaeq	r0, {r0, r2, r3, r5, r6, r7, r9, fp, sp}
 8003478:	08002be5 	stmdaeq	r0, {r0, r2, r5, r6, r7, r8, r9, fp, sp}
 800347c:	08002a2d 	stmdaeq	r0, {r0, r2, r3, r5, r9, fp, sp}
 8003480:	080027e7 	stmdaeq	r0, {r0, r1, r2, r5, r6, r7, r8, r9, sl, sp}
 8003484:	08003460 	stmdaeq	r0, {r5, r6, sl, ip, sp}

08003488 <_HERE>:
 8003488:	52454804 	subpl	r4, r5, #4, 16	; 0x40000
 800348c:	bf000045 	svclt	0x00000045

08003490 <HERE>:
 8003490:	4750      	bx	sl
 8003492:	bf00      	nop
 8003494:	080030bd 	stmdaeq	r0, {r0, r2, r3, r4, r5, r7, ip, sp}
 8003498:	08002a2d 	stmdaeq	r0, {r0, r2, r3, r5, r9, fp, sp}
 800349c:	080027e7 	stmdaeq	r0, {r0, r1, r2, r5, r6, r7, r8, r9, sl, sp}
 80034a0:	08003488 	stmdaeq	r0, {r3, r7, sl, ip, sp}

080034a4 <_PAD>:
 80034a4:	44415003 	strbmi	r5, [r1], #-3

080034a8 <PAD>:
 80034a8:	4750      	bx	sl
 80034aa:	bf00      	nop
 80034ac:	08003491 	stmdaeq	r0, {r0, r4, r7, sl, ip, sp}
 80034b0:	080029a7 	stmdaeq	r0, {r0, r1, r2, r5, r7, r8, fp, sp}
 80034b4:	00000050 	andeq	r0, r0, r0, asr r0
 80034b8:	08002be5 	stmdaeq	r0, {r0, r2, r5, r6, r7, r8, r9, fp, sp}
 80034bc:	080027e7 	stmdaeq	r0, {r0, r1, r2, r5, r6, r7, r8, r9, sl, sp}
 80034c0:	080034a4 	stmdaeq	r0, {r2, r5, r7, sl, ip, sp}

080034c4 <_TIB>:
 80034c4:	42495403 	submi	r5, r9, #50331648	; 0x3000000

080034c8 <TIB>:
 80034c8:	f847 6d04 	str.w	r6, [r7, #-4]!
 80034cc:	6b26      	ldr	r6, [r4, #48]	; 0x30
 80034ce:	f7ff b987 	b.w	80027e0 <INEXT>
 80034d2:	080034c4 	stmdaeq	r0, {r2, r6, r7, sl, ip, sp}

080034d6 <_ATEXE>:
 80034d6:	58454008 	stmdapl	r5, {r3, lr}^
 80034da:	54554345 	ldrbpl	r4, [r5], #-837	; 0xfffffcbb
 80034de:	 	eorseq	r0, r5, r5, asr #32

080034e0 <ATEXE>:
 80034e0:	0035      	movs	r5, r6
 80034e2:	f857 6b04 	ldr.w	r6, [r7], #4
 80034e6:	682d      	ldr	r5, [r5, #0]
 80034e8:	f045 0501 	orr.w	r5, r5, #1
 80034ec:	bf18      	it	ne
 80034ee:	4728      	bxne	r5
 80034f0:	f7ff b976 	b.w	80027e0 <INEXT>
 80034f4:	080034d6 	stmdaeq	r0, {r1, r2, r4, r6, r7, sl, ip, sp}

080034f8 <_CMOVE>:
 80034f8:	4f4d4305 	svcmi	0x004d4305
 80034fc:	bf004556 	svclt	0x00004556

08003500 <CMOVE>:
 8003500:	f857 2b04 	ldr.w	r2, [r7], #4
 8003504:	f857 3b04 	ldr.w	r3, [r7], #4
 8003508:	e003      	b.n	8003512 <CMOV1>

0800350a <CMOV0>:
 800350a:	f813 5b01 	ldrb.w	r5, [r3], #1
 800350e:	f802 5b01 	strb.w	r5, [r2], #1

08003512 <CMOV1>:
 8003512:	0036      	movs	r6, r6
 8003514:	d002      	beq.n	800351c <CMOV2>
 8003516:	f1a6 0601 	sub.w	r6, r6, #1
 800351a:	e7f6      	b.n	800350a <CMOV0>

0800351c <CMOV2>:
 800351c:	f857 6b04 	ldr.w	r6, [r7], #4
 8003520:	f7ff b95e 	b.w	80027e0 <INEXT>
 8003524:	080034f8 	stmdaeq	r0, {r3, r4, r5, r6, r7, sl, ip, sp}

08003528 <_MOVE>:
 8003528:	564f4d04 	strbpl	r4, [pc], -r4, lsl #26
 800352c:	bf000045 	svclt	0x00000045

08003530 <MOVE>:
 8003530:	f04f 0004 	mov.w	r0, #4
 8003534:	f106 0603 	add.w	r6, r6, #3
 8003538:	f026 0603 	bic.w	r6, r6, #3
 800353c:	f857 1b04 	ldr.w	r1, [r7], #4
 8003540:	f857 2b04 	ldr.w	r2, [r7], #4
 8003544:	428a      	cmp	r2, r1
 8003546:	d508      	bpl.n	800355a <MOVE1>
 8003548:	f06f 0003 	mvn.w	r0, #3
 800354c:	4431      	add	r1, r6
 800354e:	4432      	add	r2, r6
 8003550:	e001      	b.n	8003556 <MOVE3>

08003552 <MOVE0>:
 8003552:	6815      	ldr	r5, [r2, #0]
 8003554:	600d      	str	r5, [r1, #0]

08003556 <MOVE3>:
 8003556:	4401      	add	r1, r0
 8003558:	4402      	add	r2, r0

0800355a <MOVE1>:
 800355a:	0036      	movs	r6, r6
 800355c:	d002      	beq.n	8003564 <MOVE2>
 800355e:	f1a6 0604 	sub.w	r6, r6, #4
 8003562:	e7f6      	b.n	8003552 <MOVE0>

08003564 <MOVE2>:
 8003564:	f857 6b04 	ldr.w	r6, [r7], #4
 8003568:	f7ff b93a 	b.w	80027e0 <INEXT>
 800356c:	08003528 	stmdaeq	r0, {r3, r5, r8, sl, ip, sp}

08003570 <_FILL>:
 8003570:	4c494604 	mcrrmi	6, 0, r4, r9, cr4
 8003574:	bf00004c 	svclt	0x0000004c

08003578 <FILL>:
 8003578:	cf03      	ldmia	r7!, {r0, r1}
 800357a:	0000      	movs	r0, r0
 800357c:	d003      	beq.n	8003586 <FILL2>

0800357e <FILL1>:
 800357e:	f801 6b01 	strb.w	r6, [r1], #1
 8003582:	3801      	subs	r0, #1
 8003584:	d1fb      	bne.n	800357e <FILL1>

08003586 <FILL2>:
 8003586:	f857 6b04 	ldr.w	r6, [r7], #4
 800358a:	f7ff b929 	b.w	80027e0 <INEXT>
 800358e:	08003570 	stmdaeq	r0, {r4, r5, r6, r8, sl, ip, sp}

08003592 <_PACKS>:
 8003592:	43415005 	movtmi	r5, #4101	; 0x1005
 8003596:	 	ldrbmi	r2, [r0, -fp, asr #8]

08003598 <PACKS>:
 8003598:	4750      	bx	sl
 800359a:	bf00      	nop
 800359c:	080033dd 	stmdaeq	r0, {r0, r2, r3, r4, r6, r7, r8, r9, ip, sp}
 80035a0:	08002b21 	stmdaeq	r0, {r0, r5, r8, r9, fp, sp}
 80035a4:	08002a9d 	stmdaeq	r0, {r0, r2, r3, r4, r7, r9, fp, sp}
 80035a8:	08002b45 	stmdaeq	r0, {r0, r2, r6, r8, r9, fp, sp}
 80035ac:	08002be5 	stmdaeq	r0, {r0, r2, r5, r6, r7, r8, r9, fp, sp}
 80035b0:	08002c41 	stmdaeq	r0, {r0, r6, sl, fp, sp}
 80035b4:	080029a7 	stmdaeq	r0, {r0, r1, r2, r5, r7, r8, fp, sp}
 80035b8:	fffffffc 			; <UNDEFINED> instruction: 0xfffffffc
 80035bc:	08002b65 	stmdaeq	r0, {r0, r2, r5, r6, r8, r9, fp, sp}
 80035c0:	080029a7 	stmdaeq	r0, {r0, r1, r2, r5, r7, r8, fp, sp}
 80035c4:	00000000 	andeq	r0, r0, r0
 80035c8:	08002b31 	stmdaeq	r0, {r0, r4, r5, r8, r9, fp, sp}
 80035cc:	08002a19 	stmdaeq	r0, {r0, r3, r4, r9, fp, sp}
 80035d0:	08002a89 	stmdaeq	r0, {r0, r3, r7, r9, fp, sp}
 80035d4:	08002d59 	stmdaeq	r0, {r0, r3, r4, r6, r8, sl, fp, sp}
 80035d8:	08002a39 	stmdaeq	r0, {r0, r3, r4, r5, r9, fp, sp}
 80035dc:	08002c41 	stmdaeq	r0, {r0, r6, sl, fp, sp}
 80035e0:	08002b31 	stmdaeq	r0, {r0, r4, r5, r8, r9, fp, sp}
 80035e4:	08003501 	stmdaeq	r0, {r0, r8, sl, ip, sp}
 80035e8:	08002a59 	stmdaeq	r0, {r0, r3, r4, r6, r9, fp, sp}
 80035ec:	080027e7 	stmdaeq	r0, {r0, r1, r2, r5, r6, r7, r8, r9, sl, sp}
 80035f0:	08003592 	stmdaeq	r0, {r1, r4, r7, r8, sl, ip, sp}

080035f4 <_DIGIT>:
 80035f4:	47494405 	strbmi	r4, [r9, -r5, lsl #8]
 80035f8:	bf005449 	svclt	0x00005449

080035fc <DIGIT>:
 80035fc:	4750      	bx	sl
 80035fe:	bf00      	nop
 8003600:	080029a7 	stmdaeq	r0, {r0, r1, r2, r5, r7, r8, fp, sp}
 8003604:	00000009 	andeq	r0, r0, r9
 8003608:	08002b45 	stmdaeq	r0, {r0, r2, r6, r8, r9, fp, sp}
 800360c:	08002ebd 	stmdaeq	r0, {r0, r2, r3, r4, r5, r7, r9, sl, fp, sp}
 8003610:	080029a7 	stmdaeq	r0, {r0, r1, r2, r5, r7, r8, fp, sp}
 8003614:	00000007 	andeq	r0, r0, r7
 8003618:	08002b65 	stmdaeq	r0, {r0, r2, r5, r6, r8, r9, fp, sp}
 800361c:	08002be5 	stmdaeq	r0, {r0, r2, r5, r6, r7, r8, r9, fp, sp}
 8003620:	080029a7 	stmdaeq	r0, {r0, r1, r2, r5, r7, r8, fp, sp}
 8003624:	00000030 	andeq	r0, r0, r0, lsr r0
 8003628:	08002be5 	stmdaeq	r0, {r0, r2, r5, r6, r7, r8, r9, fp, sp}
 800362c:	080027e7 	stmdaeq	r0, {r0, r1, r2, r5, r6, r7, r8, r9, sl, sp}
 8003630:	080035f4 	stmdaeq	r0, {r2, r4, r5, r6, r7, r8, sl, ip, sp}

08003634 <_EXTRC>:
 8003634:	54584507 	ldrbpl	r4, [r8], #-1287	; 0xfffffaf9
 8003638:	54434152 	strbpl	r4, [r3], #-338	; 0xfffffeae

0800363c <EXTRC>:
 800363c:	4750      	bx	sl
 800363e:	bf00      	nop
 8003640:	08003265 	stmdaeq	r0, {r0, r2, r5, r6, r9, ip, sp}
 8003644:	08002d09 	stmdaeq	r0, {r0, r3, r8, sl, fp, sp}
 8003648:	080035fd 	stmdaeq	r0, {r0, r2, r3, r4, r5, r6, r7, r8, sl, ip, sp}
 800364c:	080027e7 	stmdaeq	r0, {r0, r1, r2, r5, r6, r7, r8, r9, sl, sp}
 8003650:	08003634 	stmdaeq	r0, {r2, r4, r5, r9, sl, ip, sp}

08003654 <_BDIGS>:
 8003654:	00233c02 	eoreq	r3, r3, r2, lsl #24

08003658 <BDIGS>:
 8003658:	4750      	bx	sl
 800365a:	bf00      	nop
 800365c:	080034a9 	stmdaeq	r0, {r0, r3, r5, r7, sl, ip, sp}
 8003660:	08003091 	stmdaeq	r0, {r0, r4, r7, ip, sp}
 8003664:	08002a19 	stmdaeq	r0, {r0, r3, r4, r9, fp, sp}
 8003668:	080027e7 	stmdaeq	r0, {r0, r1, r2, r5, r6, r7, r8, r9, sl, sp}
 800366c:	08003654 	stmdaeq	r0, {r2, r4, r6, r9, sl, ip, sp}

08003670 <_HOLD>:
 8003670:	4c4f4804 	mcrrmi	8, 0, r4, pc, cr4
 8003674:	bf000044 	svclt	0x00000044

08003678 <HOLD>:
 8003678:	4750      	bx	sl
 800367a:	bf00      	nop
 800367c:	08003091 	stmdaeq	r0, {r0, r4, r7, ip, sp}
 8003680:	08002a2d 	stmdaeq	r0, {r0, r2, r3, r5, r9, fp, sp}
 8003684:	08002c51 	stmdaeq	r0, {r0, r4, r6, sl, fp, sp}
 8003688:	08002b21 	stmdaeq	r0, {r0, r5, r8, r9, fp, sp}
 800368c:	08003091 	stmdaeq	r0, {r0, r4, r7, ip, sp}
 8003690:	08002a19 	stmdaeq	r0, {r0, r3, r4, r9, fp, sp}
 8003694:	08002a39 	stmdaeq	r0, {r0, r3, r4, r5, r9, fp, sp}
 8003698:	080027e7 	stmdaeq	r0, {r0, r1, r2, r5, r6, r7, r8, r9, sl, sp}
 800369c:	08003670 	stmdaeq	r0, {r4, r5, r6, r9, sl, ip, sp}

080036a0 <_DIG>:
 80036a0:	bf002301 	svclt	0x00002301

080036a4 <DIG>:
 80036a4:	4750      	bx	sl
 80036a6:	bf00      	nop
 80036a8:	08003015 	stmdaeq	r0, {r0, r2, r4, ip, sp}
 80036ac:	08002a2d 	stmdaeq	r0, {r0, r2, r3, r5, r9, fp, sp}
 80036b0:	0800363d 	stmdaeq	r0, {r0, r2, r3, r4, r5, r9, sl, ip, sp}
 80036b4:	08003679 	stmdaeq	r0, {r0, r3, r4, r5, r6, r9, sl, ip, sp}
 80036b8:	080027e7 	stmdaeq	r0, {r0, r1, r2, r5, r6, r7, r8, r9, sl, sp}
 80036bc:	080036a0 	stmdaeq	r0, {r5, r7, r9, sl, ip, sp}

080036c0 <_DIGS>:
 80036c0:	00532302 	subseq	r2, r3, r2, lsl #6

080036c4 <DIGS>:
 80036c4:	4750      	bx	sl
 80036c6:	bf00      	nop

080036c8 <DIGS1>:
 80036c8:	080036a5 	stmdaeq	r0, {r0, r2, r5, r7, r9, sl, ip, sp}
 80036cc:	08002d59 	stmdaeq	r0, {r0, r3, r4, r6, r8, sl, fp, sp}
 80036d0:	08002b79 	stmdaeq	r0, {r0, r3, r4, r5, r6, r8, r9, fp, sp}
 80036d4:	080029e7 	stmdaeq	r0, {r0, r1, r2, r5, r6, r7, r8, fp, sp}
 80036d8:	080036e4 	stmdaeq	r0, {r2, r5, r6, r7, r9, sl, ip, sp}
 80036dc:	080029fb 	stmdaeq	r0, {r0, r1, r3, r4, r5, r6, r7, r8, fp, sp}
 80036e0:	080036c8 	stmdaeq	r0, {r3, r6, r7, r9, sl, ip, sp}

080036e4 <DIGS2>:
 80036e4:	08002b11 	stmdaeq	r0, {r0, r4, r8, r9, fp, sp}
 80036e8:	080027e7 	stmdaeq	r0, {r0, r1, r2, r5, r6, r7, r8, r9, sl, sp}
 80036ec:	080036c0 	stmdaeq	r0, {r6, r7, r9, sl, ip, sp}

080036f0 <_SIGN>:
 80036f0:	47495304 	strbmi	r5, [r9, -r4, lsl #6]
 80036f4:	bf00004e 	svclt	0x0000004e

080036f8 <SIGN>:
 80036f8:	4750      	bx	sl
 80036fa:	bf00      	nop
 80036fc:	08002b55 	stmdaeq	r0, {r0, r2, r4, r6, r8, r9, fp, sp}
 8003700:	080029e7 	stmdaeq	r0, {r0, r1, r2, r5, r6, r7, r8, fp, sp}
 8003704:	08003714 	stmdaeq	r0, {r2, r4, r8, r9, sl, ip, sp}
 8003708:	080029a7 	stmdaeq	r0, {r0, r1, r2, r5, r7, r8, fp, sp}
 800370c:	0000002d 	andeq	r0, r0, sp, lsr #32
 8003710:	08003679 	stmdaeq	r0, {r0, r3, r4, r5, r6, r9, sl, ip, sp}

08003714 <SIGN1>:
 8003714:	080027e7 	stmdaeq	r0, {r0, r1, r2, r5, r6, r7, r8, r9, sl, sp}
 8003718:	080036f0 	stmdaeq	r0, {r4, r5, r6, r7, r9, sl, ip, sp}

0800371c <_EDIGS>:
 800371c:	003e2302 	eorseq	r2, lr, r2, lsl #6

08003720 <EDIGS>:
 8003720:	4750      	bx	sl
 8003722:	bf00      	nop
 8003724:	08002b11 	stmdaeq	r0, {r0, r4, r8, r9, fp, sp}
 8003728:	08003091 	stmdaeq	r0, {r0, r4, r7, ip, sp}
 800372c:	08002a2d 	stmdaeq	r0, {r0, r2, r3, r5, r9, fp, sp}
 8003730:	080034a9 	stmdaeq	r0, {r0, r3, r5, r7, sl, ip, sp}
 8003734:	08002b45 	stmdaeq	r0, {r0, r2, r6, r8, r9, fp, sp}
 8003738:	08002bf5 	stmdaeq	r0, {r0, r2, r4, r5, r6, r7, r8, r9, fp, sp}
 800373c:	080027e7 	stmdaeq	r0, {r0, r1, r2, r5, r6, r7, r8, r9, sl, sp}

08003740 <STRR>:
 8003740:	4750      	bx	sl
 8003742:	bf00      	nop
 8003744:	0800321d 	stmdaeq	r0, {r0, r2, r3, r4, r9, ip, sp}
 8003748:	08002b21 	stmdaeq	r0, {r0, r5, r8, r9, fp, sp}
 800374c:	08002a9d 	stmdaeq	r0, {r0, r2, r3, r4, r7, r9, fp, sp}
 8003750:	08002d8d 	stmdaeq	r0, {r0, r2, r3, r7, r8, sl, fp, sp}
 8003754:	08003659 	stmdaeq	r0, {r0, r3, r4, r6, r9, sl, ip, sp}
 8003758:	080036c5 	stmdaeq	r0, {r0, r2, r6, r7, r9, sl, ip, sp}
 800375c:	08002a59 	stmdaeq	r0, {r0, r3, r4, r6, r9, fp, sp}
 8003760:	080036f9 	stmdaeq	r0, {r0, r3, r4, r5, r6, r7, r9, sl, ip, sp}
 8003764:	08003721 	stmdaeq	r0, {r0, r5, r8, r9, sl, ip, sp}
 8003768:	080027e7 	stmdaeq	r0, {r0, r1, r2, r5, r6, r7, r8, r9, sl, sp}
 800376c:	0800371c 	stmdaeq	r0, {r2, r3, r4, r8, r9, sl, ip, sp}

08003770 <_HEX>:
 8003770:	58454803 	stmdapl	r5, {r0, r1, fp, lr}^

08003774 <HEX>:
 8003774:	4750      	bx	sl
 8003776:	bf00      	nop
 8003778:	080029a7 	stmdaeq	r0, {r0, r1, r2, r5, r7, r8, fp, sp}
 800377c:	00000010 	andeq	r0, r0, r0, lsl r0
 8003780:	08003015 	stmdaeq	r0, {r0, r2, r4, ip, sp}
 8003784:	08002a19 	stmdaeq	r0, {r0, r3, r4, r9, fp, sp}
 8003788:	080027e7 	stmdaeq	r0, {r0, r1, r2, r5, r6, r7, r8, r9, sl, sp}
 800378c:	08003770 	stmdaeq	r0, {r4, r5, r6, r8, r9, sl, ip, sp}

08003790 <_BIN>:
 8003790:	4e494203 	cdpmi	2, 4, cr4, cr9, cr3, {0}

08003794 <BIN>:
 8003794:	4750      	bx	sl
 8003796:	bf00      	nop
 8003798:	080029a7 	stmdaeq	r0, {r0, r1, r2, r5, r7, r8, fp, sp}
 800379c:	00000002 	andeq	r0, r0, r2
 80037a0:	08003015 	stmdaeq	r0, {r0, r2, r4, ip, sp}
 80037a4:	08002a19 	stmdaeq	r0, {r0, r3, r4, r9, fp, sp}
 80037a8:	080027e7 	stmdaeq	r0, {r0, r1, r2, r5, r6, r7, r8, r9, sl, sp}
 80037ac:	08003790 	stmdaeq	r0, {r4, r7, r8, r9, sl, ip, sp}

080037b0 <_DECIM>:
 80037b0:	43454407 	movtmi	r4, #21511	; 0x5407
 80037b4:	4c414d49 	mcrrmi	13, 4, r4, r1, cr9

080037b8 <DECIM>:
 80037b8:	4750      	bx	sl
 80037ba:	bf00      	nop
 80037bc:	080029a7 	stmdaeq	r0, {r0, r1, r2, r5, r7, r8, fp, sp}
 80037c0:	0000000a 	andeq	r0, r0, sl
 80037c4:	08003015 	stmdaeq	r0, {r0, r2, r4, ip, sp}
 80037c8:	08002a19 	stmdaeq	r0, {r0, r3, r4, r9, fp, sp}
 80037cc:	080027e7 	stmdaeq	r0, {r0, r1, r2, r5, r6, r7, r8, r9, sl, sp}
 80037d0:	080037b0 	stmdaeq	r0, {r4, r5, r7, r8, r9, sl, ip, sp}

080037d4 <_DIGTQ>:
 80037d4:	47494406 	strbmi	r4, [r9, -r6, lsl #8]
 80037d8:	003f5449 	eorseq	r5, pc, r9, asr #8

080037dc <DIGTQ>:
 80037dc:	4750      	bx	sl
 80037de:	bf00      	nop
 80037e0:	08002a9d 	stmdaeq	r0, {r0, r2, r3, r4, r7, r9, fp, sp}
 80037e4:	080029a7 	stmdaeq	r0, {r0, r1, r2, r5, r7, r8, fp, sp}
 80037e8:	00000030 	andeq	r0, r0, r0, lsr r0
 80037ec:	08002bf5 	stmdaeq	r0, {r0, r2, r4, r5, r6, r7, r8, r9, fp, sp}
 80037f0:	080029a7 	stmdaeq	r0, {r0, r1, r2, r5, r7, r8, fp, sp}
 80037f4:	00000009 	andeq	r0, r0, r9
 80037f8:	08002b45 	stmdaeq	r0, {r0, r2, r6, r8, r9, fp, sp}
 80037fc:	08002ebd 	stmdaeq	r0, {r0, r2, r3, r4, r5, r7, r9, sl, fp, sp}
 8003800:	080029e7 	stmdaeq	r0, {r0, r1, r2, r5, r6, r7, r8, fp, sp}
 8003804:	08003828 	stmdaeq	r0, {r3, r5, fp, ip, sp}
 8003808:	080029a7 	stmdaeq	r0, {r0, r1, r2, r5, r7, r8, fp, sp}
 800380c:	00000007 	andeq	r0, r0, r7
 8003810:	08002bf5 	stmdaeq	r0, {r0, r2, r4, r5, r6, r7, r8, r9, fp, sp}
 8003814:	08002b21 	stmdaeq	r0, {r0, r5, r8, r9, fp, sp}
 8003818:	080029a7 	stmdaeq	r0, {r0, r1, r2, r5, r7, r8, fp, sp}
 800381c:	0000000a 	andeq	r0, r0, sl
 8003820:	08002ebd 	stmdaeq	r0, {r0, r2, r3, r4, r5, r7, r9, sl, fp, sp}
 8003824:	08002b79 	stmdaeq	r0, {r0, r3, r4, r5, r6, r8, r9, fp, sp}

08003828 <DGTQ1>:
 8003828:	08002b21 	stmdaeq	r0, {r0, r5, r8, r9, fp, sp}
 800382c:	08002a59 	stmdaeq	r0, {r0, r3, r4, r6, r9, fp, sp}
 8003830:	08002ea5 	stmdaeq	r0, {r0, r2, r5, r7, r9, sl, fp, sp}
 8003834:	080027e7 	stmdaeq	r0, {r0, r1, r2, r5, r6, r7, r8, r9, sl, sp}

08003838 <PARSE_DIGITS>:
 8003838:	4750      	bx	sl
 800383a:	bf00      	nop
 800383c:	08003015 	stmdaeq	r0, {r0, r2, r4, ip, sp}
 8003840:	08002a2d 	stmdaeq	r0, {r0, r2, r3, r5, r9, fp, sp}
 8003844:	08002a9d 	stmdaeq	r0, {r0, r2, r3, r4, r7, r9, fp, sp}
 8003848:	08002f75 	stmdaeq	r0, {r0, r2, r4, r5, r6, r8, r9, sl, fp, sp}
 800384c:	08002a89 	stmdaeq	r0, {r0, r3, r7, r9, fp, sp}
 8003850:	080037dd 	stmdaeq	r0, {r0, r2, r3, r4, r6, r7, r8, r9, sl, ip, sp}
 8003854:	080029e7 	stmdaeq	r0, {r0, r1, r2, r5, r6, r7, r8, fp, sp}
 8003858:	08003884 	stmdaeq	r0, {r2, r7, fp, ip, sp}
 800385c:	08002d09 	stmdaeq	r0, {r0, r3, r8, sl, fp, sp}
 8003860:	08002a89 	stmdaeq	r0, {r0, r3, r7, r9, fp, sp}
 8003864:	08002c05 	stmdaeq	r0, {r0, r2, sl, fp, sp}
 8003868:	08002be5 	stmdaeq	r0, {r0, r2, r5, r6, r7, r8, r9, fp, sp}
 800386c:	08002b31 	stmdaeq	r0, {r0, r4, r5, r8, r9, fp, sp}
 8003870:	08002d09 	stmdaeq	r0, {r0, r3, r8, sl, fp, sp}
 8003874:	08002c41 	stmdaeq	r0, {r0, r6, sl, fp, sp}
 8003878:	08002d1d 	stmdaeq	r0, {r0, r2, r3, r4, r8, sl, fp, sp}
 800387c:	080029fb 	stmdaeq	r0, {r0, r1, r3, r4, r5, r6, r7, r8, fp, sp}
 8003880:	08003848 	stmdaeq	r0, {r3, r6, fp, ip, sp}
 8003884:	08002b11 	stmdaeq	r0, {r0, r4, r8, r9, fp, sp}
 8003888:	08002c51 	stmdaeq	r0, {r0, r4, r6, sl, fp, sp}
 800388c:	08002a59 	stmdaeq	r0, {r0, r3, r4, r6, r9, fp, sp}
 8003890:	08002b11 	stmdaeq	r0, {r0, r4, r8, r9, fp, sp}
 8003894:	080027e7 	stmdaeq	r0, {r0, r1, r2, r5, r6, r7, r8, r9, sl, sp}

08003898 <CHARQ>:
 8003898:	6838      	ldr	r0, [r7, #0]
 800389a:	f810 1b01 	ldrb.w	r1, [r0], #1
 800389e:	4632      	mov	r2, r6
 80038a0:	ea86 0606 	eor.w	r6, r6, r6
 80038a4:	4291      	cmp	r1, r2
 80038a6:	d102      	bne.n	80038ae <CHARQ+0x16>
 80038a8:	6038      	str	r0, [r7, #0]
 80038aa:	ea6f 0606 	mvn.w	r6, r6
 80038ae:	f7fe bf97 	b.w	80027e0 <INEXT>

080038b2 <NEGQ>:
 80038b2:	4750      	bx	sl
 80038b4:	bf00      	nop
 80038b6:	080029a7 	stmdaeq	r0, {r0, r1, r2, r5, r7, r8, fp, sp}
 80038ba:	0000002d 	andeq	r0, r0, sp, lsr #32
 80038be:	08003899 	stmdaeq	r0, {r0, r3, r4, r7, fp, ip, sp}
 80038c2:	08002b21 	stmdaeq	r0, {r0, r5, r8, r9, fp, sp}
 80038c6:	080029e7 	stmdaeq	r0, {r0, r1, r2, r5, r6, r7, r8, fp, sp}
 80038ca:	080038d6 	stmdaeq	r0, {r1, r2, r4, r6, r7, fp, ip, sp}
 80038ce:	080029fb 	stmdaeq	r0, {r0, r1, r3, r4, r5, r6, r7, r8, fp, sp}
 80038d2:	080038ee 	stmdaeq	r0, {r1, r2, r3, r5, r6, r7, fp, ip, sp}
 80038d6:	08002b31 	stmdaeq	r0, {r0, r4, r5, r8, r9, fp, sp}
 80038da:	080029a7 	stmdaeq	r0, {r0, r1, r2, r5, r7, r8, fp, sp}
 80038de:	0000002b 	andeq	r0, r0, fp, lsr #32
 80038e2:	08003899 	stmdaeq	r0, {r0, r3, r4, r7, fp, ip, sp}
 80038e6:	08002b11 	stmdaeq	r0, {r0, r4, r8, r9, fp, sp}
 80038ea:	08002b31 	stmdaeq	r0, {r0, r4, r5, r8, r9, fp, sp}
 80038ee:	080027e7 	stmdaeq	r0, {r0, r1, r2, r5, r6, r7, r8, r9, sl, sp}
 80038f2:	080037d4 	stmdaeq	r0, {r2, r4, r6, r7, r8, r9, sl, ip, sp}

080038f6 <_INTQ>:
 80038f6:	544e4904 	strbpl	r4, [lr], #-2308	; 0xfffff6fc
 80038fa:	 	smmlarmi	r0, pc, r0, r0	; <UNPREDICTABLE>

080038fc <INTQ>:
 80038fc:	4750      	bx	sl
 80038fe:	bf00      	nop
 8003900:	08003015 	stmdaeq	r0, {r0, r2, r4, ip, sp}
 8003904:	08002a2d 	stmdaeq	r0, {r0, r2, r3, r5, r9, fp, sp}
 8003908:	08002a9d 	stmdaeq	r0, {r0, r2, r3, r4, r7, r9, fp, sp}
 800390c:	080029a7 	stmdaeq	r0, {r0, r1, r2, r5, r7, r8, fp, sp}
 8003910:	00000000 	andeq	r0, r0, r0
 8003914:	08002b45 	stmdaeq	r0, {r0, r2, r6, r8, r9, fp, sp}
 8003918:	08002f75 	stmdaeq	r0, {r0, r2, r4, r5, r6, r8, r9, sl, fp, sp}
 800391c:	08002b31 	stmdaeq	r0, {r0, r4, r5, r8, r9, fp, sp}
 8003920:	080029a7 	stmdaeq	r0, {r0, r1, r2, r5, r7, r8, fp, sp}
 8003924:	00000024 	andeq	r0, r0, r4, lsr #32
 8003928:	08003899 	stmdaeq	r0, {r0, r3, r4, r7, fp, ip, sp}
 800392c:	080029e7 	stmdaeq	r0, {r0, r1, r2, r5, r6, r7, r8, fp, sp}
 8003930:	08003940 	stmdaeq	r0, {r6, r8, fp, ip, sp}
 8003934:	08003775 	stmdaeq	r0, {r0, r2, r4, r5, r6, r8, r9, sl, ip, sp}
 8003938:	080029fb 	stmdaeq	r0, {r0, r1, r3, r4, r5, r6, r7, r8, fp, sp}
 800393c:	08003958 	stmdaeq	r0, {r3, r4, r6, r8, fp, ip, sp}
 8003940:	080029a7 	stmdaeq	r0, {r0, r1, r2, r5, r7, r8, fp, sp}
 8003944:	00000025 	andeq	r0, r0, r5, lsr #32
 8003948:	08003899 	stmdaeq	r0, {r0, r3, r4, r7, fp, ip, sp}
 800394c:	080029e7 	stmdaeq	r0, {r0, r1, r2, r5, r6, r7, r8, fp, sp}
 8003950:	08003964 	stmdaeq	r0, {r2, r5, r6, r8, fp, ip, sp}
 8003954:	08003795 	stmdaeq	r0, {r0, r2, r4, r7, r8, r9, sl, ip, sp}
 8003958:	08002b31 	stmdaeq	r0, {r0, r4, r5, r8, r9, fp, sp}
 800395c:	08002c51 	stmdaeq	r0, {r0, r4, r6, sl, fp, sp}
 8003960:	08002b31 	stmdaeq	r0, {r0, r4, r5, r8, r9, fp, sp}
 8003964:	08002b21 	stmdaeq	r0, {r0, r5, r8, r9, fp, sp}
 8003968:	080038b3 	stmdaeq	r0, {r0, r1, r4, r5, r7, fp, ip, sp}
 800396c:	08002a9d 	stmdaeq	r0, {r0, r2, r3, r4, r7, r9, fp, sp}
 8003970:	08002b21 	stmdaeq	r0, {r0, r5, r8, r9, fp, sp}
 8003974:	08002d09 	stmdaeq	r0, {r0, r3, r8, sl, fp, sp}
 8003978:	08002bf5 	stmdaeq	r0, {r0, r2, r4, r5, r6, r7, r8, r9, fp, sp}
 800397c:	080029e7 	stmdaeq	r0, {r0, r1, r2, r5, r6, r7, r8, fp, sp}
 8003980:	08003990 	stmdaeq	r0, {r4, r7, r8, fp, ip, sp}
 8003984:	08002b31 	stmdaeq	r0, {r0, r4, r5, r8, r9, fp, sp}
 8003988:	08002c51 	stmdaeq	r0, {r0, r4, r6, sl, fp, sp}
 800398c:	08002b31 	stmdaeq	r0, {r0, r4, r5, r8, r9, fp, sp}
 8003990:	08002b31 	stmdaeq	r0, {r0, r4, r5, r8, r9, fp, sp}
 8003994:	08002a9d 	stmdaeq	r0, {r0, r2, r3, r4, r7, r9, fp, sp}
 8003998:	080029a7 	stmdaeq	r0, {r0, r1, r2, r5, r7, r8, fp, sp}
 800399c:	00000000 	andeq	r0, r0, r0
 80039a0:	08002b21 	stmdaeq	r0, {r0, r5, r8, r9, fp, sp}
 80039a4:	08002d09 	stmdaeq	r0, {r0, r3, r8, sl, fp, sp}
 80039a8:	08003839 	stmdaeq	r0, {r0, r3, r4, r5, fp, ip, sp}
 80039ac:	08002b11 	stmdaeq	r0, {r0, r4, r8, r9, fp, sp}
 80039b0:	08002b31 	stmdaeq	r0, {r0, r4, r5, r8, r9, fp, sp}
 80039b4:	08002a59 	stmdaeq	r0, {r0, r3, r4, r6, r9, fp, sp}
 80039b8:	08002e6d 	stmdaeq	r0, {r0, r2, r3, r5, r6, r9, sl, fp, sp}
 80039bc:	080029e7 	stmdaeq	r0, {r0, r1, r2, r5, r6, r7, r8, fp, sp}
 80039c0:	080039ec 	stmdaeq	r0, {r2, r3, r5, r6, r7, r8, fp, ip, sp}
 80039c4:	08002a59 	stmdaeq	r0, {r0, r3, r4, r6, r9, fp, sp}
 80039c8:	080029e7 	stmdaeq	r0, {r0, r1, r2, r5, r6, r7, r8, fp, sp}
 80039cc:	080039d4 	stmdaeq	r0, {r2, r4, r6, r7, r8, fp, ip, sp}
 80039d0:	08002e05 	stmdaeq	r0, {r0, r2, r9, sl, fp, sp}
 80039d4:	08002d1d 	stmdaeq	r0, {r0, r2, r3, r4, r8, sl, fp, sp}
 80039d8:	08002d31 	stmdaeq	r0, {r0, r4, r5, r8, sl, fp, sp}
 80039dc:	080029a7 	stmdaeq	r0, {r0, r1, r2, r5, r7, r8, fp, sp}
 80039e0:	ffffffff 			; <UNDEFINED> instruction: 0xffffffff
 80039e4:	080029fb 	stmdaeq	r0, {r0, r1, r3, r4, r5, r6, r7, r8, fp, sp}
 80039e8:	080039f4 	stmdaeq	r0, {r2, r4, r5, r6, r7, r8, fp, ip, sp}
 80039ec:	08002a59 	stmdaeq	r0, {r0, r3, r4, r6, r9, fp, sp}
 80039f0:	08002d31 	stmdaeq	r0, {r0, r4, r5, r8, sl, fp, sp}
 80039f4:	08002a59 	stmdaeq	r0, {r0, r3, r4, r6, r9, fp, sp}
 80039f8:	08003015 	stmdaeq	r0, {r0, r2, r4, ip, sp}
 80039fc:	08002a19 	stmdaeq	r0, {r0, r3, r4, r9, fp, sp}
 8003a00:	080027e7 	stmdaeq	r0, {r0, r1, r2, r5, r6, r7, r8, r9, sl, sp}
 8003a04:	080038f6 	stmdaeq	r0, {r1, r2, r4, r5, r6, r7, fp, ip, sp}

08003a08 <_SPACE>:
 8003a08:	41505305 	cmpmi	r0, r5, lsl #6
 8003a0c:	bf004543 	svclt	0x00004543

08003a10 <SPACE>:
 8003a10:	4750      	bx	sl
 8003a12:	bf00      	nop
 8003a14:	08002ca1 	stmdaeq	r0, {r0, r5, r7, sl, fp, sp}
 8003a18:	080028b1 	stmdaeq	r0, {r0, r4, r5, r7, fp, sp}
 8003a1c:	080027e7 	stmdaeq	r0, {r0, r1, r2, r5, r6, r7, r8, r9, sl, sp}
 8003a20:	08003a08 	stmdaeq	r0, {r3, r9, fp, ip, sp}

08003a24 <_SPACS>:
 8003a24:	41505306 	cmpmi	r0, r6, lsl #6
 8003a28:	00534543 	subseq	r4, r3, r3, asr #10

08003a2c <SPACS>:
 8003a2c:	4750      	bx	sl
 8003a2e:	bf00      	nop
 8003a30:	080029a7 	stmdaeq	r0, {r0, r1, r2, r5, r7, r8, fp, sp}
 8003a34:	00000000 	andeq	r0, r0, r0
 8003a38:	08002f05 	stmdaeq	r0, {r0, r2, r8, r9, sl, fp, sp}
 8003a3c:	08002a9d 	stmdaeq	r0, {r0, r2, r3, r4, r7, r9, fp, sp}
 8003a40:	080029fb 	stmdaeq	r0, {r0, r1, r3, r4, r5, r6, r7, r8, fp, sp}
 8003a44:	08003a4c 	stmdaeq	r0, {r2, r3, r6, r9, fp, ip, sp}

08003a48 <CHAR1>:
 8003a48:	08003a11 	stmdaeq	r0, {r0, r4, r9, fp, ip, sp}

08003a4c <CHAR2>:
 8003a4c:	080029c9 	stmdaeq	r0, {r0, r3, r6, r7, r8, fp, sp}
 8003a50:	08003a48 	stmdaeq	r0, {r3, r6, r9, fp, ip, sp}
 8003a54:	080027e7 	stmdaeq	r0, {r0, r1, r2, r5, r6, r7, r8, r9, sl, sp}
 8003a58:	08003a24 	stmdaeq	r0, {r2, r5, r9, fp, ip, sp}

08003a5c <_TYPEE>:
 8003a5c:	50595404 	subspl	r5, r9, r4, lsl #8
 8003a60:	bf000045 	svclt	0x00000045

08003a64 <TYPEE>:
 8003a64:	4750      	bx	sl
 8003a66:	bf00      	nop
 8003a68:	08002a9d 	stmdaeq	r0, {r0, r2, r3, r4, r7, r9, fp, sp}
 8003a6c:	080029fb 	stmdaeq	r0, {r0, r1, r3, r4, r5, r6, r7, r8, fp, sp}
 8003a70:	08003a80 	stmdaeq	r0, {r7, r9, fp, ip, sp}

08003a74 <TYPE1>:
 8003a74:	08002f75 	stmdaeq	r0, {r0, r2, r4, r5, r6, r8, r9, sl, fp, sp}
 8003a78:	080033f9 	stmdaeq	r0, {r0, r3, r4, r5, r6, r7, r8, r9, ip, sp}
 8003a7c:	080028b1 	stmdaeq	r0, {r0, r4, r5, r7, fp, sp}

08003a80 <TYPE2>:
 8003a80:	080029c9 	stmdaeq	r0, {r0, r3, r6, r7, r8, fp, sp}
 8003a84:	08003a74 	stmdaeq	r0, {r2, r4, r5, r6, r9, fp, ip, sp}
 8003a88:	08002b11 	stmdaeq	r0, {r0, r4, r8, r9, fp, sp}
 8003a8c:	080027e7 	stmdaeq	r0, {r0, r1, r2, r5, r6, r7, r8, r9, sl, sp}
 8003a90:	08003a5c 	stmdaeq	r0, {r2, r3, r4, r6, r9, fp, ip, sp}

08003a94 <_CR>:
 8003a94:	00524302 	subseq	r4, r2, r2, lsl #6

08003a98 <CR>:
 8003a98:	4750      	bx	sl
 8003a9a:	bf00      	nop
 8003a9c:	080029a7 	stmdaeq	r0, {r0, r1, r2, r5, r7, r8, fp, sp}
 8003aa0:	0000000d 	andeq	r0, r0, sp
 8003aa4:	080028b1 	stmdaeq	r0, {r0, r4, r5, r7, fp, sp}
 8003aa8:	080029a7 	stmdaeq	r0, {r0, r1, r2, r5, r7, r8, fp, sp}
 8003aac:	0000000a 	andeq	r0, r0, sl
 8003ab0:	080028b1 	stmdaeq	r0, {r0, r4, r5, r7, fp, sp}
 8003ab4:	080027e7 	stmdaeq	r0, {r0, r1, r2, r5, r6, r7, r8, r9, sl, sp}

08003ab8 <DOSTR>:
 8003ab8:	4750      	bx	sl
 8003aba:	bf00      	nop
 8003abc:	08002a59 	stmdaeq	r0, {r0, r3, r4, r6, r9, fp, sp}
 8003ac0:	08002a59 	stmdaeq	r0, {r0, r3, r4, r6, r9, fp, sp}
 8003ac4:	08002b21 	stmdaeq	r0, {r0, r5, r8, r9, fp, sp}
 8003ac8:	08002f75 	stmdaeq	r0, {r0, r2, r4, r5, r6, r8, r9, sl, fp, sp}
 8003acc:	08002be5 	stmdaeq	r0, {r0, r2, r5, r6, r7, r8, r9, fp, sp}
 8003ad0:	080033dd 	stmdaeq	r0, {r0, r2, r3, r4, r6, r7, r8, r9, ip, sp}
 8003ad4:	08002a9d 	stmdaeq	r0, {r0, r2, r3, r4, r7, r9, fp, sp}
 8003ad8:	08002b31 	stmdaeq	r0, {r0, r4, r5, r8, r9, fp, sp}
 8003adc:	08002a9d 	stmdaeq	r0, {r0, r2, r3, r4, r7, r9, fp, sp}
 8003ae0:	080027e7 	stmdaeq	r0, {r0, r1, r2, r5, r6, r7, r8, r9, sl, sp}

08003ae4 <STRQP>:
 8003ae4:	4750      	bx	sl
 8003ae6:	bf00      	nop
 8003ae8:	08003ab9 	stmdaeq	r0, {r0, r3, r4, r5, r7, r9, fp, ip, sp}
 8003aec:	080027e7 	stmdaeq	r0, {r0, r1, r2, r5, r6, r7, r8, r9, sl, sp}

08003af0 <DOTST>:
 8003af0:	4750      	bx	sl
 8003af2:	bf00      	nop
 8003af4:	08002f75 	stmdaeq	r0, {r0, r2, r4, r5, r6, r8, r9, sl, fp, sp}
 8003af8:	08003a65 	stmdaeq	r0, {r0, r2, r5, r6, r9, fp, ip, sp}
 8003afc:	080027e7 	stmdaeq	r0, {r0, r1, r2, r5, r6, r7, r8, r9, sl, sp}

08003b00 <DOTQP>:
 8003b00:	4750      	bx	sl
 8003b02:	bf00      	nop
 8003b04:	08003ab9 	stmdaeq	r0, {r0, r3, r4, r5, r7, r9, fp, ip, sp}
 8003b08:	08003af1 	stmdaeq	r0, {r0, r4, r5, r6, r7, r9, fp, ip, sp}
 8003b0c:	080027e7 	stmdaeq	r0, {r0, r1, r2, r5, r6, r7, r8, r9, sl, sp}
 8003b10:	08003a94 	stmdaeq	r0, {r2, r4, r7, r9, fp, ip, sp}

08003b14 <_DOTR>:
 8003b14:	00522e02 	subseq	r2, r2, r2, lsl #28

08003b18 <DOTR>:
 8003b18:	4750      	bx	sl
 8003b1a:	bf00      	nop
 8003b1c:	08002a9d 	stmdaeq	r0, {r0, r2, r3, r4, r7, r9, fp, sp}
 8003b20:	08003741 	stmdaeq	r0, {r0, r6, r8, r9, sl, ip, sp}
 8003b24:	08002a59 	stmdaeq	r0, {r0, r3, r4, r6, r9, fp, sp}
 8003b28:	08002b45 	stmdaeq	r0, {r0, r2, r6, r8, r9, fp, sp}
 8003b2c:	08002bf5 	stmdaeq	r0, {r0, r2, r4, r5, r6, r7, r8, r9, fp, sp}
 8003b30:	08003a2d 	stmdaeq	r0, {r0, r2, r3, r5, r9, fp, ip, sp}
 8003b34:	08003a65 	stmdaeq	r0, {r0, r2, r5, r6, r9, fp, ip, sp}
 8003b38:	080027e7 	stmdaeq	r0, {r0, r1, r2, r5, r6, r7, r8, r9, sl, sp}
 8003b3c:	08003b14 	stmdaeq	r0, {r2, r4, r8, r9, fp, ip, sp}

08003b40 <_UDOTR>:
 8003b40:	522e5503 	eorpl	r5, lr, #12582912	; 0xc00000

08003b44 <UDOTR>:
 8003b44:	4750      	bx	sl
 8003b46:	bf00      	nop
 8003b48:	08002b31 	stmdaeq	r0, {r0, r4, r5, r8, r9, fp, sp}
 8003b4c:	0800321d 	stmdaeq	r0, {r0, r2, r3, r4, r9, ip, sp}
 8003b50:	08002d09 	stmdaeq	r0, {r0, r3, r8, sl, fp, sp}
 8003b54:	08002a9d 	stmdaeq	r0, {r0, r2, r3, r4, r7, r9, fp, sp}
 8003b58:	08003659 	stmdaeq	r0, {r0, r3, r4, r6, r9, sl, ip, sp}
 8003b5c:	080036c5 	stmdaeq	r0, {r0, r2, r6, r7, r9, sl, ip, sp}
 8003b60:	08003721 	stmdaeq	r0, {r0, r5, r8, r9, sl, ip, sp}
 8003b64:	08002a59 	stmdaeq	r0, {r0, r3, r4, r6, r9, fp, sp}
 8003b68:	08002b45 	stmdaeq	r0, {r0, r2, r6, r8, r9, fp, sp}
 8003b6c:	08002bf5 	stmdaeq	r0, {r0, r2, r4, r5, r6, r7, r8, r9, fp, sp}
 8003b70:	08003a2d 	stmdaeq	r0, {r0, r2, r3, r5, r9, fp, ip, sp}
 8003b74:	08003a65 	stmdaeq	r0, {r0, r2, r5, r6, r9, fp, ip, sp}
 8003b78:	080027e7 	stmdaeq	r0, {r0, r1, r2, r5, r6, r7, r8, r9, sl, sp}
 8003b7c:	08003b40 	stmdaeq	r0, {r6, r8, r9, fp, ip, sp}

08003b80 <_UDOT>:
 8003b80:	002e5502 	eoreq	r5, lr, r2, lsl #10

08003b84 <UDOT>:
 8003b84:	4750      	bx	sl
 8003b86:	bf00      	nop
 8003b88:	0800321d 	stmdaeq	r0, {r0, r2, r3, r4, r9, ip, sp}
 8003b8c:	08003659 	stmdaeq	r0, {r0, r3, r4, r6, r9, sl, ip, sp}
 8003b90:	080036c5 	stmdaeq	r0, {r0, r2, r6, r7, r9, sl, ip, sp}
 8003b94:	08003721 	stmdaeq	r0, {r0, r5, r8, r9, sl, ip, sp}
 8003b98:	08003a11 	stmdaeq	r0, {r0, r4, r9, fp, ip, sp}
 8003b9c:	08003a65 	stmdaeq	r0, {r0, r2, r5, r6, r9, fp, ip, sp}
 8003ba0:	080027e7 	stmdaeq	r0, {r0, r1, r2, r5, r6, r7, r8, r9, sl, sp}
 8003ba4:	08003b80 	stmdaeq	r0, {r7, r8, r9, fp, ip, sp}

08003ba8 <_DOT>:
 8003ba8:	bf002e01 	svclt	0x00002e01

08003bac <DOT>:
 8003bac:	4750      	bx	sl
 8003bae:	bf00      	nop
 8003bb0:	08003015 	stmdaeq	r0, {r0, r2, r4, ip, sp}
 8003bb4:	08002a2d 	stmdaeq	r0, {r0, r2, r3, r5, r9, fp, sp}
 8003bb8:	080029a7 	stmdaeq	r0, {r0, r1, r2, r5, r7, r8, fp, sp}
 8003bbc:	0000000a 	andeq	r0, r0, sl
 8003bc0:	08002b8d 	stmdaeq	r0, {r0, r2, r3, r7, r8, r9, fp, sp}
 8003bc4:	080029e7 	stmdaeq	r0, {r0, r1, r2, r5, r6, r7, r8, fp, sp}
 8003bc8:	08003bd4 	stmdaeq	r0, {r2, r4, r6, r7, r8, r9, fp, ip, sp}
 8003bcc:	08003b85 	stmdaeq	r0, {r0, r2, r7, r8, r9, fp, ip, sp}
 8003bd0:	080027e7 	stmdaeq	r0, {r0, r1, r2, r5, r6, r7, r8, r9, sl, sp}

08003bd4 <DOT1>:
 8003bd4:	08003741 	stmdaeq	r0, {r0, r6, r8, r9, sl, ip, sp}
 8003bd8:	08003a11 	stmdaeq	r0, {r0, r4, r9, fp, ip, sp}
 8003bdc:	08003a65 	stmdaeq	r0, {r0, r2, r5, r6, r9, fp, ip, sp}
 8003be0:	080027e7 	stmdaeq	r0, {r0, r1, r2, r5, r6, r7, r8, r9, sl, sp}
 8003be4:	08003ba8 	stmdaeq	r0, {r3, r5, r7, r8, r9, fp, ip, sp}

08003be8 <_DDOT>:
 8003be8:	002e4402 	eoreq	r4, lr, r2, lsl #8

08003bec <DDOT>:
 8003bec:	4750      	bx	sl
 8003bee:	bf00      	nop
 8003bf0:	08002b21 	stmdaeq	r0, {r0, r5, r8, r9, fp, sp}
 8003bf4:	08002a9d 	stmdaeq	r0, {r0, r2, r3, r4, r7, r9, fp, sp}
 8003bf8:	08002d8d 	stmdaeq	r0, {r0, r2, r3, r7, r8, sl, fp, sp}
 8003bfc:	08003659 	stmdaeq	r0, {r0, r3, r4, r6, r9, sl, ip, sp}
 8003c00:	080036c5 	stmdaeq	r0, {r0, r2, r6, r7, r9, sl, ip, sp}
 8003c04:	08002a59 	stmdaeq	r0, {r0, r3, r4, r6, r9, fp, sp}
 8003c08:	080036f9 	stmdaeq	r0, {r0, r3, r4, r5, r6, r7, r9, sl, ip, sp}
 8003c0c:	08003721 	stmdaeq	r0, {r0, r5, r8, r9, sl, ip, sp}
 8003c10:	08003a11 	stmdaeq	r0, {r0, r4, r9, fp, ip, sp}
 8003c14:	08003a65 	stmdaeq	r0, {r0, r2, r5, r6, r9, fp, ip, sp}
 8003c18:	080027e7 	stmdaeq	r0, {r0, r1, r2, r5, r6, r7, r8, r9, sl, sp}
 8003c1c:	08003be8 	stmdaeq	r0, {r3, r5, r6, r7, r8, r9, fp, ip, sp}

08003c20 <_HDOT>:
 8003c20:	002e4802 	eoreq	r4, lr, r2, lsl #16

08003c24 <HDOT>:
 8003c24:	4750      	bx	sl
 8003c26:	bf00      	nop
 8003c28:	08003015 	stmdaeq	r0, {r0, r2, r4, ip, sp}
 8003c2c:	08002a2d 	stmdaeq	r0, {r0, r2, r3, r5, r9, fp, sp}
 8003c30:	08002b31 	stmdaeq	r0, {r0, r4, r5, r8, r9, fp, sp}
 8003c34:	08003775 	stmdaeq	r0, {r0, r2, r4, r5, r6, r8, r9, sl, ip, sp}
 8003c38:	080029a7 	stmdaeq	r0, {r0, r1, r2, r5, r7, r8, fp, sp}
 8003c3c:	00000000 	andeq	r0, r0, r0
 8003c40:	08003659 	stmdaeq	r0, {r0, r3, r4, r6, r9, sl, ip, sp}
 8003c44:	080036c5 	stmdaeq	r0, {r0, r2, r6, r7, r9, sl, ip, sp}
 8003c48:	08003721 	stmdaeq	r0, {r0, r5, r8, r9, sl, ip, sp}
 8003c4c:	08003a11 	stmdaeq	r0, {r0, r4, r9, fp, ip, sp}
 8003c50:	080029a7 	stmdaeq	r0, {r0, r1, r2, r5, r7, r8, fp, sp}
 8003c54:	00000024 	andeq	r0, r0, r4, lsr #32
 8003c58:	080028b1 	stmdaeq	r0, {r0, r4, r5, r7, fp, sp}
 8003c5c:	08003a65 	stmdaeq	r0, {r0, r2, r5, r6, r9, fp, ip, sp}
 8003c60:	08003015 	stmdaeq	r0, {r0, r2, r4, ip, sp}
 8003c64:	08002a19 	stmdaeq	r0, {r0, r3, r4, r9, fp, sp}
 8003c68:	080027e7 	stmdaeq	r0, {r0, r1, r2, r5, r6, r7, r8, r9, sl, sp}
 8003c6c:	08003c20 	stmdaeq	r0, {r5, sl, fp, ip, sp}

08003c70 <_QUEST>:
 8003c70:	bf003f01 	svclt	0x00003f01

08003c74 <QUEST>:
 8003c74:	4750      	bx	sl
 8003c76:	bf00      	nop
 8003c78:	08002a2d 	stmdaeq	r0, {r0, r2, r3, r5, r9, fp, sp}
 8003c7c:	08003bad 	stmdaeq	r0, {r0, r2, r3, r5, r7, r8, r9, fp, ip, sp}
 8003c80:	080027e7 	stmdaeq	r0, {r0, r1, r2, r5, r6, r7, r8, r9, sl, sp}

08003c84 <PARS>:
 8003c84:	4750      	bx	sl
 8003c86:	bf00      	nop
 8003c88:	08003021 	stmdaeq	r0, {r0, r5, ip, sp}
 8003c8c:	08002a19 	stmdaeq	r0, {r0, r3, r4, r9, fp, sp}
 8003c90:	08002b45 	stmdaeq	r0, {r0, r2, r6, r8, r9, fp, sp}
 8003c94:	08002a9d 	stmdaeq	r0, {r0, r2, r3, r4, r7, r9, fp, sp}
 8003c98:	08002b21 	stmdaeq	r0, {r0, r5, r8, r9, fp, sp}
 8003c9c:	080029e7 	stmdaeq	r0, {r0, r1, r2, r5, r6, r7, r8, fp, sp}
 8003ca0:	08003d98 	stmdaeq	r0, {r3, r4, r7, r8, sl, fp, ip, sp}
 8003ca4:	08002c51 	stmdaeq	r0, {r0, r4, r6, sl, fp, sp}
 8003ca8:	08003021 	stmdaeq	r0, {r0, r5, ip, sp}
 8003cac:	08002a2d 	stmdaeq	r0, {r0, r2, r3, r5, r9, fp, sp}
 8003cb0:	08002ca1 	stmdaeq	r0, {r0, r5, r7, sl, fp, sp}
 8003cb4:	08002e6d 	stmdaeq	r0, {r0, r2, r3, r5, r6, r9, sl, fp, sp}
 8003cb8:	080029e7 	stmdaeq	r0, {r0, r1, r2, r5, r6, r7, r8, fp, sp}
 8003cbc:	08003d0c 	stmdaeq	r0, {r2, r3, r8, sl, fp, ip, sp}
 8003cc0:	08002a9d 	stmdaeq	r0, {r0, r2, r3, r4, r7, r9, fp, sp}

08003cc4 <PARS1>:
 8003cc4:	08002ca1 	stmdaeq	r0, {r0, r5, r7, sl, fp, sp}
 8003cc8:	08002b45 	stmdaeq	r0, {r0, r2, r6, r8, r9, fp, sp}
 8003ccc:	08002a4d 	stmdaeq	r0, {r0, r2, r3, r6, r9, fp, sp}
 8003cd0:	08002bf5 	stmdaeq	r0, {r0, r2, r4, r5, r6, r7, r8, r9, fp, sp}
 8003cd4:	08002b55 	stmdaeq	r0, {r0, r2, r4, r6, r8, r9, fp, sp}
 8003cd8:	08002df1 	stmdaeq	r0, {r0, r4, r5, r6, r7, r8, sl, fp, sp}
 8003cdc:	080029e7 	stmdaeq	r0, {r0, r1, r2, r5, r6, r7, r8, fp, sp}
 8003ce0:	08003d08 	stmdaeq	r0, {r3, r8, sl, fp, ip, sp}
 8003ce4:	08002c41 	stmdaeq	r0, {r0, r6, sl, fp, sp}
 8003ce8:	080029c9 	stmdaeq	r0, {r0, r3, r6, r7, r8, fp, sp}
 8003cec:	08003cc4 	stmdaeq	r0, {r2, r6, r7, sl, fp, ip, sp}
 8003cf0:	08002a59 	stmdaeq	r0, {r0, r3, r4, r6, r9, fp, sp}
 8003cf4:	08002b11 	stmdaeq	r0, {r0, r4, r8, r9, fp, sp}
 8003cf8:	080029a7 	stmdaeq	r0, {r0, r1, r2, r5, r7, r8, fp, sp}
 8003cfc:	00000000 	andeq	r0, r0, r0
 8003d00:	08002b21 	stmdaeq	r0, {r0, r5, r8, r9, fp, sp}
 8003d04:	080027e7 	stmdaeq	r0, {r0, r1, r2, r5, r6, r7, r8, r9, sl, sp}

08003d08 <PARS2>:
 8003d08:	08002a59 	stmdaeq	r0, {r0, r3, r4, r6, r9, fp, sp}

08003d0c <PARS3>:
 8003d0c:	08002b45 	stmdaeq	r0, {r0, r2, r6, r8, r9, fp, sp}
 8003d10:	08002b31 	stmdaeq	r0, {r0, r4, r5, r8, r9, fp, sp}
 8003d14:	08002a9d 	stmdaeq	r0, {r0, r2, r3, r4, r7, r9, fp, sp}

08003d18 <PARS4>:
 8003d18:	08003021 	stmdaeq	r0, {r0, r5, ip, sp}
 8003d1c:	08002a2d 	stmdaeq	r0, {r0, r2, r3, r5, r9, fp, sp}
 8003d20:	08002b45 	stmdaeq	r0, {r0, r2, r6, r8, r9, fp, sp}
 8003d24:	08002a4d 	stmdaeq	r0, {r0, r2, r3, r6, r9, fp, sp}
 8003d28:	08002bf5 	stmdaeq	r0, {r0, r2, r4, r5, r6, r7, r8, r9, fp, sp}
 8003d2c:	08003021 	stmdaeq	r0, {r0, r5, ip, sp}
 8003d30:	08002a2d 	stmdaeq	r0, {r0, r2, r3, r5, r9, fp, sp}
 8003d34:	08002ca1 	stmdaeq	r0, {r0, r5, r7, sl, fp, sp}
 8003d38:	08002e6d 	stmdaeq	r0, {r0, r2, r3, r5, r6, r9, sl, fp, sp}
 8003d3c:	080029e7 	stmdaeq	r0, {r0, r1, r2, r5, r6, r7, r8, fp, sp}
 8003d40:	08003d48 	stmdaeq	r0, {r3, r6, r8, sl, fp, ip, sp}
 8003d44:	08002b55 	stmdaeq	r0, {r0, r2, r4, r6, r8, r9, fp, sp}

08003d48 <PARS5>:
 8003d48:	080029e7 	stmdaeq	r0, {r0, r1, r2, r5, r6, r7, r8, fp, sp}
 8003d4c:	08003d6c 	stmdaeq	r0, {r2, r3, r5, r6, r8, sl, fp, ip, sp}
 8003d50:	08002c41 	stmdaeq	r0, {r0, r6, sl, fp, sp}
 8003d54:	080029c9 	stmdaeq	r0, {r0, r3, r6, r7, r8, fp, sp}
 8003d58:	08003d18 	stmdaeq	r0, {r3, r4, r8, sl, fp, ip, sp}
 8003d5c:	08002b21 	stmdaeq	r0, {r0, r5, r8, r9, fp, sp}
 8003d60:	08002a9d 	stmdaeq	r0, {r0, r2, r3, r4, r7, r9, fp, sp}
 8003d64:	080029fb 	stmdaeq	r0, {r0, r1, r3, r4, r5, r6, r7, r8, fp, sp}
 8003d68:	08003d80 	stmdaeq	r0, {r7, r8, sl, fp, ip, sp}

08003d6c <PARS6>:
 8003d6c:	08002a59 	stmdaeq	r0, {r0, r3, r4, r6, r9, fp, sp}
 8003d70:	08002b11 	stmdaeq	r0, {r0, r4, r8, r9, fp, sp}
 8003d74:	08002b21 	stmdaeq	r0, {r0, r5, r8, r9, fp, sp}
 8003d78:	08002c41 	stmdaeq	r0, {r0, r6, sl, fp, sp}
 8003d7c:	08002a9d 	stmdaeq	r0, {r0, r2, r3, r4, r7, r9, fp, sp}

08003d80 <PARS7>:
 8003d80:	08002b45 	stmdaeq	r0, {r0, r2, r6, r8, r9, fp, sp}
 8003d84:	08002bf5 	stmdaeq	r0, {r0, r2, r4, r5, r6, r7, r8, r9, fp, sp}
 8003d88:	08002a59 	stmdaeq	r0, {r0, r3, r4, r6, r9, fp, sp}
 8003d8c:	08002a59 	stmdaeq	r0, {r0, r3, r4, r6, r9, fp, sp}
 8003d90:	08002bf5 	stmdaeq	r0, {r0, r2, r4, r5, r6, r7, r8, r9, fp, sp}
 8003d94:	080027e7 	stmdaeq	r0, {r0, r1, r2, r5, r6, r7, r8, r9, sl, sp}

08003d98 <PARS8>:
 8003d98:	08002b45 	stmdaeq	r0, {r0, r2, r6, r8, r9, fp, sp}
 8003d9c:	08002a59 	stmdaeq	r0, {r0, r3, r4, r6, r9, fp, sp}
 8003da0:	08002bf5 	stmdaeq	r0, {r0, r2, r4, r5, r6, r7, r8, r9, fp, sp}
 8003da4:	080027e7 	stmdaeq	r0, {r0, r1, r2, r5, r6, r7, r8, r9, sl, sp}
 8003da8:	08003c70 	stmdaeq	r0, {r4, r5, r6, sl, fp, ip, sp}

08003dac <_PARSE>:
 8003dac:	52415005 	subpl	r5, r1, #5
 8003db0:	bf004553 	svclt	0x00004553

08003db4 <PARSE>:
 8003db4:	4750      	bx	sl
 8003db6:	bf00      	nop
 8003db8:	08002a9d 	stmdaeq	r0, {r0, r2, r3, r4, r7, r9, fp, sp}
 8003dbc:	080034c9 	stmdaeq	r0, {r0, r3, r6, r7, sl, ip, sp}
 8003dc0:	0800304d 	stmdaeq	r0, {r0, r2, r3, r6, ip, sp}
 8003dc4:	08002a2d 	stmdaeq	r0, {r0, r2, r3, r5, r9, fp, sp}
 8003dc8:	08002be5 	stmdaeq	r0, {r0, r2, r5, r6, r7, r8, r9, fp, sp}
 8003dcc:	08003065 	stmdaeq	r0, {r0, r2, r5, r6, ip, sp}
 8003dd0:	08002a2d 	stmdaeq	r0, {r0, r2, r3, r5, r9, fp, sp}
 8003dd4:	0800304d 	stmdaeq	r0, {r0, r2, r3, r6, ip, sp}
 8003dd8:	08002a2d 	stmdaeq	r0, {r0, r2, r3, r5, r9, fp, sp}
 8003ddc:	08002bf5 	stmdaeq	r0, {r0, r2, r4, r5, r6, r7, r8, r9, fp, sp}
 8003de0:	08002a59 	stmdaeq	r0, {r0, r3, r4, r6, r9, fp, sp}
 8003de4:	08003c85 	stmdaeq	r0, {r0, r2, r7, sl, fp, ip, sp}
 8003de8:	0800304d 	stmdaeq	r0, {r0, r2, r3, r6, ip, sp}
 8003dec:	08002f2d 	stmdaeq	r0, {r0, r2, r3, r5, r8, r9, sl, fp, sp}
 8003df0:	080027e7 	stmdaeq	r0, {r0, r1, r2, r5, r6, r7, r8, r9, sl, sp}
 8003df4:	08003dac 	stmdaeq	r0, {r2, r3, r5, r7, r8, sl, fp, ip, sp}

08003df8 <_DOTPR>:
 8003df8:	00282e02 	eoreq	r2, r8, r2, lsl #28

08003dfc <DOTPR>:
 8003dfc:	4750      	bx	sl
 8003dfe:	bf00      	nop
 8003e00:	080029a7 	stmdaeq	r0, {r0, r1, r2, r5, r7, r8, fp, sp}
 8003e04:	00000029 	andeq	r0, r0, r9, lsr #32
 8003e08:	08003db5 	stmdaeq	r0, {r0, r2, r4, r5, r7, r8, sl, fp, ip, sp}
 8003e0c:	08003a65 	stmdaeq	r0, {r0, r2, r5, r6, r9, fp, ip, sp}
 8003e10:	080027e7 	stmdaeq	r0, {r0, r1, r2, r5, r6, r7, r8, r9, sl, sp}
 8003e14:	08003df8 	stmdaeq	r0, {r3, r4, r5, r6, r7, r8, sl, fp, ip, sp}

08003e18 <_PAREN>:
 8003e18:	bf002881 	svclt	0x00002881

08003e1c <PAREN>:
 8003e1c:	4750      	bx	sl
 8003e1e:	bf00      	nop
 8003e20:	080029a7 	stmdaeq	r0, {r0, r1, r2, r5, r7, r8, fp, sp}
 8003e24:	00000029 	andeq	r0, r0, r9, lsr #32
 8003e28:	08003db5 	stmdaeq	r0, {r0, r2, r4, r5, r7, r8, sl, fp, ip, sp}
 8003e2c:	08002d31 	stmdaeq	r0, {r0, r4, r5, r8, sl, fp, sp}
 8003e30:	080027e7 	stmdaeq	r0, {r0, r1, r2, r5, r6, r7, r8, r9, sl, sp}
 8003e34:	08003e18 	stmdaeq	r0, {r3, r4, r9, sl, fp, ip, sp}

08003e38 <_BKSLA>:
 8003e38:	bf005c81 	svclt	0x00005c81

08003e3c <BKSLA>:
 8003e3c:	4750      	bx	sl
 8003e3e:	bf00      	nop
 8003e40:	08003065 	stmdaeq	r0, {r0, r2, r5, r6, ip, sp}
 8003e44:	08002a2d 	stmdaeq	r0, {r0, r2, r3, r5, r9, fp, sp}
 8003e48:	0800304d 	stmdaeq	r0, {r0, r2, r3, r6, ip, sp}
 8003e4c:	08002a19 	stmdaeq	r0, {r0, r3, r4, r9, fp, sp}
 8003e50:	080027e7 	stmdaeq	r0, {r0, r1, r2, r5, r6, r7, r8, r9, sl, sp}
 8003e54:	08003e38 	stmdaeq	r0, {r3, r4, r5, r9, sl, fp, ip, sp}

08003e58 <_CHAR>:
 8003e58:	41484304 	cmpmi	r8, r4, lsl #6
 8003e5c:	bf000052 	svclt	0x00000052

08003e60 <CHAR>:
 8003e60:	4750      	bx	sl
 8003e62:	bf00      	nop
 8003e64:	08002ca1 	stmdaeq	r0, {r0, r5, r7, sl, fp, sp}
 8003e68:	08003db5 	stmdaeq	r0, {r0, r2, r4, r5, r7, r8, sl, fp, ip, sp}
 8003e6c:	08002b11 	stmdaeq	r0, {r0, r4, r8, r9, fp, sp}
 8003e70:	08002a4d 	stmdaeq	r0, {r0, r2, r3, r6, r9, fp, sp}
 8003e74:	080027e7 	stmdaeq	r0, {r0, r1, r2, r5, r6, r7, r8, r9, sl, sp}
 8003e78:	08003e58 	stmdaeq	r0, {r3, r4, r6, r9, sl, fp, ip, sp}

08003e7c <_IMCHAR>:
 8003e7c:	48435bc6 	stmdami	r3, {r1, r2, r6, r7, r8, r9, fp, ip, lr}^
 8003e80:	005d5241 	subseq	r5, sp, r1, asr #4

08003e84 <IMCHAR>:
 8003e84:	4750      	bx	sl
 8003e86:	bf00      	nop
 8003e88:	08003e61 	stmdaeq	r0, {r0, r5, r6, r9, sl, fp, ip, sp}
 8003e8c:	080045ad 	stmdaeq	r0, {r0, r2, r3, r5, r7, r8, sl, lr}
 8003e90:	080027e7 	stmdaeq	r0, {r0, r1, r2, r5, r6, r7, r8, r9, sl, sp}
 8003e94:	08003e7c 	stmdaeq	r0, {r2, r3, r4, r5, r6, r9, sl, fp, ip, sp}

08003e98 <_WORDD>:
 8003e98:	524f5704 	subpl	r5, pc, #4, 14	; 0x100000
 8003e9c:	bf000044 	svclt	0x00000044

08003ea0 <WORDD>:
 8003ea0:	4750      	bx	sl
 8003ea2:	bf00      	nop
 8003ea4:	08003db5 	stmdaeq	r0, {r0, r2, r4, r5, r7, r8, sl, fp, ip, sp}
 8003ea8:	08003491 	stmdaeq	r0, {r0, r4, r7, sl, ip, sp}
 8003eac:	08002c81 	stmdaeq	r0, {r0, r7, sl, fp, sp}
 8003eb0:	08003599 	stmdaeq	r0, {r0, r3, r4, r7, r8, sl, ip, sp}
 8003eb4:	080027e7 	stmdaeq	r0, {r0, r1, r2, r5, r6, r7, r8, r9, sl, sp}
 8003eb8:	08003e98 	stmdaeq	r0, {r3, r4, r7, r9, sl, fp, ip, sp}

08003ebc <_TOKEN>:
 8003ebc:	4b4f5405 	blmi	93d8ed8 <OPTKEY1+0x124649d>
 8003ec0:	bf004e45 	svclt	0x00004e45

08003ec4 <TOKEN>:
 8003ec4:	4750      	bx	sl
 8003ec6:	bf00      	nop
 8003ec8:	08002ca1 	stmdaeq	r0, {r0, r5, r7, sl, fp, sp}
 8003ecc:	08003ea1 	stmdaeq	r0, {r0, r5, r7, r9, sl, fp, ip, sp}
 8003ed0:	080040b9 	stmdaeq	r0, {r0, r3, r4, r5, r7, lr}
 8003ed4:	080027e7 	stmdaeq	r0, {r0, r1, r2, r5, r6, r7, r8, r9, sl, sp}
 8003ed8:	08003ebc 	stmdaeq	r0, {r2, r3, r4, r5, r7, r9, sl, fp, ip, sp}

08003edc <_NAMET>:
 8003edc:	4d414e05 	stclmi	14, cr4, [r1, #-20]	; 0xffffffec
 8003ee0:	bf003e45 	svclt	0x00003e45

08003ee4 <NAMET>:
 8003ee4:	4750      	bx	sl
 8003ee6:	bf00      	nop
 8003ee8:	08002f75 	stmdaeq	r0, {r0, r2, r4, r5, r6, r8, r9, sl, fp, sp}
 8003eec:	080029a7 	stmdaeq	r0, {r0, r1, r2, r5, r7, r8, fp, sp}
 8003ef0:	0000001f 	andeq	r0, r0, pc, lsl r0
 8003ef4:	08002b65 	stmdaeq	r0, {r0, r2, r5, r6, r8, r9, fp, sp}
 8003ef8:	08002be5 	stmdaeq	r0, {r0, r2, r5, r6, r7, r8, r9, fp, sp}
 8003efc:	080033dd 	stmdaeq	r0, {r0, r2, r3, r4, r6, r7, r8, r9, ip, sp}
 8003f00:	080027e7 	stmdaeq	r0, {r0, r1, r2, r5, r6, r7, r8, r9, sl, sp}
 8003f04:	08003edc 	stmdaeq	r0, {r2, r3, r4, r6, r7, r9, sl, fp, ip, sp}

08003f08 <_SAMEQ>:
 8003f08:	4d415305 	stclmi	3, cr5, [r1, #-20]	; 0xffffffec
 8003f0c:	bf003f45 	svclt	0x00003f45

08003f10 <SAMEQ>:
 8003f10:	4750      	bx	sl
 8003f12:	bf00      	nop
 8003f14:	08002a9d 	stmdaeq	r0, {r0, r2, r3, r4, r7, r9, fp, sp}
 8003f18:	080029fb 	stmdaeq	r0, {r0, r1, r3, r4, r5, r6, r7, r8, fp, sp}
 8003f1c:	08003f5c 	stmdaeq	r0, {r2, r3, r4, r6, r8, r9, sl, fp, ip, sp}

08003f20 <SAME1>:
 8003f20:	08002b45 	stmdaeq	r0, {r0, r2, r6, r8, r9, fp, sp}
 8003f24:	08002a89 	stmdaeq	r0, {r0, r3, r7, r9, fp, sp}
 8003f28:	08002be5 	stmdaeq	r0, {r0, r2, r5, r6, r7, r8, r9, fp, sp}
 8003f2c:	08002a4d 	stmdaeq	r0, {r0, r2, r3, r6, r9, fp, sp}
 8003f30:	08002b45 	stmdaeq	r0, {r0, r2, r6, r8, r9, fp, sp}
 8003f34:	08002a89 	stmdaeq	r0, {r0, r3, r7, r9, fp, sp}
 8003f38:	08002be5 	stmdaeq	r0, {r0, r2, r5, r6, r7, r8, r9, fp, sp}
 8003f3c:	08002a4d 	stmdaeq	r0, {r0, r2, r3, r6, r9, fp, sp}
 8003f40:	08002bf5 	stmdaeq	r0, {r0, r2, r4, r5, r6, r7, r8, r9, fp, sp}
 8003f44:	08002cf5 	stmdaeq	r0, {r0, r2, r4, r5, r6, r7, sl, fp, sp}
 8003f48:	080029e7 	stmdaeq	r0, {r0, r1, r2, r5, r6, r7, r8, fp, sp}
 8003f4c:	08003f5c 	stmdaeq	r0, {r2, r3, r4, r6, r8, r9, sl, fp, ip, sp}
 8003f50:	08002a59 	stmdaeq	r0, {r0, r3, r4, r6, r9, fp, sp}
 8003f54:	08002b11 	stmdaeq	r0, {r0, r4, r8, r9, fp, sp}
 8003f58:	080027e7 	stmdaeq	r0, {r0, r1, r2, r5, r6, r7, r8, r9, sl, sp}

08003f5c <SAME2>:
 8003f5c:	080029c9 	stmdaeq	r0, {r0, r3, r6, r7, r8, fp, sp}
 8003f60:	08003f20 	stmdaeq	r0, {r5, r8, r9, sl, fp, ip, sp}
 8003f64:	080029a7 	stmdaeq	r0, {r0, r1, r2, r5, r7, r8, fp, sp}
 8003f68:	00000000 	andeq	r0, r0, r0
 8003f6c:	080027e7 	stmdaeq	r0, {r0, r1, r2, r5, r6, r7, r8, r9, sl, sp}

08003f70 <FIND>:
 8003f70:	4750      	bx	sl
 8003f72:	bf00      	nop
 8003f74:	08002b31 	stmdaeq	r0, {r0, r4, r5, r8, r9, fp, sp}
 8003f78:	08002f75 	stmdaeq	r0, {r0, r2, r4, r5, r6, r8, r9, sl, fp, sp}
 8003f7c:	08002b21 	stmdaeq	r0, {r0, r5, r8, r9, fp, sp}
 8003f80:	08003021 	stmdaeq	r0, {r0, r5, ip, sp}
 8003f84:	08002a19 	stmdaeq	r0, {r0, r3, r4, r9, fp, sp}
 8003f88:	08002a9d 	stmdaeq	r0, {r0, r2, r3, r4, r7, r9, fp, sp}
 8003f8c:	08002b31 	stmdaeq	r0, {r0, r4, r5, r8, r9, fp, sp}

08003f90 <FIND1>:
 8003f90:	08002b21 	stmdaeq	r0, {r0, r5, r8, r9, fp, sp}
 8003f94:	080029e7 	stmdaeq	r0, {r0, r1, r2, r5, r6, r7, r8, fp, sp}
 8003f98:	08003fe8 	stmdaeq	r0, {r3, r5, r6, r7, r8, r9, sl, fp, ip, sp}
 8003f9c:	08002b21 	stmdaeq	r0, {r0, r5, r8, r9, fp, sp}
 8003fa0:	08002a4d 	stmdaeq	r0, {r0, r2, r3, r6, r9, fp, sp}
 8003fa4:	080029a7 	stmdaeq	r0, {r0, r1, r2, r5, r7, r8, fp, sp}
 8003fa8:	ffffff1f 			; <UNDEFINED> instruction: 0xffffff1f
 8003fac:	08002b65 	stmdaeq	r0, {r0, r2, r5, r6, r8, r9, fp, sp}
 8003fb0:	08002a89 	stmdaeq	r0, {r0, r3, r7, r9, fp, sp}
 8003fb4:	08002b8d 	stmdaeq	r0, {r0, r2, r3, r7, r8, r9, fp, sp}
 8003fb8:	080029e7 	stmdaeq	r0, {r0, r1, r2, r5, r6, r7, r8, fp, sp}
 8003fbc:	08003fd0 	stmdaeq	r0, {r4, r6, r7, r8, r9, sl, fp, ip, sp}
 8003fc0:	08002c91 	stmdaeq	r0, {r0, r4, r7, sl, fp, sp}
 8003fc4:	08002a2d 	stmdaeq	r0, {r0, r2, r3, r5, r9, fp, sp}
 8003fc8:	080029fb 	stmdaeq	r0, {r0, r1, r3, r4, r5, r6, r7, r8, fp, sp}
 8003fcc:	08003f90 	stmdaeq	r0, {r4, r7, r8, r9, sl, fp, ip, sp}

08003fd0 <FIND2>:
 8003fd0:	08002c41 	stmdaeq	r0, {r0, r6, sl, fp, sp}
 8003fd4:	08003021 	stmdaeq	r0, {r0, r5, ip, sp}
 8003fd8:	08002a2d 	stmdaeq	r0, {r0, r2, r3, r5, r9, fp, sp}
 8003fdc:	08003f11 	stmdaeq	r0, {r0, r4, r8, r9, sl, fp, ip, sp}

08003fe0 <FIND3>:
 8003fe0:	080029fb 	stmdaeq	r0, {r0, r1, r3, r4, r5, r6, r7, r8, fp, sp}
 8003fe4:	08004000 	stmdaeq	r0, {lr}

08003fe8 <FIND6>:
 8003fe8:	08002a59 	stmdaeq	r0, {r0, r3, r4, r6, r9, fp, sp}
 8003fec:	08002b11 	stmdaeq	r0, {r0, r4, r8, r9, fp, sp}
 8003ff0:	08002b31 	stmdaeq	r0, {r0, r4, r5, r8, r9, fp, sp}
 8003ff4:	08002c51 	stmdaeq	r0, {r0, r4, r6, sl, fp, sp}
 8003ff8:	08002b31 	stmdaeq	r0, {r0, r4, r5, r8, r9, fp, sp}
 8003ffc:	080027e7 	stmdaeq	r0, {r0, r1, r2, r5, r6, r7, r8, r9, sl, sp}

08004000 <FIND4>:
 8004000:	080029e7 	stmdaeq	r0, {r0, r1, r2, r5, r6, r7, r8, fp, sp}
 8004004:	0800401c 	stmdaeq	r0, {r2, r3, r4, lr}
 8004008:	08002c51 	stmdaeq	r0, {r0, r4, r6, sl, fp, sp}
 800400c:	08002c91 	stmdaeq	r0, {r0, r4, r7, sl, fp, sp}
 8004010:	08002a2d 	stmdaeq	r0, {r0, r2, r3, r5, r9, fp, sp}
 8004014:	080029fb 	stmdaeq	r0, {r0, r1, r3, r4, r5, r6, r7, r8, fp, sp}
 8004018:	08003f90 	stmdaeq	r0, {r4, r7, r8, r9, sl, fp, ip, sp}

0800401c <FIND5>:
 800401c:	08002a59 	stmdaeq	r0, {r0, r3, r4, r6, r9, fp, sp}
 8004020:	08002b11 	stmdaeq	r0, {r0, r4, r8, r9, fp, sp}
 8004024:	08002b31 	stmdaeq	r0, {r0, r4, r5, r8, r9, fp, sp}
 8004028:	08002b11 	stmdaeq	r0, {r0, r4, r8, r9, fp, sp}
 800402c:	08002c51 	stmdaeq	r0, {r0, r4, r6, sl, fp, sp}
 8004030:	08002b21 	stmdaeq	r0, {r0, r5, r8, r9, fp, sp}
 8004034:	08003ee5 	stmdaeq	r0, {r0, r2, r5, r6, r7, r9, sl, fp, ip, sp}
 8004038:	08002b31 	stmdaeq	r0, {r0, r4, r5, r8, r9, fp, sp}
 800403c:	080027e7 	stmdaeq	r0, {r0, r1, r2, r5, r6, r7, r8, r9, sl, sp}
 8004040:	08003f08 	stmdaeq	r0, {r3, r8, r9, sl, fp, ip, sp}

08004044 <_NAMEQ>:
 8004044:	4d414e05 	stclmi	14, cr4, [r1, #-20]	; 0xffffffec
 8004048:	bf003f45 	svclt	0x00003f45

0800404c <NAMEQ>:
 800404c:	4750      	bx	sl
 800404e:	bf00      	nop
 8004050:	080030a9 	stmdaeq	r0, {r0, r3, r5, r7, ip, sp}
 8004054:	08002a2d 	stmdaeq	r0, {r0, r2, r3, r5, r9, fp, sp}
 8004058:	08003f71 	stmdaeq	r0, {r0, r4, r5, r6, r8, r9, sl, fp, ip, sp}
 800405c:	080027e7 	stmdaeq	r0, {r0, r1, r2, r5, r6, r7, r8, r9, sl, sp}
 8004060:	08004044 	stmdaeq	r0, {r2, r6, lr}

08004064 <_ASCIZ>:
 8004064:	43534105 	cmpmi	r3, #1073741825	; 0x40000001
 8004068:	bf005a49 	svclt	0x00005a49

0800406c <ASCIZ>:
 800406c:	4750      	bx	sl
 800406e:	bf00      	nop
 8004070:	08002f75 	stmdaeq	r0, {r0, r2, r4, r5, r6, r8, r9, sl, fp, sp}
 8004074:	08002b21 	stmdaeq	r0, {r0, r5, r8, r9, fp, sp}
 8004078:	08002a9d 	stmdaeq	r0, {r0, r2, r3, r4, r7, r9, fp, sp}
 800407c:	080034a9 	stmdaeq	r0, {r0, r3, r5, r7, sl, ip, sp}
 8004080:	08002b31 	stmdaeq	r0, {r0, r4, r5, r8, r9, fp, sp}
 8004084:	08003531 	stmdaeq	r0, {r0, r4, r5, r8, sl, ip, sp}
 8004088:	080034a9 	stmdaeq	r0, {r0, r3, r5, r7, sl, ip, sp}
 800408c:	08002a59 	stmdaeq	r0, {r0, r3, r4, r6, r9, fp, sp}
 8004090:	08002be5 	stmdaeq	r0, {r0, r2, r5, r6, r7, r8, r9, fp, sp}
 8004094:	080029a7 	stmdaeq	r0, {r0, r1, r2, r5, r7, r8, fp, sp}
 8004098:	00000000 	andeq	r0, r0, r0
 800409c:	08002b31 	stmdaeq	r0, {r0, r4, r5, r8, r9, fp, sp}
 80040a0:	08002a39 	stmdaeq	r0, {r0, r3, r4, r5, r9, fp, sp}
 80040a4:	080034a9 	stmdaeq	r0, {r0, r3, r5, r7, sl, ip, sp}
 80040a8:	080027e7 	stmdaeq	r0, {r0, r1, r2, r5, r6, r7, r8, r9, sl, sp}
 80040ac:	08004064 	stmdaeq	r0, {r2, r5, r6, lr}

080040b0 <_UPPER>:
 80040b0:	50505505 	subspl	r5, r0, r5, lsl #10
 80040b4:	bf005245 	svclt	0x00005245

080040b8 <UPPER>:
 80040b8:	4750      	bx	sl
 80040ba:	bf00      	nop
 80040bc:	08002b21 	stmdaeq	r0, {r0, r5, r8, r9, fp, sp}
 80040c0:	08002a9d 	stmdaeq	r0, {r0, r2, r3, r4, r7, r9, fp, sp}
 80040c4:	08002f75 	stmdaeq	r0, {r0, r2, r4, r5, r6, r8, r9, sl, fp, sp}
 80040c8:	080029a7 	stmdaeq	r0, {r0, r1, r2, r5, r7, r8, fp, sp}
 80040cc:	0000001f 	andeq	r0, r0, pc, lsl r0
 80040d0:	08002b65 	stmdaeq	r0, {r0, r2, r5, r6, r8, r9, fp, sp}
 80040d4:	08002a9d 	stmdaeq	r0, {r0, r2, r3, r4, r7, r9, fp, sp}
 80040d8:	080029fb 	stmdaeq	r0, {r0, r1, r3, r4, r5, r6, r7, r8, fp, sp}
 80040dc:	0800412c 	stmdaeq	r0, {r2, r3, r5, r8, lr}
 80040e0:	08002b21 	stmdaeq	r0, {r0, r5, r8, r9, fp, sp}
 80040e4:	08002f75 	stmdaeq	r0, {r0, r2, r4, r5, r6, r8, r9, sl, fp, sp}
 80040e8:	08002b21 	stmdaeq	r0, {r0, r5, r8, r9, fp, sp}
 80040ec:	080029a7 	stmdaeq	r0, {r0, r1, r2, r5, r7, r8, fp, sp}
 80040f0:	00000060 	andeq	r0, r0, r0, rrx
 80040f4:	08002eed 	stmdaeq	r0, {r0, r2, r3, r5, r6, r7, r9, sl, fp, sp}
 80040f8:	080029e7 	stmdaeq	r0, {r0, r1, r2, r5, r6, r7, r8, fp, sp}
 80040fc:	08004124 	stmdaeq	r0, {r2, r5, r8, lr}
 8004100:	08002b21 	stmdaeq	r0, {r0, r5, r8, r9, fp, sp}
 8004104:	080029a7 	stmdaeq	r0, {r0, r1, r2, r5, r7, r8, fp, sp}
 8004108:	0000007b 	andeq	r0, r0, fp, ror r0
 800410c:	08002ebd 	stmdaeq	r0, {r0, r2, r3, r4, r5, r7, r9, sl, fp, sp}
 8004110:	080029e7 	stmdaeq	r0, {r0, r1, r2, r5, r6, r7, r8, fp, sp}
 8004114:	08004124 	stmdaeq	r0, {r2, r5, r8, lr}
 8004118:	080029a7 	stmdaeq	r0, {r0, r1, r2, r5, r7, r8, fp, sp}
 800411c:	0000005f 	andeq	r0, r0, pc, asr r0
 8004120:	08002b65 	stmdaeq	r0, {r0, r2, r5, r6, r8, r9, fp, sp}
 8004124:	08002d09 	stmdaeq	r0, {r0, r3, r8, sl, fp, sp}
 8004128:	08002a39 	stmdaeq	r0, {r0, r3, r4, r5, r9, fp, sp}
 800412c:	080029c9 	stmdaeq	r0, {r0, r3, r6, r7, r8, fp, sp}
 8004130:	080040e0 	stmdaeq	r0, {r5, r6, r7, lr}
 8004134:	08002b11 	stmdaeq	r0, {r0, r4, r8, r9, fp, sp}
 8004138:	08002a59 	stmdaeq	r0, {r0, r3, r4, r6, r9, fp, sp}
 800413c:	080027e7 	stmdaeq	r0, {r0, r1, r2, r5, r6, r7, r8, r9, sl, sp}

08004140 <BKSP>:
 8004140:	4750      	bx	sl
 8004142:	bf00      	nop
 8004144:	08002a9d 	stmdaeq	r0, {r0, r2, r3, r4, r7, r9, fp, sp}
 8004148:	08002b45 	stmdaeq	r0, {r0, r2, r6, r8, r9, fp, sp}
 800414c:	08002a59 	stmdaeq	r0, {r0, r3, r4, r6, r9, fp, sp}
 8004150:	08002b31 	stmdaeq	r0, {r0, r4, r5, r8, r9, fp, sp}
 8004154:	08002b45 	stmdaeq	r0, {r0, r2, r6, r8, r9, fp, sp}
 8004158:	08002b8d 	stmdaeq	r0, {r0, r2, r3, r7, r8, r9, fp, sp}
 800415c:	080029e7 	stmdaeq	r0, {r0, r1, r2, r5, r6, r7, r8, fp, sp}
 8004160:	08004188 	stmdaeq	r0, {r3, r7, r8, lr}
 8004164:	080029a7 	stmdaeq	r0, {r0, r1, r2, r5, r7, r8, fp, sp}
 8004168:	00000008 	andeq	r0, r0, r8
 800416c:	080028b1 	stmdaeq	r0, {r0, r4, r5, r7, fp, sp}
 8004170:	08002c51 	stmdaeq	r0, {r0, r4, r6, sl, fp, sp}
 8004174:	08002ca1 	stmdaeq	r0, {r0, r5, r7, sl, fp, sp}
 8004178:	080028b1 	stmdaeq	r0, {r0, r4, r5, r7, fp, sp}
 800417c:	080029a7 	stmdaeq	r0, {r0, r1, r2, r5, r7, r8, fp, sp}
 8004180:	00000008 	andeq	r0, r0, r8
 8004184:	080028b1 	stmdaeq	r0, {r0, r4, r5, r7, fp, sp}

08004188 <BACK1>:
 8004188:	080027e7 	stmdaeq	r0, {r0, r1, r2, r5, r6, r7, r8, r9, sl, sp}

0800418c <TAP>:
 800418c:	4750      	bx	sl
 800418e:	bf00      	nop
 8004190:	08002b21 	stmdaeq	r0, {r0, r5, r8, r9, fp, sp}
 8004194:	080028b1 	stmdaeq	r0, {r0, r4, r5, r7, fp, sp}
 8004198:	08002b45 	stmdaeq	r0, {r0, r2, r6, r8, r9, fp, sp}
 800419c:	08002a39 	stmdaeq	r0, {r0, r3, r4, r5, r9, fp, sp}
 80041a0:	08002c41 	stmdaeq	r0, {r0, r6, sl, fp, sp}
 80041a4:	080027e7 	stmdaeq	r0, {r0, r1, r2, r5, r6, r7, r8, r9, sl, sp}

080041a8 <KTAP>:
 80041a8:	4750      	bx	sl
 80041aa:	bf00      	nop
 80041ac:	08002b21 	stmdaeq	r0, {r0, r5, r8, r9, fp, sp}
 80041b0:	080029a7 	stmdaeq	r0, {r0, r1, r2, r5, r7, r8, fp, sp}
 80041b4:	0000000d 	andeq	r0, r0, sp
 80041b8:	08002b8d 	stmdaeq	r0, {r0, r2, r3, r7, r8, r9, fp, sp}
 80041bc:	080029e7 	stmdaeq	r0, {r0, r1, r2, r5, r6, r7, r8, fp, sp}
 80041c0:	080041ec 	stmdaeq	r0, {r2, r3, r5, r6, r7, r8, lr}
 80041c4:	080029a7 	stmdaeq	r0, {r0, r1, r2, r5, r7, r8, fp, sp}
 80041c8:	00000008 	andeq	r0, r0, r8
 80041cc:	08002b8d 	stmdaeq	r0, {r0, r2, r3, r7, r8, r9, fp, sp}
 80041d0:	080029e7 	stmdaeq	r0, {r0, r1, r2, r5, r6, r7, r8, fp, sp}
 80041d4:	080041e4 	stmdaeq	r0, {r2, r5, r6, r7, r8, lr}
 80041d8:	08002ca1 	stmdaeq	r0, {r0, r5, r7, sl, fp, sp}
 80041dc:	0800418d 	stmdaeq	r0, {r0, r2, r3, r7, r8, lr}
 80041e0:	080027e7 	stmdaeq	r0, {r0, r1, r2, r5, r6, r7, r8, r9, sl, sp}

080041e4 <KTAP1>:
 80041e4:	08004141 	stmdaeq	r0, {r0, r6, r8, lr}
 80041e8:	080027e7 	stmdaeq	r0, {r0, r1, r2, r5, r6, r7, r8, r9, sl, sp}

080041ec <KTAP2>:
 80041ec:	08002b11 	stmdaeq	r0, {r0, r4, r8, r9, fp, sp}
 80041f0:	08002b31 	stmdaeq	r0, {r0, r4, r5, r8, r9, fp, sp}
 80041f4:	08002b11 	stmdaeq	r0, {r0, r4, r8, r9, fp, sp}
 80041f8:	08002b21 	stmdaeq	r0, {r0, r5, r8, r9, fp, sp}
 80041fc:	080027e7 	stmdaeq	r0, {r0, r1, r2, r5, r6, r7, r8, r9, sl, sp}
 8004200:	080040b0 	stmdaeq	r0, {r4, r5, r7, lr}

08004204 <_ACCEP>:
 8004204:	43434106 	movtmi	r4, #12550	; 0x3106
 8004208:	00545045 	subseq	r5, r4, r5, asr #32

0800420c <ACCEP>:
 800420c:	4750      	bx	sl
 800420e:	bf00      	nop
 8004210:	08002b45 	stmdaeq	r0, {r0, r2, r6, r8, r9, fp, sp}
 8004214:	08002be5 	stmdaeq	r0, {r0, r2, r5, r6, r7, r8, r9, fp, sp}
 8004218:	08002b45 	stmdaeq	r0, {r0, r2, r6, r8, r9, fp, sp}

0800421c <ACCP1>:
 800421c:	08002d59 	stmdaeq	r0, {r0, r3, r4, r6, r8, sl, fp, sp}
 8004220:	08002b8d 	stmdaeq	r0, {r0, r2, r3, r7, r8, r9, fp, sp}
 8004224:	080029e7 	stmdaeq	r0, {r0, r1, r2, r5, r6, r7, r8, fp, sp}
 8004228:	08004264 	stmdaeq	r0, {r2, r5, r6, r9, lr}
 800422c:	0800288d 	stmdaeq	r0, {r0, r2, r3, r7, fp, sp}
 8004230:	08002b21 	stmdaeq	r0, {r0, r5, r8, r9, fp, sp}
 8004234:	08002ca1 	stmdaeq	r0, {r0, r5, r7, sl, fp, sp}
 8004238:	080029a7 	stmdaeq	r0, {r0, r1, r2, r5, r7, r8, fp, sp}
 800423c:	0000007f 	andeq	r0, r0, pc, ror r0
 8004240:	08003141 	stmdaeq	r0, {r0, r6, r8, ip, sp}
 8004244:	080029e7 	stmdaeq	r0, {r0, r1, r2, r5, r6, r7, r8, fp, sp}
 8004248:	08004258 	stmdaeq	r0, {r3, r4, r6, r9, lr}
 800424c:	0800418d 	stmdaeq	r0, {r0, r2, r3, r7, r8, lr}
 8004250:	080029fb 	stmdaeq	r0, {r0, r1, r3, r4, r5, r6, r7, r8, fp, sp}
 8004254:	0800425c 	stmdaeq	r0, {r2, r3, r4, r6, r9, lr}

08004258 <ACCP2>:
 8004258:	080041a9 	stmdaeq	r0, {r0, r3, r5, r7, r8, lr}

0800425c <ACCP3>:
 800425c:	080029fb 	stmdaeq	r0, {r0, r1, r3, r4, r5, r6, r7, r8, fp, sp}
 8004260:	0800421c 	stmdaeq	r0, {r2, r3, r4, r9, lr}

08004264 <ACCP4>:
 8004264:	08002b11 	stmdaeq	r0, {r0, r4, r8, r9, fp, sp}
 8004268:	08002b45 	stmdaeq	r0, {r0, r2, r6, r8, r9, fp, sp}
 800426c:	08002bf5 	stmdaeq	r0, {r0, r2, r4, r5, r6, r7, r8, r9, fp, sp}
 8004270:	080027e7 	stmdaeq	r0, {r0, r1, r2, r5, r6, r7, r8, r9, sl, sp}
 8004274:	08004204 	stmdaeq	r0, {r2, r9, lr}

08004278 <_QUERY>:
 8004278:	45555105 	ldrbmi	r5, [r5, #-261]	; 0xfffffefb
 800427c:	bf005952 	svclt	0x00005952

08004280 <QUERY>:
 8004280:	4750      	bx	sl
 8004282:	bf00      	nop
 8004284:	080034c9 	stmdaeq	r0, {r0, r3, r6, r7, sl, ip, sp}
 8004288:	080029a7 	stmdaeq	r0, {r0, r1, r2, r5, r7, r8, fp, sp}
 800428c:	00000050 	andeq	r0, r0, r0, asr r0
 8004290:	0800420d 	stmdaeq	r0, {r0, r2, r3, r9, lr}
 8004294:	08003065 	stmdaeq	r0, {r0, r2, r5, r6, ip, sp}
 8004298:	08002a19 	stmdaeq	r0, {r0, r3, r4, r9, fp, sp}
 800429c:	08002b11 	stmdaeq	r0, {r0, r4, r8, r9, fp, sp}
 80042a0:	080029a7 	stmdaeq	r0, {r0, r1, r2, r5, r7, r8, fp, sp}
 80042a4:	00000000 	andeq	r0, r0, r0
 80042a8:	0800304d 	stmdaeq	r0, {r0, r2, r3, r6, ip, sp}
 80042ac:	08002a19 	stmdaeq	r0, {r0, r3, r4, r9, fp, sp}
 80042b0:	080027e7 	stmdaeq	r0, {r0, r1, r2, r5, r6, r7, r8, r9, sl, sp}
 80042b4:	08004278 	stmdaeq	r0, {r3, r4, r5, r6, r9, lr}

080042b8 <_ABORT>:
 80042b8:	4f424105 	svcmi	0x00424105
 80042bc:	bf005452 	svclt	0x00005452

080042c0 <ABORT>:
 80042c0:	4750      	bx	sl
 80042c2:	bf00      	nop

080042c4 <ABORT1>:
 80042c4:	08003a11 	stmdaeq	r0, {r0, r4, r9, fp, ip, sp}
 80042c8:	08002f75 	stmdaeq	r0, {r0, r2, r4, r5, r6, r8, r9, sl, fp, sp}
 80042cc:	08003a65 	stmdaeq	r0, {r0, r2, r5, r6, r9, fp, ip, sp}
 80042d0:	080029a7 	stmdaeq	r0, {r0, r1, r2, r5, r7, r8, fp, sp}
 80042d4:	0000003f 	andeq	r0, r0, pc, lsr r0
 80042d8:	080028b1 	stmdaeq	r0, {r0, r4, r5, r7, fp, sp}
 80042dc:	08003a99 	stmdaeq	r0, {r0, r3, r4, r7, r9, fp, ip, sp}
 80042e0:	08004449 	stmdaeq	r0, {r0, r3, r6, sl, lr}
 80042e4:	080029fb 	stmdaeq	r0, {r0, r1, r3, r4, r5, r6, r7, r8, fp, sp}
 80042e8:	08004468 	stmdaeq	r0, {r3, r5, r6, sl, lr}

080042ec <ABORQ>:
 80042ec:	4750      	bx	sl
 80042ee:	bf00      	nop
 80042f0:	08003ab9 	stmdaeq	r0, {r0, r3, r4, r5, r7, r9, fp, ip, sp}
 80042f4:	08002b31 	stmdaeq	r0, {r0, r4, r5, r8, r9, fp, sp}
 80042f8:	080029e7 	stmdaeq	r0, {r0, r1, r2, r5, r6, r7, r8, fp, sp}
 80042fc:	08004308 	stmdaeq	r0, {r3, r8, r9, lr}
 8004300:	080029fb 	stmdaeq	r0, {r0, r1, r3, r4, r5, r6, r7, r8, fp, sp}
 8004304:	080042c4 	stmdaeq	r0, {r2, r6, r7, r9, lr}
 8004308:	08002b11 	stmdaeq	r0, {r0, r4, r8, r9, fp, sp}
 800430c:	080027e7 	stmdaeq	r0, {r0, r1, r2, r5, r6, r7, r8, r9, sl, sp}
 8004310:	080042b8 	stmdaeq	r0, {r3, r4, r5, r7, r9, lr}

08004314 <_INTER>:
 8004314:	4e49240a 	cdpmi	4, 4, cr2, cr9, cr10, {0}
 8004318:	50524554 	subspl	r4, r2, r4, asr r5
 800431c:	00544552 	subseq	r4, r4, r2, asr r5

08004320 <INTER>:
 8004320:	4750      	bx	sl
 8004322:	bf00      	nop
 8004324:	0800404d 	stmdaeq	r0, {r0, r2, r3, r6, lr}
 8004328:	08002cf5 	stmdaeq	r0, {r0, r2, r4, r5, r6, r7, sl, fp, sp}
 800432c:	080029e7 	stmdaeq	r0, {r0, r1, r2, r5, r6, r7, r8, fp, sp}
 8004330:	08004360 	stmdaeq	r0, {r5, r6, r8, r9, lr}
 8004334:	08002a2d 	stmdaeq	r0, {r0, r2, r3, r5, r9, fp, sp}
 8004338:	080029a7 	stmdaeq	r0, {r0, r1, r2, r5, r7, r8, fp, sp}
 800433c:	00000040 	andeq	r0, r0, r0, asr #32
 8004340:	08002b65 	stmdaeq	r0, {r0, r2, r5, r6, r8, r9, fp, sp}
 8004344:	080042ed 	stmdaeq	r0, {r0, r2, r3, r5, r6, r7, r9, lr}
 8004348:	6f63200d 	svcvs	0x0063200d
 800434c:	6c69706d 	stclvs	0, cr7, [r9], #-436	; 0xfffffe4c
 8004350:	6e6f2065 	cdpvs	0, 6, cr2, cr15, cr5, {3}
 8004354:	bf00796c 	svclt	0x0000796c
 8004358:	080029bd 	stmdaeq	r0, {r0, r2, r3, r4, r5, r7, r8, fp, sp}
 800435c:	080027e7 	stmdaeq	r0, {r0, r1, r2, r5, r6, r7, r8, r9, sl, sp}

08004360 <INTE1>:
 8004360:	08002341 	stmdaeq	r0, {r0, r6, r8, r9, sp}
 8004364:	080029e7 	stmdaeq	r0, {r0, r1, r2, r5, r6, r7, r8, fp, sp}
 8004368:	08004370 	stmdaeq	r0, {r4, r5, r6, r8, r9, lr}
 800436c:	080027e7 	stmdaeq	r0, {r0, r1, r2, r5, r6, r7, r8, r9, sl, sp}

08004370 <INTE2>:
 8004370:	080042c1 	stmdaeq	r0, {r0, r6, r7, r9, lr}
 8004374:	08004314 	stmdaeq	r0, {r2, r4, r8, r9, lr}

08004378 <_LBRAC>:
 8004378:	bf005b81 	svclt	0x00005b81

0800437c <LBRAC>:
 800437c:	4750      	bx	sl
 800437e:	bf00      	nop
 8004380:	080029a7 	stmdaeq	r0, {r0, r1, r2, r5, r7, r8, fp, sp}
 8004384:	08004320 	stmdaeq	r0, {r5, r8, r9, lr}
 8004388:	0800307d 	stmdaeq	r0, {r0, r2, r3, r4, r5, r6, ip, sp}
 800438c:	08002a19 	stmdaeq	r0, {r0, r3, r4, r9, fp, sp}
 8004390:	080027e7 	stmdaeq	r0, {r0, r1, r2, r5, r6, r7, r8, r9, sl, sp}
 8004394:	08004378 	stmdaeq	r0, {r3, r4, r5, r6, r8, r9, lr}

08004398 <_DOTOK>:
 8004398:	4b4f2e03 	blmi	93cfbac <OPTKEY1+0x123d171>

0800439c <DOTOK>:
 800439c:	4750      	bx	sl
 800439e:	bf00      	nop
 80043a0:	080029a7 	stmdaeq	r0, {r0, r1, r2, r5, r7, r8, fp, sp}
 80043a4:	08004320 	stmdaeq	r0, {r5, r8, r9, lr}
 80043a8:	0800307d 	stmdaeq	r0, {r0, r2, r3, r4, r5, r6, ip, sp}
 80043ac:	08002a2d 	stmdaeq	r0, {r0, r2, r3, r5, r9, fp, sp}
 80043b0:	08002e6d 	stmdaeq	r0, {r0, r2, r3, r5, r6, r9, sl, fp, sp}
 80043b4:	080029e7 	stmdaeq	r0, {r0, r1, r2, r5, r6, r7, r8, fp, sp}
 80043b8:	080043c4 	stmdaeq	r0, {r2, r6, r7, r8, r9, lr}
 80043bc:	08003b01 	stmdaeq	r0, {r0, r8, r9, fp, ip, sp}
 80043c0:	6b6f2003 	blvs	9bcc3d4 <OPTKEY1+0x1a39999>

080043c4 <DOTO1>:
 80043c4:	08003a99 	stmdaeq	r0, {r0, r3, r4, r7, r9, fp, ip, sp}
